 CourseworkBase2020

 Timestamp is 644d98e9 (Sat Apr 29 23:23:37 2023)

 Preferred load address is 00400000

 Start         Length     Name                   Class
 0001:00000000 000061c0H .text$di                CODE
 0001:000061c0 000355c0H .text$mn                CODE
 0001:0003b780 00004020H .text$x                 CODE
 0001:0003f7a0 00001012H .text$yd                CODE
 0002:00000000 00000104H .CRT$XCA                DATA
 0002:00000104 00000104H .CRT$XCAA               DATA
 0002:00000208 00000104H .CRT$XCL                DATA
 0002:0000030c 00000104H .CRT$XCZ                DATA
 0002:00000410 00000104H .CRT$XIA                DATA
 0002:00000514 00000104H .CRT$XIAA               DATA
 0002:00000618 00000104H .CRT$XIAC               DATA
 0002:0000071c 00000104H .CRT$XIC                DATA
 0002:00000820 00000104H .CRT$XIZ                DATA
 0002:00000924 00000004H .CRT$XLA                DATA
 0002:00000928 00000004H .CRT$XLZ                DATA
 0002:0000092c 00000104H .CRT$XPA                DATA
 0002:00000a30 00000104H .CRT$XPZ                DATA
 0002:00000b34 00000104H .CRT$XTA                DATA
 0002:00000c38 00000108H .CRT$XTZ                DATA
 0002:00000d40 00009080H .rdata                  DATA
 0002:00009dc0 00000180H .rdata$CastGuardVftablesA DATA
 0002:00009f40 0000014cH .rdata$CastGuardVftablesC DATA
 0002:0000a08c 0000011cH .rdata$T                DATA
 0002:0000a1a8 000014e8H .rdata$r                DATA
 0002:0000b690 00000444H .rdata$sxdata           DATA
 0002:0000bad4 000001a0H .rdata$zzzdbg           DATA
 0002:0000bc74 00000104H .rtc$IAA                DATA
 0002:0000bd78 00000104H .rtc$IZZ                DATA
 0002:0000be7c 00000104H .rtc$TAA                DATA
 0002:0000bf80 00000108H .rtc$TZZ                DATA
 0002:0000c088 00002b9cH .xdata$x                DATA
 0002:0000ec24 00000000H .edata                  DATA
 0003:00000000 00000134H .data                   DATA
 0003:00000134 0000019cH .data$r                 DATA
 0003:000002d0 000008e0H .data$rs                DATA
 0003:00000bb0 000004a8H .bss                    DATA
 0004:00000000 000004f4H .idata$5                DATA
 0004:000004f4 0000008cH .idata$2                DATA
 0004:00000580 00000014H .idata$3                DATA
 0004:00000594 000004f4H .idata$4                DATA
 0004:00000a88 00001c98H .idata$6                DATA
 0005:00000000 00000104H .tls                    DATA
 0005:00000104 00000104H .tls$                   DATA
 0005:00000208 00000101H .tls$ZZZ                DATA
 0006:00000000 0000010eH .00cfg                  DATA
 0007:00000000 00000170H .rsrc$01                DATA
 0007:00000170 000002ccH .rsrc$02                DATA

  Address         Publics by Value              Rva+Base       Lib:Object

 0000:00000000       ___AbsoluteZero            00000000     <absolute>
 0000:00000000       ___arm64x_extra_rfe_table  00000000     <absolute>
 0000:00000000       ___arm64x_extra_rfe_table_size 00000000     <absolute>
 0000:00000000       ___arm64x_native_entrypoint 00000000     <absolute>
 0000:00000000       ___arm64x_redirection_metadata 00000000     <absolute>
 0000:00000000       ___arm64x_redirection_metadata_count 00000000     <absolute>
 0000:00000000       ___dynamic_value_reloc_table 00000000     <absolute>
 0000:00000000       ___enclave_config          00000000     <absolute>
 0000:00000000       ___guard_check_icall_a64n_fptr 00000000     <absolute>
 0000:00000000       ___guard_eh_cont_count     00000000     <absolute>
 0000:00000000       ___guard_eh_cont_table     00000000     <absolute>
 0000:00000000       ___guard_fids_count        00000000     <absolute>
 0000:00000000       ___guard_fids_table        00000000     <absolute>
 0000:00000000       ___guard_iat_count         00000000     <absolute>
 0000:00000000       ___guard_iat_table         00000000     <absolute>
 0000:00000000       ___guard_longjmp_count     00000000     <absolute>
 0000:00000000       ___guard_longjmp_table     00000000     <absolute>
 0000:00000000       ___hybrid_auxiliary_iat    00000000     <absolute>
 0000:00000000       ___hybrid_auxiliary_iat_copy 00000000     <absolute>
 0000:00000000       ___hybrid_code_map         00000000     <absolute>
 0000:00000000       ___hybrid_code_map_count   00000000     <absolute>
 0000:00000000       ___volatile_metadata       00000000     <absolute>
 0000:00000000       ___x64_code_ranges_to_entry_points 00000000     <absolute>
 0000:00000000       ___x64_code_ranges_to_entry_points_count 00000000     <absolute>
 0000:0000002c       __tls_array                0000002c     <absolute>
 0000:000000b1       ___safe_se_handler_count   000000b1     <absolute>
 0000:00000100       ___guard_flags             00000100     <absolute>
 0000:00000000       ___ImageBase               00400000     <linker-defined>
 0001:000061c0       ?virtSetupBackgroundBuffer@DraggingDemo@@UAEXXZ 004071c0 f   DraggingDemo.obj
 0001:00006300       ?virtInitialiseObjects@DraggingDemo@@UAEHXZ 00407300 f   DraggingDemo.obj
 0001:00006550       ?virtKeyDown@DraggingDemo@@UAEXH@Z 00407550 f   DraggingDemo.obj
 0001:00006580       ??$?0ABV?$allocator@I@std@@$$V@?$_Compressed_pair@V?$allocator@I@std@@V?$_Vector_val@U?$_Simple_types@I@std@@@2@$00@std@@QAE@U_One_then_variadic_args_t@1@ABV?$allocator@I@1@@Z 00407580 f i MovingText.obj
 0001:000065b0       ??$_Destroy_range@V?$allocator@V?$basic_string@DU?$char_traits@D@std@@V?$allocator@D@2@@std@@@std@@@std@@YAXPAV?$basic_string@DU?$char_traits@D@std@@V?$allocator@D@2@@0@QAV10@AAV?$allocator@V?$basic_string@DU?$char_traits@D@std@@V?$allocator@D@2@@std@@@0@@Z 004075b0 f i MovingText.obj
 0001:00006620       ??$_Copy_n_unchecked4@PBV?$basic_string@DU?$char_traits@D@std@@V?$allocator@D@2@@std@@IPAV12@@std@@YAPAV?$basic_string@DU?$char_traits@D@std@@V?$allocator@D@2@@0@PBV10@IPAV10@@Z 00407620 f i MovingText.obj
 0001:00006670       ??$?0$$V@?$_Compressed_pair@V?$allocator@D@std@@V?$_String_val@U?$_Simple_types@D@std@@@2@$00@std@@QAE@U_Zero_then_variadic_args_t@1@@Z 00407670 f i DraggingDemo.obj
 0001:000066a0       ??$?0$$V@?$_Compressed_pair@V?$allocator@U?$_Tree_node@U?$pair@$$CBV?$basic_string@DU?$char_traits@D@std@@V?$allocator@D@2@@std@@V?$shared_ptr@VRawImageData@@@2@@std@@PAX@std@@@std@@V?$_Tree_val@U?$_Tree_simple_types@U?$pair@$$CBV?$basic_string@DU?$char_traits@D@std@@V?$allocator@D@2@@std@@V?$shared_ptr@VRawImageData@@@2@@std@@@std@@@2@$00@std@@QAE@U_Zero_then_variadic_args_t@1@@Z 004076a0 f i DraggingDemo.obj
 0001:000066d0       ??$?0$$V@?$_Compressed_pair@V?$allocator@U?$_Tree_node@U?$pair@$$CBV?$basic_string@DU?$char_traits@D@std@@V?$allocator@D@2@@std@@V?$weak_ptr@VRawImageData@@@2@@std@@PAX@std@@@std@@V?$_Tree_val@U?$_Tree_simple_types@U?$pair@$$CBV?$basic_string@DU?$char_traits@D@std@@V?$allocator@D@2@@std@@V?$weak_ptr@VRawImageData@@@2@@std@@@std@@@2@$00@std@@QAE@U_Zero_then_variadic_args_t@1@@Z 004076d0 f i DraggingDemo.obj
 0001:00006700       ??$?0AAPAU?$_Tree_node@U?$pair@$$CBV?$basic_string@DU?$char_traits@D@std@@V?$allocator@D@2@@std@@V?$shared_ptr@VRawImageData@@@2@@std@@PAX@std@@_N$0A@@?$pair@PAU?$_Tree_node@U?$pair@$$CBV?$basic_string@DU?$char_traits@D@std@@V?$allocator@D@2@@std@@V?$shared_ptr@VRawImageData@@@2@@std@@PAX@std@@_N@std@@QAE@AAPAU?$_Tree_node@U?$pair@$$CBV?$basic_string@DU?$char_traits@D@std@@V?$allocator@D@2@@std@@V?$shared_ptr@VRawImageData@@@2@@std@@PAX@1@$$QA_N@Z 00407700 f i DraggingDemo.obj
 0001:00006750       ??$?0AAPAU?$_Tree_node@U?$pair@$$CBV?$basic_string@DU?$char_traits@D@std@@V?$allocator@D@2@@std@@V?$weak_ptr@VRawImageData@@@2@@std@@PAX@std@@_N$0A@@?$pair@PAU?$_Tree_node@U?$pair@$$CBV?$basic_string@DU?$char_traits@D@std@@V?$allocator@D@2@@std@@V?$weak_ptr@VRawImageData@@@2@@std@@PAX@std@@_N@std@@QAE@AAPAU?$_Tree_node@U?$pair@$$CBV?$basic_string@DU?$char_traits@D@std@@V?$allocator@D@2@@std@@V?$weak_ptr@VRawImageData@@@2@@std@@PAX@1@$$QA_N@Z 00407750 f i DraggingDemo.obj
 0001:000067a0       ??$?0AAV?$basic_string@DU?$char_traits@D@std@@V?$allocator@D@2@@std@@AAV?$shared_ptr@VRawImageData@@@1@$0A@@?$pair@V?$basic_string@DU?$char_traits@D@std@@V?$allocator@D@2@@std@@V?$shared_ptr@VRawImageData@@@2@@std@@QAE@AAV?$basic_string@DU?$char_traits@D@std@@V?$allocator@D@2@@1@AAV?$shared_ptr@VRawImageData@@@1@@Z 004077a0 f i DraggingDemo.obj
 0001:000067f0       ??$?0AAV?$basic_string@DU?$char_traits@D@std@@V?$allocator@D@2@@std@@AAV?$weak_ptr@VRawImageData@@@1@$0A@@?$pair@V?$basic_string@DU?$char_traits@D@std@@V?$allocator@D@2@@std@@V?$weak_ptr@VRawImageData@@@2@@std@@QAE@AAV?$basic_string@DU?$char_traits@D@std@@V?$allocator@D@2@@1@AAV?$weak_ptr@VRawImageData@@@1@@Z 004077f0 f i DraggingDemo.obj
 0001:00006840       ??$?0ABU?$less@V?$basic_string@DU?$char_traits@D@std@@V?$allocator@D@2@@std@@@std@@U_Zero_then_variadic_args_t@1@@?$_Compressed_pair@U?$less@V?$basic_string@DU?$char_traits@D@std@@V?$allocator@D@2@@std@@@std@@V?$_Compressed_pair@V?$allocator@U?$_Tree_node@U?$pair@$$CBV?$basic_string@DU?$char_traits@D@std@@V?$allocator@D@2@@std@@V?$shared_ptr@VRawImageData@@@2@@std@@PAX@std@@@std@@V?$_Tree_val@U?$_Tree_simple_types@U?$pair@$$CBV?$basic_string@DU?$char_traits@D@std@@V?$allocator@D@2@@std@@V?$shared_ptr@VRawImageData@@@2@@std@@@std@@@2@$00@2@$00@std@@QAE@U_One_then_variadic_args_t@1@ABU?$less@V?$basic_string@DU?$char_traits@D@std@@V?$allocator@D@2@@std@@@1@$$QAU_Zero_then_variadic_args_t@1@@Z 00407840 f i DraggingDemo.obj
 0001:00006880       ?_Xlength@?$vector@IV?$allocator@I@std@@@std@@CAXXZ 00407880 f i MovingText.obj
 0001:00006890       ??$?0ABU?$less@V?$basic_string@DU?$char_traits@D@std@@V?$allocator@D@2@@std@@@std@@U_Zero_then_variadic_args_t@1@@?$_Compressed_pair@U?$less@V?$basic_string@DU?$char_traits@D@std@@V?$allocator@D@2@@std@@@std@@V?$_Compressed_pair@V?$allocator@U?$_Tree_node@U?$pair@$$CBV?$basic_string@DU?$char_traits@D@std@@V?$allocator@D@2@@std@@V?$weak_ptr@VRawImageData@@@2@@std@@PAX@std@@@std@@V?$_Tree_val@U?$_Tree_simple_types@U?$pair@$$CBV?$basic_string@DU?$char_traits@D@std@@V?$allocator@D@2@@std@@V?$weak_ptr@VRawImageData@@@2@@std@@@std@@@2@$00@2@$00@std@@QAE@U_One_then_variadic_args_t@1@ABU?$less@V?$basic_string@DU?$char_traits@D@std@@V?$allocator@D@2@@std@@@1@$$QAU_Zero_then_variadic_args_t@1@@Z 00407890 f i DraggingDemo.obj
 0001:000068d0       ?begin@?$initializer_list@I@std@@QBEPBIXZ 004078d0 f i MovingText.obj
 0001:000068e0       ??$?0D@?$allocator@U_Container_proxy@std@@@std@@QAE@ABV?$allocator@D@1@@Z 004078e0 f i DraggingDemo.obj
 0001:000068f0       ?begin@?$initializer_list@V?$basic_string@DU?$char_traits@D@std@@V?$allocator@D@2@@std@@@std@@QBEPBV?$basic_string@DU?$char_traits@D@std@@V?$allocator@D@2@@2@XZ 004078f0 f i MovingText.obj
 0001:00006900       ??$?0PAU?$_Tree_node@U?$pair@$$CBV?$basic_string@DU?$char_traits@D@std@@V?$allocator@D@2@@std@@V?$shared_ptr@VRawImageData@@@2@@std@@PAX@std@@_N$0A@@?$pair@PAU?$_Tree_node@U?$pair@$$CBV?$basic_string@DU?$char_traits@D@std@@V?$allocator@D@2@@std@@V?$shared_ptr@VRawImageData@@@2@@std@@PAX@std@@_N@std@@QAE@$$QAPAU?$_Tree_node@U?$pair@$$CBV?$basic_string@DU?$char_traits@D@std@@V?$allocator@D@2@@std@@V?$shared_ptr@VRawImageData@@@2@@std@@PAX@1@$$QA_N@Z 00407900 f i DraggingDemo.obj
 0001:00006950       ??$?0PAU?$_Tree_node@U?$pair@$$CBV?$basic_string@DU?$char_traits@D@std@@V?$allocator@D@2@@std@@V?$weak_ptr@VRawImageData@@@2@@std@@PAX@std@@_N$0A@@?$pair@PAU?$_Tree_node@U?$pair@$$CBV?$basic_string@DU?$char_traits@D@std@@V?$allocator@D@2@@std@@V?$weak_ptr@VRawImageData@@@2@@std@@PAX@std@@_N@std@@QAE@$$QAPAU?$_Tree_node@U?$pair@$$CBV?$basic_string@DU?$char_traits@D@std@@V?$allocator@D@2@@std@@V?$weak_ptr@VRawImageData@@@2@@std@@PAX@1@$$QA_N@Z 00407950 f i DraggingDemo.obj
 0001:000069a0       ??$?0U?$_Tree_node@U?$pair@$$CBV?$basic_string@DU?$char_traits@D@std@@V?$allocator@D@2@@std@@V?$shared_ptr@VRawImageData@@@2@@std@@PAX@std@@@?$allocator@U_Container_proxy@std@@@std@@QAE@ABV?$allocator@U?$_Tree_node@U?$pair@$$CBV?$basic_string@DU?$char_traits@D@std@@V?$allocator@D@2@@std@@V?$shared_ptr@VRawImageData@@@2@@std@@PAX@std@@@1@@Z 004079a0 f i DraggingDemo.obj
 0001:000069c0       ??$?0U?$_Tree_node@U?$pair@$$CBV?$basic_string@DU?$char_traits@D@std@@V?$allocator@D@2@@std@@V?$weak_ptr@VRawImageData@@@2@@std@@PAX@std@@@?$allocator@U_Container_proxy@std@@@std@@QAE@ABV?$allocator@U?$_Tree_node@U?$pair@$$CBV?$basic_string@DU?$char_traits@D@std@@V?$allocator@D@2@@std@@V?$weak_ptr@VRawImageData@@@2@@std@@PAX@std@@@1@@Z 004079c0 f i DraggingDemo.obj
 0001:000069e0       ??$?0U?$pair@V?$basic_string@DU?$char_traits@D@std@@V?$allocator@D@2@@std@@V?$shared_ptr@VRawImageData@@@2@@std@@@?$_Tree_temp_node@V?$allocator@U?$_Tree_node@U?$pair@$$CBV?$basic_string@DU?$char_traits@D@std@@V?$allocator@D@2@@std@@V?$shared_ptr@VRawImageData@@@2@@std@@PAX@std@@@std@@@std@@QAE@AAV?$allocator@U?$_Tree_node@U?$pair@$$CBV?$basic_string@DU?$char_traits@D@std@@V?$allocator@D@2@@std@@V?$shared_ptr@VRawImageData@@@2@@std@@PAX@std@@@1@PAU?$_Tree_node@U?$pair@$$CBV?$basic_string@DU?$char_traits@D@std@@V?$allocator@D@2@@std@@V?$shared_ptr@VRawImageData@@@2@@std@@PAX@1@$$QAU?$pair@V?$basic_string@DU?$char_traits@D@std@@V?$allocator@D@2@@std@@V?$shared_ptr@VRawImageData@@@2@@1@@Z 004079e0 f i DraggingDemo.obj
 0001:00006ac0       ??$_Get_size_of_n@$0BM@@std@@YAII@Z 00407ac0 f i MovingText.obj
 0001:00006af0       ??$?0U?$pair@V?$basic_string@DU?$char_traits@D@std@@V?$allocator@D@2@@std@@V?$weak_ptr@VRawImageData@@@2@@std@@@?$_Tree_temp_node@V?$allocator@U?$_Tree_node@U?$pair@$$CBV?$basic_string@DU?$char_traits@D@std@@V?$allocator@D@2@@std@@V?$weak_ptr@VRawImageData@@@2@@std@@PAX@std@@@std@@@std@@QAE@AAV?$allocator@U?$_Tree_node@U?$pair@$$CBV?$basic_string@DU?$char_traits@D@std@@V?$allocator@D@2@@std@@V?$weak_ptr@VRawImageData@@@2@@std@@PAX@std@@@1@PAU?$_Tree_node@U?$pair@$$CBV?$basic_string@DU?$char_traits@D@std@@V?$allocator@D@2@@std@@V?$weak_ptr@VRawImageData@@@2@@std@@PAX@1@$$QAU?$pair@V?$basic_string@DU?$char_traits@D@std@@V?$allocator@D@2@@std@@V?$weak_ptr@VRawImageData@@@2@@1@@Z 00407af0 f i DraggingDemo.obj
 0001:00006bd0       ??$move@AAPBV?$basic_string@DU?$char_traits@D@std@@V?$allocator@D@2@@std@@@std@@YA$$QAPBV?$basic_string@DU?$char_traits@D@std@@V?$allocator@D@2@@0@AAPBV10@@Z 00407bd0 f i MovingText.obj
 0001:00006be0       ?_Release@?$_Uninitialized_backout_al@V?$allocator@V?$basic_string@DU?$char_traits@D@std@@V?$allocator@D@2@@std@@@std@@@std@@QAEPAV?$basic_string@DU?$char_traits@D@std@@V?$allocator@D@2@@2@XZ 00407be0 f i MovingText.obj
 0001:00006c00       ??$?0V?$_Tree_iterator@V?$_Tree_val@U?$_Tree_simple_types@U?$pair@$$CBV?$basic_string@DU?$char_traits@D@std@@V?$allocator@D@2@@std@@V?$shared_ptr@VRawImageData@@@2@@std@@@std@@@std@@@std@@AB_N$0A@@?$pair@V?$_Tree_iterator@V?$_Tree_val@U?$_Tree_simple_types@U?$pair@$$CBV?$basic_string@DU?$char_traits@D@std@@V?$allocator@D@2@@std@@V?$shared_ptr@VRawImageData@@@2@@std@@@std@@@std@@@std@@_N@std@@QAE@$$QAV?$_Tree_iterator@V?$_Tree_val@U?$_Tree_simple_types@U?$pair@$$CBV?$basic_string@DU?$char_traits@D@std@@V?$allocator@D@2@@std@@V?$shared_ptr@VRawImageData@@@2@@std@@@std@@@std@@@1@AB_N@Z 00407c00 f i DraggingDemo.obj
 0001:00006c50       ??$?0V?$_Tree_iterator@V?$_Tree_val@U?$_Tree_simple_types@U?$pair@$$CBV?$basic_string@DU?$char_traits@D@std@@V?$allocator@D@2@@std@@V?$weak_ptr@VRawImageData@@@2@@std@@@std@@@std@@@std@@AB_N$0A@@?$pair@V?$_Tree_iterator@V?$_Tree_val@U?$_Tree_simple_types@U?$pair@$$CBV?$basic_string@DU?$char_traits@D@std@@V?$allocator@D@2@@std@@V?$weak_ptr@VRawImageData@@@2@@std@@@std@@@std@@@std@@_N@std@@QAE@$$QAV?$_Tree_iterator@V?$_Tree_val@U?$_Tree_simple_types@U?$pair@$$CBV?$basic_string@DU?$char_traits@D@std@@V?$allocator@D@2@@std@@V?$weak_ptr@VRawImageData@@@2@@std@@@std@@@std@@@1@AB_N@Z 00407c50 f i DraggingDemo.obj
 0001:00006ca0       ??$?0V?$allocator@D@std@@$$V@?$_Compressed_pair@V?$allocator@D@std@@V?$_String_val@U?$_Simple_types@D@std@@@2@$00@std@@QAE@U_One_then_variadic_args_t@1@$$QAV?$allocator@D@1@@Z 00407ca0 f i DraggingDemo.obj
 0001:00006cd0       ??$?0V?$basic_string@DU?$char_traits@D@std@@V?$allocator@D@2@@std@@V?$shared_ptr@VRawImageData@@@1@$0A@@?$pair@$$CBV?$basic_string@DU?$char_traits@D@std@@V?$allocator@D@2@@std@@V?$shared_ptr@VRawImageData@@@2@@std@@QAE@$$QAU?$pair@V?$basic_string@DU?$char_traits@D@std@@V?$allocator@D@2@@std@@V?$shared_ptr@VRawImageData@@@2@@1@@Z 00407cd0 f i DraggingDemo.obj
 0001:00006d20       ??$?0V?$basic_string@DU?$char_traits@D@std@@V?$allocator@D@2@@std@@V?$weak_ptr@VRawImageData@@@1@$0A@@?$pair@$$CBV?$basic_string@DU?$char_traits@D@std@@V?$allocator@D@2@@std@@V?$weak_ptr@VRawImageData@@@2@@std@@QAE@$$QAU?$pair@V?$basic_string@DU?$char_traits@D@std@@V?$allocator@D@2@@std@@V?$weak_ptr@VRawImageData@@@2@@1@@Z 00407d20 f i DraggingDemo.obj
 0001:00006d70       ??$?0VRawImageData@@$0A@@?$shared_ptr@VRawImageData@@@std@@QAE@PAVRawImageData@@@Z 00407d70 f i DraggingDemo.obj
 0001:00006e30       ??0?$allocator@I@std@@QAE@XZ 00407e30 f i MovingText.obj
 0001:00006e40       ?_Unchecked_end@?$vector@V?$basic_string@DU?$char_traits@D@std@@V?$allocator@D@2@@std@@V?$allocator@V?$basic_string@DU?$char_traits@D@std@@V?$allocator@D@2@@std@@@2@@std@@QAEPAV?$basic_string@DU?$char_traits@D@std@@V?$allocator@D@2@@2@XZ 00407e40 f i MovingText.obj
 0001:00006e60       ??$?0VRawImageData@@$0A@@?$weak_ptr@VRawImageData@@@std@@QAE@ABV?$shared_ptr@VRawImageData@@@1@@Z 00407e60 f i DraggingDemo.obj
 0001:00006e90       ??$?6DU?$char_traits@D@std@@V?$allocator@D@1@@std@@YAAAV?$basic_ostream@DU?$char_traits@D@std@@@0@AAV10@ABV?$basic_string@DU?$char_traits@D@std@@V?$allocator@D@2@@0@@Z 00407e90 f i DraggingDemo.obj
 0001:00006ec0       ??$?6U?$char_traits@D@std@@@std@@YAAAV?$basic_ostream@DU?$char_traits@D@std@@@0@AAV10@PBD@Z 00407ec0 f i DraggingDemo.obj
 0001:000071f0       ??$_To_address@PBI@std@@YA?A_PABQBI@Z 004081f0 f i MovingText.obj
 0001:00007200       ??$_Uninitialized_copy_n@PBV?$basic_string@DU?$char_traits@D@std@@V?$allocator@D@2@@std@@V?$allocator@V?$basic_string@DU?$char_traits@D@std@@V?$allocator@D@2@@std@@@2@@std@@YAPAV?$basic_string@DU?$char_traits@D@std@@V?$allocator@D@2@@0@PBV10@IPAV10@AAV?$allocator@V?$basic_string@DU?$char_traits@D@std@@V?$allocator@D@2@@std@@@0@@Z 00408200 f i MovingText.obj
 0001:000072c0       ??$?9VRawImageData@@@std@@YA_NABV?$shared_ptr@VRawImageData@@@0@$$T@Z 004082c0 f i DraggingDemo.obj
 0001:000072f0       ??$?CVRawImageData@@$0A@@?$shared_ptr@VRawImageData@@@std@@QBEPAVRawImageData@@XZ 004082f0 f i DraggingDemo.obj
 0001:00007310       ??$?MDU?$char_traits@D@std@@V?$allocator@D@1@@std@@YA_NABV?$basic_string@DU?$char_traits@D@std@@V?$allocator@D@2@@0@0@Z 00408310 f i DraggingDemo.obj
 0001:00007350       ??$_Alloc_proxy@V?$allocator@U_Container_proxy@std@@@std@@@_Container_base12@std@@QAEX$$QAV?$allocator@U_Container_proxy@std@@@1@@Z 00408350 f i DraggingDemo.obj
 0001:000073b0       ??$_Allocate@$07U_Default_allocate_traits@std@@$0A@@std@@YAPAXI@Z 004083b0 f i DraggingDemo.obj
 0001:000073f0       ??$_Allocate_manually_vector_aligned@U_Default_allocate_traits@std@@@std@@YAPAXI@Z 004083f0 f i DraggingDemo.obj
 0001:000074b0       ?_Buy_nonzero@?$vector@IV?$allocator@I@std@@@std@@AAEXI@Z 004084b0 f i MovingText.obj
 0001:000074e0       ??$_Buyheadnode@V?$allocator@U?$_Tree_node@U?$pair@$$CBV?$basic_string@DU?$char_traits@D@std@@V?$allocator@D@2@@std@@V?$shared_ptr@VRawImageData@@@2@@std@@PAX@std@@@std@@@?$_Tree_node@U?$pair@$$CBV?$basic_string@DU?$char_traits@D@std@@V?$allocator@D@2@@std@@V?$shared_ptr@VRawImageData@@@2@@std@@PAX@std@@SAPAU01@AAV?$allocator@U?$_Tree_node@U?$pair@$$CBV?$basic_string@DU?$char_traits@D@std@@V?$allocator@D@2@@std@@V?$shared_ptr@VRawImageData@@@2@@std@@PAX@std@@@1@@Z 004084e0 f i DraggingDemo.obj
 0001:00007540       ?setAnimationEndX@MovingText@@QAEXH@Z 00408540 f i MovingText.obj
 0001:00007560       ??$_Buyheadnode@V?$allocator@U?$_Tree_node@U?$pair@$$CBV?$basic_string@DU?$char_traits@D@std@@V?$allocator@D@2@@std@@V?$weak_ptr@VRawImageData@@@2@@std@@PAX@std@@@std@@@?$_Tree_node@U?$pair@$$CBV?$basic_string@DU?$char_traits@D@std@@V?$allocator@D@2@@std@@V?$weak_ptr@VRawImageData@@@2@@std@@PAX@std@@SAPAU01@AAV?$allocator@U?$_Tree_node@U?$pair@$$CBV?$basic_string@DU?$char_traits@D@std@@V?$allocator@D@2@@std@@V?$weak_ptr@VRawImageData@@@2@@std@@PAX@std@@@1@@Z 00408560 f i DraggingDemo.obj
 0001:000075c0       ?_Get_first@?$_Compressed_pair@V?$allocator@I@std@@V?$_Vector_val@U?$_Simple_types@I@std@@@2@$00@std@@QAEAAV?$allocator@I@2@XZ 004085c0 f i MovingText.obj
 0001:000075e0       ??$_Construct@$00PBD@?$basic_string@DU?$char_traits@D@std@@V?$allocator@D@2@@std@@AAEXQBDI@Z 004085e0 f i DraggingDemo.obj
 0001:00007760       ??0?$_Vector_val@U?$_Simple_types@I@std@@@std@@QAE@XZ 00408760 f i MovingText.obj
 0001:000077a0       ?_Get_first@?$_Compressed_pair@V?$allocator@I@std@@V?$_Vector_val@U?$_Simple_types@I@std@@@2@$00@std@@QBEABV?$allocator@I@2@XZ 004087a0 f i MovingText.obj
 0001:000077c0       ??$_Construct@$01PBD@?$basic_string@DU?$char_traits@D@std@@V?$allocator@D@2@@std@@AAEXQBDI@Z 004087c0 f i DraggingDemo.obj
 0001:00007920       ??$move@AAV?$basic_string@DU?$char_traits@D@std@@V?$allocator@D@2@@std@@@std@@YA$$QAV?$basic_string@DU?$char_traits@D@std@@V?$allocator@D@2@@0@AAV10@@Z 00408920 f i MovingText.obj
 0001:00007930       ??0?$initializer_list@V?$basic_string@DU?$char_traits@D@std@@V?$allocator@D@2@@std@@@std@@QAE@PBV?$basic_string@DU?$char_traits@D@std@@V?$allocator@D@2@@1@0@Z 00408930 f i MovingText.obj
 0001:00007970       ??$_Construct_from_weak@VRawImageData@@@?$_Ptr_base@VRawImageData@@@std@@IAE_NABV?$weak_ptr@VRawImageData@@@1@@Z 00408970 f i DraggingDemo.obj
 0001:000079d0       ??$_Construct_in_place@PADAAPAD@std@@YAXAAPAD0@Z 004089d0 f i DraggingDemo.obj
 0001:00007a20       ??$_Construct_in_place@PADABQAD@std@@YAXAAPADABQAD@Z 00408a20 f i DraggingDemo.obj
 0001:00007a70       ??$_Construct_in_place@PAU?$_Tree_node@U?$pair@$$CBV?$basic_string@DU?$char_traits@D@std@@V?$allocator@D@2@@std@@V?$shared_ptr@VRawImageData@@@2@@std@@PAX@std@@AAPAU12@@std@@YAXAAPAU?$_Tree_node@U?$pair@$$CBV?$basic_string@DU?$char_traits@D@std@@V?$allocator@D@2@@std@@V?$shared_ptr@VRawImageData@@@2@@std@@PAX@0@0@Z 00408a70 f i DraggingDemo.obj
 0001:00007ac0       ??$_Construct_in_place@PAU?$_Tree_node@U?$pair@$$CBV?$basic_string@DU?$char_traits@D@std@@V?$allocator@D@2@@std@@V?$shared_ptr@VRawImageData@@@2@@std@@PAX@std@@ABQAU12@@std@@YAXAAPAU?$_Tree_node@U?$pair@$$CBV?$basic_string@DU?$char_traits@D@std@@V?$allocator@D@2@@std@@V?$shared_ptr@VRawImageData@@@2@@std@@PAX@0@ABQAU10@@Z 00408ac0 f i DraggingDemo.obj
 0001:00007b10       ??$_Construct_in_place@PAU?$_Tree_node@U?$pair@$$CBV?$basic_string@DU?$char_traits@D@std@@V?$allocator@D@2@@std@@V?$weak_ptr@VRawImageData@@@2@@std@@PAX@std@@AAPAU12@@std@@YAXAAPAU?$_Tree_node@U?$pair@$$CBV?$basic_string@DU?$char_traits@D@std@@V?$allocator@D@2@@std@@V?$weak_ptr@VRawImageData@@@2@@std@@PAX@0@0@Z 00408b10 f i DraggingDemo.obj
 0001:00007b60       ??$_Construct_in_place@PAU?$_Tree_node@U?$pair@$$CBV?$basic_string@DU?$char_traits@D@std@@V?$allocator@D@2@@std@@V?$weak_ptr@VRawImageData@@@2@@std@@PAX@std@@ABQAU12@@std@@YAXAAPAU?$_Tree_node@U?$pair@$$CBV?$basic_string@DU?$char_traits@D@std@@V?$allocator@D@2@@std@@V?$weak_ptr@VRawImageData@@@2@@std@@PAX@0@ABQAU10@@Z 00408b60 f i DraggingDemo.obj
 0001:00007bb0       ??$_Construct_in_place@U_Container_proxy@std@@PAU_Container_base12@2@@std@@YAXAAU_Container_proxy@0@$$QAPAU_Container_base12@0@@Z 00408bb0 f i DraggingDemo.obj
 0001:00007c10       ??$_Convert_size@II@std@@YAII@Z 00408c10 f i DraggingDemo.obj
 0001:00007c20       ??$_Copy_construct_from@VRawImageData@@@?$_Ptr_base@VRawImageData@@@std@@IAEXABV?$shared_ptr@VRawImageData@@@1@@Z 00408c20 f i DraggingDemo.obj
 0001:00007c60       ??$_Copy_memmove@PAPAVDisplayableObject@@PAPAV1@@std@@YAPAPAVDisplayableObject@@PAPAV1@00@Z 00408c60 f i DraggingDemo.obj
 0001:00007cd0       ?_Get_first@?$_Compressed_pair@V?$allocator@V?$basic_string@DU?$char_traits@D@std@@V?$allocator@D@2@@std@@@std@@V?$_Vector_val@U?$_Simple_types@V?$basic_string@DU?$char_traits@D@std@@V?$allocator@D@2@@std@@@std@@@2@$00@std@@QAEAAV?$allocator@V?$basic_string@DU?$char_traits@D@std@@V?$allocator@D@2@@std@@@2@XZ 00408cd0 f i MovingText.obj
 0001:00007cf0       ??$_Deallocate@$07$0A@@std@@YAXPAXI@Z 00408cf0 f i DraggingDemo.obj
 0001:00007d50       ?_Get_first@?$_Compressed_pair@V?$allocator@V?$basic_string@DU?$char_traits@D@std@@V?$allocator@D@2@@std@@@std@@V?$_Vector_val@U?$_Simple_types@V?$basic_string@DU?$char_traits@D@std@@V?$allocator@D@2@@std@@@std@@@2@$00@std@@QBEABV?$allocator@V?$basic_string@DU?$char_traits@D@std@@V?$allocator@D@2@@std@@@2@XZ 00408d50 f i MovingText.obj
 0001:00007d70       ??$_Deallocate_plain@V?$allocator@U_Container_proxy@std@@@std@@@std@@YAXAAV?$allocator@U_Container_proxy@std@@@0@QAU_Container_proxy@0@@Z 00408d70 f i DraggingDemo.obj
 0001:00007dd0       ??$_Debug_lt_pred@ABU?$less@V?$basic_string@DU?$char_traits@D@std@@V?$allocator@D@2@@std@@@std@@ABV?$basic_string@DU?$char_traits@D@std@@V?$allocator@D@2@@2@ABV32@$0A@@std@@YA_NABU?$less@V?$basic_string@DU?$char_traits@D@std@@V?$allocator@D@2@@std@@@0@ABV?$basic_string@DU?$char_traits@D@std@@V?$allocator@D@2@@0@1@Z 00408dd0 f i DraggingDemo.obj
 0001:00007e60       ?_Getal@?$vector@IV?$allocator@I@std@@@std@@AAEAAV?$allocator@I@2@XZ 00408e60 f i MovingText.obj
 0001:00007e80       ??$_Delete_plain_internal@V?$allocator@U_Container_proxy@std@@@std@@@std@@YAXAAV?$allocator@U_Container_proxy@std@@@0@QAU_Container_proxy@0@@Z 00408e80 f i DraggingDemo.obj
 0001:00007ea0       ??$_Destroy_in_place@PAD@std@@YAXAAPAD@Z 00408ea0 f i DraggingDemo.obj
 0001:00007eb0       ??$_Destroy_in_place@PAU?$_Tree_node@U?$pair@$$CBV?$basic_string@DU?$char_traits@D@std@@V?$allocator@D@2@@std@@V?$shared_ptr@VRawImageData@@@2@@std@@PAX@std@@@std@@YAXAAPAU?$_Tree_node@U?$pair@$$CBV?$basic_string@DU?$char_traits@D@std@@V?$allocator@D@2@@std@@V?$shared_ptr@VRawImageData@@@2@@std@@PAX@0@@Z 00408eb0 f i DraggingDemo.obj
 0001:00007ec0       ??$_Destroy_in_place@PAU?$_Tree_node@U?$pair@$$CBV?$basic_string@DU?$char_traits@D@std@@V?$allocator@D@2@@std@@V?$weak_ptr@VRawImageData@@@2@@std@@PAX@std@@@std@@YAXAAPAU?$_Tree_node@U?$pair@$$CBV?$basic_string@DU?$char_traits@D@std@@V?$allocator@D@2@@std@@V?$weak_ptr@VRawImageData@@@2@@std@@PAX@0@@Z 00408ec0 f i DraggingDemo.obj
 0001:00007ed0       ??$_Destroy_range@V?$allocator@PAVDisplayableObject@@@std@@@std@@YAXPAPAVDisplayableObject@@QAPAV1@AAV?$allocator@PAVDisplayableObject@@@0@@Z 00408ed0 f i DraggingDemo.obj
 0001:00007ee0       ??$_Emplace@U?$pair@V?$basic_string@DU?$char_traits@D@std@@V?$allocator@D@2@@std@@V?$shared_ptr@VRawImageData@@@2@@std@@@?$_Tree@V?$_Tmap_traits@V?$basic_string@DU?$char_traits@D@std@@V?$allocator@D@2@@std@@V?$shared_ptr@VRawImageData@@@2@U?$less@V?$basic_string@DU?$char_traits@D@std@@V?$allocator@D@2@@std@@@2@V?$allocator@U?$pair@$$CBV?$basic_string@DU?$char_traits@D@std@@V?$allocator@D@2@@std@@V?$shared_ptr@VRawImageData@@@2@@std@@@2@$0A@@std@@@std@@IAE?AU?$pair@PAU?$_Tree_node@U?$pair@$$CBV?$basic_string@DU?$char_traits@D@std@@V?$allocator@D@2@@std@@V?$shared_ptr@VRawImageData@@@2@@std@@PAX@std@@_N@1@$$QAU?$pair@V?$basic_string@DU?$char_traits@D@std@@V?$allocator@D@2@@std@@V?$shared_ptr@VRawImageData@@@2@@1@@Z 00408ee0 f i DraggingDemo.obj
 0001:00007fd0       ??0?$_Uninitialized_backout_al@V?$allocator@I@std@@@std@@QAE@PAIAAV?$allocator@I@1@@Z 00408fd0 f i MovingText.obj
 0001:00008010       ??$_Emplace@U?$pair@V?$basic_string@DU?$char_traits@D@std@@V?$allocator@D@2@@std@@V?$weak_ptr@VRawImageData@@@2@@std@@@?$_Tree@V?$_Tmap_traits@V?$basic_string@DU?$char_traits@D@std@@V?$allocator@D@2@@std@@V?$weak_ptr@VRawImageData@@@2@U?$less@V?$basic_string@DU?$char_traits@D@std@@V?$allocator@D@2@@std@@@2@V?$allocator@U?$pair@$$CBV?$basic_string@DU?$char_traits@D@std@@V?$allocator@D@2@@std@@V?$weak_ptr@VRawImageData@@@2@@std@@@2@$0A@@std@@@std@@IAE?AU?$pair@PAU?$_Tree_node@U?$pair@$$CBV?$basic_string@DU?$char_traits@D@std@@V?$allocator@D@2@@std@@V?$weak_ptr@VRawImageData@@@2@@std@@PAX@std@@_N@1@$$QAU?$pair@V?$basic_string@DU?$char_traits@D@std@@V?$allocator@D@2@@std@@V?$weak_ptr@VRawImageData@@@2@@1@@Z 00409010 f i DraggingDemo.obj
 0001:00008100       ??1?$_Tidy_guard@V?$vector@IV?$allocator@I@std@@@std@@@std@@QAE@XZ 00409100 f i MovingText.obj
 0001:00008120       ?setAnimationEndY@MovingText@@QAEXH@Z 00409120 f i MovingText.obj
 0001:00008140       ??$_Emplace_back@$$V@?$_Uninitialized_backout_al@V?$allocator@PAVDisplayableObject@@@std@@@std@@QAEXXZ 00409140 f i DraggingDemo.obj
 0001:00008190       ??$_Emplace_back@PAVDisplayableObject@@@?$_Uninitialized_backout_al@V?$allocator@PAVDisplayableObject@@@std@@@std@@QAEX$$QAPAVDisplayableObject@@@Z 00409190 f i DraggingDemo.obj
 0001:000081f0       ??$_Erase_head@V?$allocator@U?$_Tree_node@U?$pair@$$CBV?$basic_string@DU?$char_traits@D@std@@V?$allocator@D@2@@std@@V?$weak_ptr@VRawImageData@@@2@@std@@PAX@std@@@std@@@?$_Tree_val@U?$_Tree_simple_types@U?$pair@$$CBV?$basic_string@DU?$char_traits@D@std@@V?$allocator@D@2@@std@@V?$weak_ptr@VRawImageData@@@2@@std@@@std@@@std@@QAEXAAV?$allocator@U?$_Tree_node@U?$pair@$$CBV?$basic_string@DU?$char_traits@D@std@@V?$allocator@D@2@@std@@V?$weak_ptr@VRawImageData@@@2@@std@@PAX@std@@@1@@Z 004091f0 f i DraggingDemo.obj
 0001:00008240       ??$_Erase_tree@V?$allocator@U?$_Tree_node@U?$pair@$$CBV?$basic_string@DU?$char_traits@D@std@@V?$allocator@D@2@@std@@V?$weak_ptr@VRawImageData@@@2@@std@@PAX@std@@@std@@@?$_Tree_val@U?$_Tree_simple_types@U?$pair@$$CBV?$basic_string@DU?$char_traits@D@std@@V?$allocator@D@2@@std@@V?$weak_ptr@VRawImageData@@@2@@std@@@std@@@std@@QAEXAAV?$allocator@U?$_Tree_node@U?$pair@$$CBV?$basic_string@DU?$char_traits@D@std@@V?$allocator@D@2@@std@@V?$weak_ptr@VRawImageData@@@2@@std@@PAX@std@@@1@PAU?$_Tree_node@U?$pair@$$CBV?$basic_string@DU?$char_traits@D@std@@V?$allocator@D@2@@std@@V?$weak_ptr@VRawImageData@@@2@@std@@PAX@1@@Z 00409240 f i DraggingDemo.obj
 0001:000082a0       ??$_Find@V?$basic_string@DU?$char_traits@D@std@@V?$allocator@D@2@@std@@@?$_Tree@V?$_Tmap_traits@V?$basic_string@DU?$char_traits@D@std@@V?$allocator@D@2@@std@@V?$weak_ptr@VRawImageData@@@2@U?$less@V?$basic_string@DU?$char_traits@D@std@@V?$allocator@D@2@@std@@@2@V?$allocator@U?$pair@$$CBV?$basic_string@DU?$char_traits@D@std@@V?$allocator@D@2@@std@@V?$weak_ptr@VRawImageData@@@2@@std@@@2@$0A@@std@@@std@@ABEPAU?$_Tree_node@U?$pair@$$CBV?$basic_string@DU?$char_traits@D@std@@V?$allocator@D@2@@std@@V?$weak_ptr@VRawImageData@@@2@@std@@PAX@1@ABV?$basic_string@DU?$char_traits@D@std@@V?$allocator@D@2@@1@@Z 004092a0 f i DraggingDemo.obj
 0001:00008300       ??$_Find_lower_bound@V?$basic_string@DU?$char_traits@D@std@@V?$allocator@D@2@@std@@@?$_Tree@V?$_Tmap_traits@V?$basic_string@DU?$char_traits@D@std@@V?$allocator@D@2@@std@@V?$shared_ptr@VRawImageData@@@2@U?$less@V?$basic_string@DU?$char_traits@D@std@@V?$allocator@D@2@@std@@@2@V?$allocator@U?$pair@$$CBV?$basic_string@DU?$char_traits@D@std@@V?$allocator@D@2@@std@@V?$shared_ptr@VRawImageData@@@2@@std@@@2@$0A@@std@@@std@@IBE?AU?$_Tree_find_result@PAU?$_Tree_node@U?$pair@$$CBV?$basic_string@DU?$char_traits@D@std@@V?$allocator@D@2@@std@@V?$shared_ptr@VRawImageData@@@2@@std@@PAX@std@@@1@ABV?$basic_string@DU?$char_traits@D@std@@V?$allocator@D@2@@1@@Z 00409300 f i DraggingDemo.obj
 0001:000083c0       ?allocate@?$allocator@V?$basic_string@DU?$char_traits@D@std@@V?$allocator@D@2@@std@@@std@@QAEPAV?$basic_string@DU?$char_traits@D@std@@V?$allocator@D@2@@2@I@Z 004093c0 f i MovingText.obj
 0001:000083f0       ??$_Find_lower_bound@V?$basic_string@DU?$char_traits@D@std@@V?$allocator@D@2@@std@@@?$_Tree@V?$_Tmap_traits@V?$basic_string@DU?$char_traits@D@std@@V?$allocator@D@2@@std@@V?$weak_ptr@VRawImageData@@@2@U?$less@V?$basic_string@DU?$char_traits@D@std@@V?$allocator@D@2@@std@@@2@V?$allocator@U?$pair@$$CBV?$basic_string@DU?$char_traits@D@std@@V?$allocator@D@2@@std@@V?$weak_ptr@VRawImageData@@@2@@std@@@2@$0A@@std@@@std@@IBE?AU?$_Tree_find_result@PAU?$_Tree_node@U?$pair@$$CBV?$basic_string@DU?$char_traits@D@std@@V?$allocator@D@2@@std@@V?$weak_ptr@VRawImageData@@@2@@std@@PAX@std@@@1@ABV?$basic_string@DU?$char_traits@D@std@@V?$allocator@D@2@@1@@Z 004093f0 f i DraggingDemo.obj
 0001:000084b0       ?append@?$basic_string@DU?$char_traits@D@std@@V?$allocator@D@2@@std@@QAEAAV12@QBD@Z 004094b0 f i MovingText.obj
 0001:000084e0       ??$_Freenode0@V?$allocator@U?$_Tree_node@U?$pair@$$CBV?$basic_string@DU?$char_traits@D@std@@V?$allocator@D@2@@std@@V?$weak_ptr@VRawImageData@@@2@@std@@PAX@std@@@std@@@?$_Tree_node@U?$pair@$$CBV?$basic_string@DU?$char_traits@D@std@@V?$allocator@D@2@@std@@V?$weak_ptr@VRawImageData@@@2@@std@@PAX@std@@SAXAAV?$allocator@U?$_Tree_node@U?$pair@$$CBV?$basic_string@DU?$char_traits@D@std@@V?$allocator@D@2@@std@@V?$weak_ptr@VRawImageData@@@2@@std@@PAX@std@@@1@PAU01@@Z 004094e0 f i DraggingDemo.obj
 0001:00008570       ??$_Freenode@V?$allocator@U?$_Tree_node@U?$pair@$$CBV?$basic_string@DU?$char_traits@D@std@@V?$allocator@D@2@@std@@V?$weak_ptr@VRawImageData@@@2@@std@@PAX@std@@@std@@@?$_Tree_node@U?$pair@$$CBV?$basic_string@DU?$char_traits@D@std@@V?$allocator@D@2@@std@@V?$weak_ptr@VRawImageData@@@2@@std@@PAX@std@@SAXAAV?$allocator@U?$_Tree_node@U?$pair@$$CBV?$basic_string@DU?$char_traits@D@std@@V?$allocator@D@2@@std@@V?$weak_ptr@VRawImageData@@@2@@std@@PAX@std@@@1@PAU01@@Z 00409570 f i DraggingDemo.obj
 0001:000085f0       ??$_Get_size_of_n@$00@std@@YAII@Z 004095f0 f i DraggingDemo.obj
 0001:00008610       ??$_Get_size_of_n@$03@std@@YAII@Z 00409610 f i DraggingDemo.obj
 0001:00008650       ??$_Get_size_of_n@$07@std@@YAII@Z 00409650 f i DraggingDemo.obj
 0001:00008690       ??$_Get_size_of_n@$0DE@@std@@YAII@Z 00409690 f i DraggingDemo.obj
 0001:000086c0       ??$_Get_unwrapped@ABQAPAVDisplayableObject@@@std@@YA?A_TABQAPAVDisplayableObject@@@Z 004096c0 f i DraggingDemo.obj
 0001:000086d0       ??$_Insert_string@DU?$char_traits@D@std@@I@std@@YAAAV?$basic_ostream@DU?$char_traits@D@std@@@0@AAV10@QBDI@Z 004096d0 f i DraggingDemo.obj
 0001:000089a0       ??0?$allocator@V?$basic_string@DU?$char_traits@D@std@@V?$allocator@D@2@@std@@@std@@QAE@XZ 004099a0 f i MovingText.obj
 0001:000089b0       ??1?$vector@V?$basic_string@DU?$char_traits@D@std@@V?$allocator@D@2@@std@@V?$allocator@V?$basic_string@DU?$char_traits@D@std@@V?$allocator@D@2@@std@@@2@@std@@QAE@XZ 004099b0 f i MovingText.obj
 0001:00008a00       ??1?$_Uninitialized_backout_al@V?$allocator@I@std@@@std@@QAE@XZ 00409a00 f i MovingText.obj
 0001:00008a30       ?setAnimationStartX@MovingText@@QAEXH@Z 00409a30 f i MovingText.obj
 0001:00008a50       ??$_Kfn@$$CBV?$basic_string@DU?$char_traits@D@std@@V?$allocator@D@2@@std@@V?$shared_ptr@VRawImageData@@@2@@?$_Tmap_traits@V?$basic_string@DU?$char_traits@D@std@@V?$allocator@D@2@@std@@V?$shared_ptr@VRawImageData@@@2@U?$less@V?$basic_string@DU?$char_traits@D@std@@V?$allocator@D@2@@std@@@2@V?$allocator@U?$pair@$$CBV?$basic_string@DU?$char_traits@D@std@@V?$allocator@D@2@@std@@V?$shared_ptr@VRawImageData@@@2@@std@@@2@$0A@@std@@SAABV?$basic_string@DU?$char_traits@D@std@@V?$allocator@D@2@@1@ABU?$pair@$$CBV?$basic_string@DU?$char_traits@D@std@@V?$allocator@D@2@@std@@V?$shared_ptr@VRawImageData@@@2@@1@@Z 00409a50 f i DraggingDemo.obj
 0001:00008a60       ??$_Kfn@$$CBV?$basic_string@DU?$char_traits@D@std@@V?$allocator@D@2@@std@@V?$weak_ptr@VRawImageData@@@2@@?$_Tmap_traits@V?$basic_string@DU?$char_traits@D@std@@V?$allocator@D@2@@std@@V?$weak_ptr@VRawImageData@@@2@U?$less@V?$basic_string@DU?$char_traits@D@std@@V?$allocator@D@2@@std@@@2@V?$allocator@U?$pair@$$CBV?$basic_string@DU?$char_traits@D@std@@V?$allocator@D@2@@std@@V?$weak_ptr@VRawImageData@@@2@@std@@@2@$0A@@std@@SAABV?$basic_string@DU?$char_traits@D@std@@V?$allocator@D@2@@1@ABU?$pair@$$CBV?$basic_string@DU?$char_traits@D@std@@V?$allocator@D@2@@std@@V?$weak_ptr@VRawImageData@@@2@@1@@Z 00409a60 f i DraggingDemo.obj
 0001:00008a70       ??$_Lower_bound_duplicate@V?$basic_string@DU?$char_traits@D@std@@V?$allocator@D@2@@std@@@?$_Tree@V?$_Tmap_traits@V?$basic_string@DU?$char_traits@D@std@@V?$allocator@D@2@@std@@V?$shared_ptr@VRawImageData@@@2@U?$less@V?$basic_string@DU?$char_traits@D@std@@V?$allocator@D@2@@std@@@2@V?$allocator@U?$pair@$$CBV?$basic_string@DU?$char_traits@D@std@@V?$allocator@D@2@@std@@V?$shared_ptr@VRawImageData@@@2@@std@@@2@$0A@@std@@@std@@IBE_NQAU?$_Tree_node@U?$pair@$$CBV?$basic_string@DU?$char_traits@D@std@@V?$allocator@D@2@@std@@V?$shared_ptr@VRawImageData@@@2@@std@@PAX@1@ABV?$basic_string@DU?$char_traits@D@std@@V?$allocator@D@2@@1@@Z 00409a70 f i DraggingDemo.obj
 0001:00008ae0       ??$_Lower_bound_duplicate@V?$basic_string@DU?$char_traits@D@std@@V?$allocator@D@2@@std@@@?$_Tree@V?$_Tmap_traits@V?$basic_string@DU?$char_traits@D@std@@V?$allocator@D@2@@std@@V?$weak_ptr@VRawImageData@@@2@U?$less@V?$basic_string@DU?$char_traits@D@std@@V?$allocator@D@2@@std@@@2@V?$allocator@U?$pair@$$CBV?$basic_string@DU?$char_traits@D@std@@V?$allocator@D@2@@std@@V?$weak_ptr@VRawImageData@@@2@@std@@@2@$0A@@std@@@std@@IBE_NQAU?$_Tree_node@U?$pair@$$CBV?$basic_string@DU?$char_traits@D@std@@V?$allocator@D@2@@std@@V?$weak_ptr@VRawImageData@@@2@@std@@PAX@1@ABV?$basic_string@DU?$char_traits@D@std@@V?$allocator@D@2@@1@@Z 00409ae0 f i DraggingDemo.obj
 0001:00008b50       ??$_Move_construct_from@VRawImageData@@@?$_Ptr_base@VRawImageData@@@std@@IAEX$$QAV01@@Z 00409b50 f i DraggingDemo.obj
 0001:00008ba0       ??$_Resize@U_Value_init_tag@std@@@?$vector@PAVDisplayableObject@@V?$allocator@PAVDisplayableObject@@@std@@@std@@AAEXIABU_Value_init_tag@1@@Z 00409ba0 f i DraggingDemo.obj
 0001:00008ca0       ?setAnimationStartY@MovingText@@QAEXH@Z 00409ca0 f i MovingText.obj
 0001:00008cd0       ??$_Resize_reallocate@U_Value_init_tag@std@@@?$vector@PAVDisplayableObject@@V?$allocator@PAVDisplayableObject@@@std@@@std@@AAEXIABU_Value_init_tag@1@@Z 00409cd0 f i DraggingDemo.obj
 0001:00008e30       ??1?$_Uninitialized_backout_al@V?$allocator@V?$basic_string@DU?$char_traits@D@std@@V?$allocator@D@2@@std@@@std@@@std@@QAE@XZ 00409e30 f i MovingText.obj
 0001:00008e60       ?size@?$initializer_list@I@std@@QBEIXZ 00409e60 f i MovingText.obj
 0001:00008e80       ??$_Set_ptr_rep_and_enable_shared@VRawImageData@@@?$shared_ptr@VRawImageData@@@std@@AAEXQAVRawImageData@@QAV_Ref_count_base@1@@Z 00409e80 f i DraggingDemo.obj
 0001:00008eb0       ??$_To_address@PAPAVDisplayableObject@@@std@@YA?A_PABQAPAVDisplayableObject@@@Z 00409eb0 f i DraggingDemo.obj
 0001:00008ec0       ??$_Traits_compare@U?$char_traits@D@std@@@std@@YAHQBDI0I@Z 00409ec0 f i DraggingDemo.obj
 0001:00008f30       ??$_Unfancy@D@std@@YAPADPAD@Z 00409f30 f i DraggingDemo.obj
 0001:00008f40       ??$_Unfancy@PAVDisplayableObject@@@std@@YAPAPAVDisplayableObject@@PAPAV1@@Z 00409f40 f i DraggingDemo.obj
 0001:00008f50       ??$_Unfancy@U_Container_proxy@std@@@std@@YAPAU_Container_proxy@0@PAU10@@Z 00409f50 f i DraggingDemo.obj
 0001:00008f60       ??$_Uninitialized_move@PAPAVDisplayableObject@@V?$allocator@PAVDisplayableObject@@@std@@@std@@YAPAPAVDisplayableObject@@QAPAV1@0PAPAV1@AAV?$allocator@PAVDisplayableObject@@@0@@Z 00409f60 f i DraggingDemo.obj
 0001:00009040       ??4?$vector@V?$basic_string@DU?$char_traits@D@std@@V?$allocator@D@2@@std@@V?$allocator@V?$basic_string@DU?$char_traits@D@std@@V?$allocator@D@2@@std@@@2@@std@@QAEAAV01@V?$initializer_list@V?$basic_string@DU?$char_traits@D@std@@V?$allocator@D@2@@std@@@1@@Z 0040a040 f i MovingText.obj
 0001:00009080       ??$_Uninitialized_value_construct_n@V?$allocator@PAVDisplayableObject@@@std@@@std@@YAPAPAVDisplayableObject@@PAPAV1@IAAV?$allocator@PAVDisplayableObject@@@0@@Z 0040a080 f i DraggingDemo.obj
 0001:00009140       ?_Getal@?$vector@V?$basic_string@DU?$char_traits@D@std@@V?$allocator@D@2@@std@@V?$allocator@V?$basic_string@DU?$char_traits@D@std@@V?$allocator@D@2@@std@@@2@@std@@ABEABV?$allocator@V?$basic_string@DU?$char_traits@D@std@@V?$allocator@D@2@@std@@@2@XZ 0040a140 f i MovingText.obj
 0001:00009160       ??$_Voidify_iter@PAPAD@std@@YAPAXPAPAD@Z 0040a160 f i DraggingDemo.obj
 0001:00009170       ??$_Voidify_iter@PAPAU?$_Tree_node@U?$pair@$$CBV?$basic_string@DU?$char_traits@D@std@@V?$allocator@D@2@@std@@V?$shared_ptr@VRawImageData@@@2@@std@@PAX@std@@@std@@YAPAXPAPAU?$_Tree_node@U?$pair@$$CBV?$basic_string@DU?$char_traits@D@std@@V?$allocator@D@2@@std@@V?$shared_ptr@VRawImageData@@@2@@std@@PAX@0@@Z 0040a170 f i DraggingDemo.obj
 0001:00009180       ??$_Voidify_iter@PAPAU?$_Tree_node@U?$pair@$$CBV?$basic_string@DU?$char_traits@D@std@@V?$allocator@D@2@@std@@V?$weak_ptr@VRawImageData@@@2@@std@@PAX@std@@@std@@YAPAXPAPAU?$_Tree_node@U?$pair@$$CBV?$basic_string@DU?$char_traits@D@std@@V?$allocator@D@2@@std@@V?$weak_ptr@VRawImageData@@@2@@std@@PAX@0@@Z 0040a180 f i DraggingDemo.obj
 0001:00009190       ??$_Voidify_iter@PAPAVDisplayableObject@@@std@@YAPAXPAPAVDisplayableObject@@@Z 0040a190 f i DraggingDemo.obj
 0001:000091a0       ??$_Voidify_iter@PAU?$pair@$$CBV?$basic_string@DU?$char_traits@D@std@@V?$allocator@D@2@@std@@V?$shared_ptr@VRawImageData@@@2@@std@@@std@@YAPAXPAU?$pair@$$CBV?$basic_string@DU?$char_traits@D@std@@V?$allocator@D@2@@std@@V?$shared_ptr@VRawImageData@@@2@@0@@Z 0040a1a0 f i DraggingDemo.obj
 0001:000091b0       ??$_Voidify_iter@PAU?$pair@$$CBV?$basic_string@DU?$char_traits@D@std@@V?$allocator@D@2@@std@@V?$weak_ptr@VRawImageData@@@2@@std@@@std@@YAPAXPAU?$pair@$$CBV?$basic_string@DU?$char_traits@D@std@@V?$allocator@D@2@@std@@V?$weak_ptr@VRawImageData@@@2@@0@@Z 0040a1b0 f i DraggingDemo.obj
 0001:000091c0       ??$_Voidify_iter@PAU_Container_proxy@std@@@std@@YAPAXPAU_Container_proxy@0@@Z 0040a1c0 f i DraggingDemo.obj
 0001:000091d0       ??$_Weakly_construct_from@VRawImageData@@@?$_Ptr_base@VRawImageData@@@std@@IAEXABV01@@Z 0040a1d0 f i DraggingDemo.obj
 0001:00009220       ??$_Zero_range@PAPAVDisplayableObject@@@std@@YAPAPAVDisplayableObject@@QAPAV1@0@Z 0040a220 f i DraggingDemo.obj
 0001:00009270       ??$addressof@$$CBV?$_String_val@U?$_Simple_types@D@std@@@std@@@std@@YAPBV?$_String_val@U?$_Simple_types@D@std@@@0@ABV10@@Z 0040a270 f i DraggingDemo.obj
 0001:00009280       ??$addressof@$$CBV?$_Tree_val@U?$_Tree_simple_types@U?$pair@$$CBV?$basic_string@DU?$char_traits@D@std@@V?$allocator@D@2@@std@@V?$shared_ptr@VRawImageData@@@2@@std@@@std@@@std@@@std@@YAPBV?$_Tree_val@U?$_Tree_simple_types@U?$pair@$$CBV?$basic_string@DU?$char_traits@D@std@@V?$allocator@D@2@@std@@V?$shared_ptr@VRawImageData@@@2@@std@@@std@@@0@ABV10@@Z 0040a280 f i DraggingDemo.obj
 0001:00009290       ??$addressof@$$CBV?$_Tree_val@U?$_Tree_simple_types@U?$pair@$$CBV?$basic_string@DU?$char_traits@D@std@@V?$allocator@D@2@@std@@V?$weak_ptr@VRawImageData@@@2@@std@@@std@@@std@@@std@@YAPBV?$_Tree_val@U?$_Tree_simple_types@U?$pair@$$CBV?$basic_string@DU?$char_traits@D@std@@V?$allocator@D@2@@std@@V?$weak_ptr@VRawImageData@@@2@@std@@@std@@@0@ABV10@@Z 0040a290 f i DraggingDemo.obj
 0001:000092a0       ??$addressof@PAD@std@@YAPAPADAAPAD@Z 0040a2a0 f i DraggingDemo.obj
 0001:000092b0       ??$addressof@PAU?$_Tree_node@U?$pair@$$CBV?$basic_string@DU?$char_traits@D@std@@V?$allocator@D@2@@std@@V?$shared_ptr@VRawImageData@@@2@@std@@PAX@std@@@std@@YAPAPAU?$_Tree_node@U?$pair@$$CBV?$basic_string@DU?$char_traits@D@std@@V?$allocator@D@2@@std@@V?$shared_ptr@VRawImageData@@@2@@std@@PAX@0@AAPAU10@@Z 0040a2b0 f i DraggingDemo.obj
 0001:000092c0       ??$addressof@PAU?$_Tree_node@U?$pair@$$CBV?$basic_string@DU?$char_traits@D@std@@V?$allocator@D@2@@std@@V?$weak_ptr@VRawImageData@@@2@@std@@PAX@std@@@std@@YAPAPAU?$_Tree_node@U?$pair@$$CBV?$basic_string@DU?$char_traits@D@std@@V?$allocator@D@2@@std@@V?$weak_ptr@VRawImageData@@@2@@std@@PAX@0@AAPAU10@@Z 0040a2c0 f i DraggingDemo.obj
 0001:000092d0       ??$addressof@U?$pair@$$CBV?$basic_string@DU?$char_traits@D@std@@V?$allocator@D@2@@std@@V?$shared_ptr@VRawImageData@@@2@@std@@@std@@YAPAU?$pair@$$CBV?$basic_string@DU?$char_traits@D@std@@V?$allocator@D@2@@std@@V?$shared_ptr@VRawImageData@@@2@@0@AAU10@@Z 0040a2d0 f i DraggingDemo.obj
 0001:000092e0       ??$addressof@U?$pair@$$CBV?$basic_string@DU?$char_traits@D@std@@V?$allocator@D@2@@std@@V?$weak_ptr@VRawImageData@@@2@@std@@@std@@YAPAU?$pair@$$CBV?$basic_string@DU?$char_traits@D@std@@V?$allocator@D@2@@std@@V?$weak_ptr@VRawImageData@@@2@@0@AAU10@@Z 0040a2e0 f i DraggingDemo.obj
 0001:000092f0       ??$addressof@U_Container_base12@std@@@std@@YAPAU_Container_base12@0@AAU10@@Z 0040a2f0 f i DraggingDemo.obj
 0001:00009300       ??$addressof@U_Container_proxy@std@@@std@@YAPAU_Container_proxy@0@AAU10@@Z 0040a300 f i DraggingDemo.obj
 0001:00009310       ??$addressof@V?$_String_val@U?$_Simple_types@D@std@@@std@@@std@@YAPAV?$_String_val@U?$_Simple_types@D@std@@@0@AAV10@@Z 0040a310 f i DraggingDemo.obj
 0001:00009320       ??$addressof@V?$_Tree_val@U?$_Tree_simple_types@U?$pair@$$CBV?$basic_string@DU?$char_traits@D@std@@V?$allocator@D@2@@std@@V?$shared_ptr@VRawImageData@@@2@@std@@@std@@@std@@@std@@YAPAV?$_Tree_val@U?$_Tree_simple_types@U?$pair@$$CBV?$basic_string@DU?$char_traits@D@std@@V?$allocator@D@2@@std@@V?$shared_ptr@VRawImageData@@@2@@std@@@std@@@0@AAV10@@Z 0040a320 f i DraggingDemo.obj
 0001:00009330       ??$addressof@V?$_Tree_val@U?$_Tree_simple_types@U?$pair@$$CBV?$basic_string@DU?$char_traits@D@std@@V?$allocator@D@2@@std@@V?$weak_ptr@VRawImageData@@@2@@std@@@std@@@std@@@std@@YAPAV?$_Tree_val@U?$_Tree_simple_types@U?$pair@$$CBV?$basic_string@DU?$char_traits@D@std@@V?$allocator@D@2@@std@@V?$weak_ptr@VRawImageData@@@2@@std@@@std@@@0@AAV10@@Z 0040a330 f i DraggingDemo.obj
 0001:00009340       ??$construct@PAVDisplayableObject@@$$V@?$_Default_allocator_traits@V?$allocator@PAVDisplayableObject@@@std@@@std@@SAXAAV?$allocator@PAVDisplayableObject@@@1@QAPAVDisplayableObject@@@Z 0040a340 f i DraggingDemo.obj
 0001:00009390       ??$construct@PAVDisplayableObject@@PAV1@@?$_Default_allocator_traits@V?$allocator@PAVDisplayableObject@@@std@@@std@@SAXAAV?$allocator@PAVDisplayableObject@@@1@QAPAVDisplayableObject@@$$QAPAV3@@Z 0040a390 f i DraggingDemo.obj
 0001:000093e0       ??$construct@U?$pair@$$CBV?$basic_string@DU?$char_traits@D@std@@V?$allocator@D@2@@std@@V?$shared_ptr@VRawImageData@@@2@@std@@U?$pair@V?$basic_string@DU?$char_traits@D@std@@V?$allocator@D@2@@std@@V?$shared_ptr@VRawImageData@@@2@@2@@?$_Default_allocator_traits@V?$allocator@U?$_Tree_node@U?$pair@$$CBV?$basic_string@DU?$char_traits@D@std@@V?$allocator@D@2@@std@@V?$shared_ptr@VRawImageData@@@2@@std@@PAX@std@@@std@@@std@@SAXAAV?$allocator@U?$_Tree_node@U?$pair@$$CBV?$basic_string@DU?$char_traits@D@std@@V?$allocator@D@2@@std@@V?$shared_ptr@VRawImageData@@@2@@std@@PAX@std@@@1@QAU?$pair@$$CBV?$basic_string@DU?$char_traits@D@std@@V?$allocator@D@2@@std@@V?$shared_ptr@VRawImageData@@@2@@1@$$QAU?$pair@V?$basic_string@DU?$char_traits@D@std@@V?$allocator@D@2@@std@@V?$shared_ptr@VRawImageData@@@2@@1@@Z 0040a3e0 f i DraggingDemo.obj
 0001:00009430       ??$construct@U?$pair@$$CBV?$basic_string@DU?$char_traits@D@std@@V?$allocator@D@2@@std@@V?$weak_ptr@VRawImageData@@@2@@std@@U?$pair@V?$basic_string@DU?$char_traits@D@std@@V?$allocator@D@2@@std@@V?$weak_ptr@VRawImageData@@@2@@2@@?$_Default_allocator_traits@V?$allocator@U?$_Tree_node@U?$pair@$$CBV?$basic_string@DU?$char_traits@D@std@@V?$allocator@D@2@@std@@V?$weak_ptr@VRawImageData@@@2@@std@@PAX@std@@@std@@@std@@SAXAAV?$allocator@U?$_Tree_node@U?$pair@$$CBV?$basic_string@DU?$char_traits@D@std@@V?$allocator@D@2@@std@@V?$weak_ptr@VRawImageData@@@2@@std@@PAX@std@@@1@QAU?$pair@$$CBV?$basic_string@DU?$char_traits@D@std@@V?$allocator@D@2@@std@@V?$weak_ptr@VRawImageData@@@2@@1@$$QAU?$pair@V?$basic_string@DU?$char_traits@D@std@@V?$allocator@D@2@@std@@V?$weak_ptr@VRawImageData@@@2@@1@@Z 0040a430 f i DraggingDemo.obj
 0001:00009480       ??$destroy@U?$pair@$$CBV?$basic_string@DU?$char_traits@D@std@@V?$allocator@D@2@@std@@V?$shared_ptr@VRawImageData@@@2@@std@@@?$_Default_allocator_traits@V?$allocator@U?$_Tree_node@U?$pair@$$CBV?$basic_string@DU?$char_traits@D@std@@V?$allocator@D@2@@std@@V?$shared_ptr@VRawImageData@@@2@@std@@PAX@std@@@std@@@std@@SAXAAV?$allocator@U?$_Tree_node@U?$pair@$$CBV?$basic_string@DU?$char_traits@D@std@@V?$allocator@D@2@@std@@V?$shared_ptr@VRawImageData@@@2@@std@@PAX@std@@@1@QAU?$pair@$$CBV?$basic_string@DU?$char_traits@D@std@@V?$allocator@D@2@@std@@V?$shared_ptr@VRawImageData@@@2@@1@@Z 0040a480 f i DraggingDemo.obj
 0001:000094a0       ??$destroy@U?$pair@$$CBV?$basic_string@DU?$char_traits@D@std@@V?$allocator@D@2@@std@@V?$weak_ptr@VRawImageData@@@2@@std@@@?$_Default_allocator_traits@V?$allocator@U?$_Tree_node@U?$pair@$$CBV?$basic_string@DU?$char_traits@D@std@@V?$allocator@D@2@@std@@V?$weak_ptr@VRawImageData@@@2@@std@@PAX@std@@@std@@@std@@SAXAAV?$allocator@U?$_Tree_node@U?$pair@$$CBV?$basic_string@DU?$char_traits@D@std@@V?$allocator@D@2@@std@@V?$weak_ptr@VRawImageData@@@2@@std@@PAX@std@@@1@QAU?$pair@$$CBV?$basic_string@DU?$char_traits@D@std@@V?$allocator@D@2@@std@@V?$weak_ptr@VRawImageData@@@2@@1@@Z 0040a4a0 f i DraggingDemo.obj
 0001:000094c0       ??$emplace@U?$pair@V?$basic_string@DU?$char_traits@D@std@@V?$allocator@D@2@@std@@V?$shared_ptr@VRawImageData@@@2@@std@@@?$_Tree@V?$_Tmap_traits@V?$basic_string@DU?$char_traits@D@std@@V?$allocator@D@2@@std@@V?$shared_ptr@VRawImageData@@@2@U?$less@V?$basic_string@DU?$char_traits@D@std@@V?$allocator@D@2@@std@@@2@V?$allocator@U?$pair@$$CBV?$basic_string@DU?$char_traits@D@std@@V?$allocator@D@2@@std@@V?$shared_ptr@VRawImageData@@@2@@std@@@2@$0A@@std@@@std@@QAE?AU?$pair@V?$_Tree_iterator@V?$_Tree_val@U?$_Tree_simple_types@U?$pair@$$CBV?$basic_string@DU?$char_traits@D@std@@V?$allocator@D@2@@std@@V?$shared_ptr@VRawImageData@@@2@@std@@@std@@@std@@@std@@_N@1@$$QAU?$pair@V?$basic_string@DU?$char_traits@D@std@@V?$allocator@D@2@@std@@V?$shared_ptr@VRawImageData@@@2@@1@@Z 0040a4c0 f i DraggingDemo.obj
 0001:00009530       ?_Release@?$_Uninitialized_backout_al@V?$allocator@I@std@@@std@@QAEPAIXZ 0040a530 f i MovingText.obj
 0001:00009550       ??$emplace@U?$pair@V?$basic_string@DU?$char_traits@D@std@@V?$allocator@D@2@@std@@V?$weak_ptr@VRawImageData@@@2@@std@@@?$_Tree@V?$_Tmap_traits@V?$basic_string@DU?$char_traits@D@std@@V?$allocator@D@2@@std@@V?$weak_ptr@VRawImageData@@@2@U?$less@V?$basic_string@DU?$char_traits@D@std@@V?$allocator@D@2@@std@@@2@V?$allocator@U?$pair@$$CBV?$basic_string@DU?$char_traits@D@std@@V?$allocator@D@2@@std@@V?$weak_ptr@VRawImageData@@@2@@std@@@2@$0A@@std@@@std@@QAE?AU?$pair@V?$_Tree_iterator@V?$_Tree_val@U?$_Tree_simple_types@U?$pair@$$CBV?$basic_string@DU?$char_traits@D@std@@V?$allocator@D@2@@std@@V?$weak_ptr@VRawImageData@@@2@@std@@@std@@@std@@@std@@_N@1@$$QAU?$pair@V?$basic_string@DU?$char_traits@D@std@@V?$allocator@D@2@@std@@V?$weak_ptr@VRawImageData@@@2@@1@@Z 0040a550 f i DraggingDemo.obj
 0001:000095c0       ?size@?$initializer_list@V?$basic_string@DU?$char_traits@D@std@@V?$allocator@D@2@@std@@@std@@QBEIXZ 0040a5c0 f i MovingText.obj
 0001:000095e0       ??$endl@DU?$char_traits@D@std@@@std@@YAAAV?$basic_ostream@DU?$char_traits@D@std@@@0@AAV10@@Z 0040a5e0 f i DraggingDemo.obj
 0001:00009620       ??$erase@V?$_Tree_iterator@V?$_Tree_val@U?$_Tree_simple_types@U?$pair@$$CBV?$basic_string@DU?$char_traits@D@std@@V?$allocator@D@2@@std@@V?$weak_ptr@VRawImageData@@@2@@std@@@std@@@std@@@std@@$0A@@?$_Tree@V?$_Tmap_traits@V?$basic_string@DU?$char_traits@D@std@@V?$allocator@D@2@@std@@V?$weak_ptr@VRawImageData@@@2@U?$less@V?$basic_string@DU?$char_traits@D@std@@V?$allocator@D@2@@std@@@2@V?$allocator@U?$pair@$$CBV?$basic_string@DU?$char_traits@D@std@@V?$allocator@D@2@@std@@V?$weak_ptr@VRawImageData@@@2@@std@@@2@$0A@@std@@@std@@QAE?AV?$_Tree_iterator@V?$_Tree_val@U?$_Tree_simple_types@U?$pair@$$CBV?$basic_string@DU?$char_traits@D@std@@V?$allocator@D@2@@std@@V?$weak_ptr@VRawImageData@@@2@@std@@@std@@@std@@@1@V21@@Z 0040a620 f i DraggingDemo.obj
 0001:00009730       ?insert@?$basic_string@DU?$char_traits@D@std@@V?$allocator@D@2@@std@@QAEAAV12@IQBD@Z 0040a730 f i MovingText.obj
 0001:00009770       ??$exchange@PAU?$_Tree_node@U?$pair@$$CBV?$basic_string@DU?$char_traits@D@std@@V?$allocator@D@2@@std@@V?$shared_ptr@VRawImageData@@@2@@std@@PAX@std@@$$T@std@@YAPAU?$_Tree_node@U?$pair@$$CBV?$basic_string@DU?$char_traits@D@std@@V?$allocator@D@2@@std@@V?$shared_ptr@VRawImageData@@@2@@std@@PAX@0@AAPAU10@$$QA$$T@Z 0040a770 f i DraggingDemo.obj
 0001:000097a0       ??$exchange@PAU?$_Tree_node@U?$pair@$$CBV?$basic_string@DU?$char_traits@D@std@@V?$allocator@D@2@@std@@V?$weak_ptr@VRawImageData@@@2@@std@@PAX@std@@$$T@std@@YAPAU?$_Tree_node@U?$pair@$$CBV?$basic_string@DU?$char_traits@D@std@@V?$allocator@D@2@@std@@V?$weak_ptr@VRawImageData@@@2@@std@@PAX@0@AAPAU10@$$QA$$T@Z 0040a7a0 f i DraggingDemo.obj
 0001:000097d0       ??$exchange@PAU?$_Tree_node@U?$pair@$$CBV?$basic_string@DU?$char_traits@D@std@@V?$allocator@D@2@@std@@V?$weak_ptr@VRawImageData@@@2@@std@@PAX@std@@AAPAU12@@std@@YAPAU?$_Tree_node@U?$pair@$$CBV?$basic_string@DU?$char_traits@D@std@@V?$allocator@D@2@@std@@V?$weak_ptr@VRawImageData@@@2@@std@@PAX@0@AAPAU10@0@Z 0040a7d0 f i DraggingDemo.obj
 0001:00009800       ??$exchange@PAU_Iterator_base12@std@@$$T@std@@YAPAU_Iterator_base12@0@AAPAU10@$$QA$$T@Z 0040a800 f i DraggingDemo.obj
 0001:00009830       ??$forward@AAPAD@std@@YAAAPADAAPAD@Z 0040a830 f i DraggingDemo.obj
 0001:00009840       ??$forward@AAPAU?$_Tree_node@U?$pair@$$CBV?$basic_string@DU?$char_traits@D@std@@V?$allocator@D@2@@std@@V?$shared_ptr@VRawImageData@@@2@@std@@PAX@std@@@std@@YAAAPAU?$_Tree_node@U?$pair@$$CBV?$basic_string@DU?$char_traits@D@std@@V?$allocator@D@2@@std@@V?$shared_ptr@VRawImageData@@@2@@std@@PAX@0@AAPAU10@@Z 0040a840 f i DraggingDemo.obj
 0001:00009850       ??$forward@AAPAU?$_Tree_node@U?$pair@$$CBV?$basic_string@DU?$char_traits@D@std@@V?$allocator@D@2@@std@@V?$weak_ptr@VRawImageData@@@2@@std@@PAX@std@@@std@@YAAAPAU?$_Tree_node@U?$pair@$$CBV?$basic_string@DU?$char_traits@D@std@@V?$allocator@D@2@@std@@V?$weak_ptr@VRawImageData@@@2@@std@@PAX@0@AAPAU10@@Z 0040a850 f i DraggingDemo.obj
 0001:00009860       ??$forward@AAV?$basic_string@DU?$char_traits@D@std@@V?$allocator@D@2@@std@@@std@@YAAAV?$basic_string@DU?$char_traits@D@std@@V?$allocator@D@2@@0@AAV10@@Z 0040a860 f i DraggingDemo.obj
 0001:00009870       ??$forward@AAV?$shared_ptr@VRawImageData@@@std@@@std@@YAAAV?$shared_ptr@VRawImageData@@@0@AAV10@@Z 0040a870 f i DraggingDemo.obj
 0001:00009880       ??$forward@AAV?$weak_ptr@VRawImageData@@@std@@@std@@YAAAV?$weak_ptr@VRawImageData@@@0@AAV10@@Z 0040a880 f i DraggingDemo.obj
 0001:00009890       ??$forward@ABQAD@std@@YAABQADABQAD@Z 0040a890 f i DraggingDemo.obj
 0001:000098a0       ??$forward@ABQAU?$_Tree_node@U?$pair@$$CBV?$basic_string@DU?$char_traits@D@std@@V?$allocator@D@2@@std@@V?$shared_ptr@VRawImageData@@@2@@std@@PAX@std@@@std@@YAABQAU?$_Tree_node@U?$pair@$$CBV?$basic_string@DU?$char_traits@D@std@@V?$allocator@D@2@@std@@V?$shared_ptr@VRawImageData@@@2@@std@@PAX@0@ABQAU10@@Z 0040a8a0 f i DraggingDemo.obj
 0001:000098b0       ??$forward@ABQAU?$_Tree_node@U?$pair@$$CBV?$basic_string@DU?$char_traits@D@std@@V?$allocator@D@2@@std@@V?$weak_ptr@VRawImageData@@@2@@std@@PAX@std@@@std@@YAABQAU?$_Tree_node@U?$pair@$$CBV?$basic_string@DU?$char_traits@D@std@@V?$allocator@D@2@@std@@V?$weak_ptr@VRawImageData@@@2@@std@@PAX@0@ABQAU10@@Z 0040a8b0 f i DraggingDemo.obj
 0001:000098c0       ??$forward@ABU?$less@V?$basic_string@DU?$char_traits@D@std@@V?$allocator@D@2@@std@@@std@@@std@@YAABU?$less@V?$basic_string@DU?$char_traits@D@std@@V?$allocator@D@2@@std@@@0@ABU10@@Z 0040a8c0 f i DraggingDemo.obj
 0001:000098d0       ??$forward@AB_N@std@@YAAB_NAB_N@Z 0040a8d0 f i DraggingDemo.obj
 0001:000098e0       ??$forward@PAU?$_Tree_node@U?$pair@$$CBV?$basic_string@DU?$char_traits@D@std@@V?$allocator@D@2@@std@@V?$shared_ptr@VRawImageData@@@2@@std@@PAX@std@@@std@@YA$$QAPAU?$_Tree_node@U?$pair@$$CBV?$basic_string@DU?$char_traits@D@std@@V?$allocator@D@2@@std@@V?$shared_ptr@VRawImageData@@@2@@std@@PAX@0@AAPAU10@@Z 0040a8e0 f i DraggingDemo.obj
 0001:000098f0       ??$forward@PAU?$_Tree_node@U?$pair@$$CBV?$basic_string@DU?$char_traits@D@std@@V?$allocator@D@2@@std@@V?$weak_ptr@VRawImageData@@@2@@std@@PAX@std@@@std@@YA$$QAPAU?$_Tree_node@U?$pair@$$CBV?$basic_string@DU?$char_traits@D@std@@V?$allocator@D@2@@std@@V?$weak_ptr@VRawImageData@@@2@@std@@PAX@0@AAPAU10@@Z 0040a8f0 f i DraggingDemo.obj
 0001:00009900       ??$forward@PAU_Container_base12@std@@@std@@YA$$QAPAU_Container_base12@0@AAPAU10@@Z 0040a900 f i DraggingDemo.obj
 0001:00009910       ??$forward@PAVDisplayableObject@@@std@@YA$$QAPAVDisplayableObject@@AAPAV1@@Z 0040a910 f i DraggingDemo.obj
 0001:00009920       ??$forward@U?$pair@V?$basic_string@DU?$char_traits@D@std@@V?$allocator@D@2@@std@@V?$shared_ptr@VRawImageData@@@2@@std@@@std@@YA$$QAU?$pair@V?$basic_string@DU?$char_traits@D@std@@V?$allocator@D@2@@std@@V?$shared_ptr@VRawImageData@@@2@@0@AAU10@@Z 0040a920 f i DraggingDemo.obj
 0001:00009930       ??$forward@U?$pair@V?$basic_string@DU?$char_traits@D@std@@V?$allocator@D@2@@std@@V?$weak_ptr@VRawImageData@@@2@@std@@@std@@YA$$QAU?$pair@V?$basic_string@DU?$char_traits@D@std@@V?$allocator@D@2@@std@@V?$weak_ptr@VRawImageData@@@2@@0@AAU10@@Z 0040a930 f i DraggingDemo.obj
 0001:00009940       ??$forward@U_Zero_then_variadic_args_t@std@@@std@@YA$$QAU_Zero_then_variadic_args_t@0@AAU10@@Z 0040a940 f i DraggingDemo.obj
 0001:00009950       ??$forward@V?$_Tree_iterator@V?$_Tree_val@U?$_Tree_simple_types@U?$pair@$$CBV?$basic_string@DU?$char_traits@D@std@@V?$allocator@D@2@@std@@V?$shared_ptr@VRawImageData@@@2@@std@@@std@@@std@@@std@@@std@@YA$$QAV?$_Tree_iterator@V?$_Tree_val@U?$_Tree_simple_types@U?$pair@$$CBV?$basic_string@DU?$char_traits@D@std@@V?$allocator@D@2@@std@@V?$shared_ptr@VRawImageData@@@2@@std@@@std@@@std@@@0@AAV10@@Z 0040a950 f i DraggingDemo.obj
 0001:00009960       ??$forward@V?$_Tree_iterator@V?$_Tree_val@U?$_Tree_simple_types@U?$pair@$$CBV?$basic_string@DU?$char_traits@D@std@@V?$allocator@D@2@@std@@V?$weak_ptr@VRawImageData@@@2@@std@@@std@@@std@@@std@@@std@@YA$$QAV?$_Tree_iterator@V?$_Tree_val@U?$_Tree_simple_types@U?$pair@$$CBV?$basic_string@DU?$char_traits@D@std@@V?$allocator@D@2@@std@@V?$weak_ptr@VRawImageData@@@2@@std@@@std@@@std@@@0@AAV10@@Z 0040a960 f i DraggingDemo.obj
 0001:00009970       ??$forward@V?$allocator@D@std@@@std@@YA$$QAV?$allocator@D@0@AAV10@@Z 0040a970 f i DraggingDemo.obj
 0001:00009980       ??$forward@V?$basic_string@DU?$char_traits@D@std@@V?$allocator@D@2@@std@@@std@@YA$$QAV?$basic_string@DU?$char_traits@D@std@@V?$allocator@D@2@@0@AAV10@@Z 0040a980 f i DraggingDemo.obj
 0001:00009990       ??$forward@V?$shared_ptr@VRawImageData@@@std@@@std@@YA$$QAV?$shared_ptr@VRawImageData@@@0@AAV10@@Z 0040a990 f i DraggingDemo.obj
 0001:000099a0       ??$forward@V?$weak_ptr@VRawImageData@@@std@@@std@@YA$$QAV?$weak_ptr@VRawImageData@@@0@AAV10@@Z 0040a9a0 f i DraggingDemo.obj
 0001:000099b0       ??$forward@_N@std@@YA$$QA_NAA_N@Z 0040a9b0 f i DraggingDemo.obj
 0001:000099c0       ??$insert@U?$pair@V?$basic_string@DU?$char_traits@D@std@@V?$allocator@D@2@@std@@V?$shared_ptr@VRawImageData@@@2@@std@@$0A@@?$map@V?$basic_string@DU?$char_traits@D@std@@V?$allocator@D@2@@std@@V?$shared_ptr@VRawImageData@@@2@U?$less@V?$basic_string@DU?$char_traits@D@std@@V?$allocator@D@2@@std@@@2@V?$allocator@U?$pair@$$CBV?$basic_string@DU?$char_traits@D@std@@V?$allocator@D@2@@std@@V?$shared_ptr@VRawImageData@@@2@@std@@@2@@std@@QAE?AU?$pair@V?$_Tree_iterator@V?$_Tree_val@U?$_Tree_simple_types@U?$pair@$$CBV?$basic_string@DU?$char_traits@D@std@@V?$allocator@D@2@@std@@V?$shared_ptr@VRawImageData@@@2@@std@@@std@@@std@@@std@@_N@1@$$QAU?$pair@V?$basic_string@DU?$char_traits@D@std@@V?$allocator@D@2@@std@@V?$shared_ptr@VRawImageData@@@2@@1@@Z 0040a9c0 f i DraggingDemo.obj
 0001:00009a10       ??$insert@U?$pair@V?$basic_string@DU?$char_traits@D@std@@V?$allocator@D@2@@std@@V?$weak_ptr@VRawImageData@@@2@@std@@$0A@@?$map@V?$basic_string@DU?$char_traits@D@std@@V?$allocator@D@2@@std@@V?$weak_ptr@VRawImageData@@@2@U?$less@V?$basic_string@DU?$char_traits@D@std@@V?$allocator@D@2@@std@@@2@V?$allocator@U?$pair@$$CBV?$basic_string@DU?$char_traits@D@std@@V?$allocator@D@2@@std@@V?$weak_ptr@VRawImageData@@@2@@std@@@2@@std@@QAE?AU?$pair@V?$_Tree_iterator@V?$_Tree_val@U?$_Tree_simple_types@U?$pair@$$CBV?$basic_string@DU?$char_traits@D@std@@V?$allocator@D@2@@std@@V?$weak_ptr@VRawImageData@@@2@@std@@@std@@@std@@@std@@_N@1@$$QAU?$pair@V?$basic_string@DU?$char_traits@D@std@@V?$allocator@D@2@@std@@V?$weak_ptr@VRawImageData@@@2@@1@@Z 0040aa10 f i DraggingDemo.obj
 0001:00009a60       ??$max@I@std@@YAABIABI0@Z  0040aa60 f i DraggingDemo.obj
 0001:00009aa0       ??$min@I@std@@YAABIABI0@Z  0040aaa0 f i DraggingDemo.obj
 0001:00009ae0       ??$move@AAD@std@@YA$$QADAAD@Z 0040aae0 f i DraggingDemo.obj
 0001:00009af0       ??$move@AAPAVDisplayableObject@@@std@@YA$$QAPAVDisplayableObject@@AAPAV1@@Z 0040aaf0 f i DraggingDemo.obj
 0001:00009b00       ??$move@AAV?$allocator@D@std@@@std@@YA$$QAV?$allocator@D@0@AAV10@@Z 0040ab00 f i DraggingDemo.obj
 0001:00009b10       ??$move@AAV?$shared_ptr@VRawImageData@@@std@@@std@@YA$$QAV?$shared_ptr@VRawImageData@@@0@AAV10@@Z 0040ab10 f i DraggingDemo.obj
 0001:00009b20       ??$move@AAV?$weak_ptr@VRawImageData@@@std@@@std@@YA$$QAV?$weak_ptr@VRawImageData@@@0@AAV10@@Z 0040ab20 f i DraggingDemo.obj
 0001:00009b30       ??$swap@D$0A@@std@@YAXAAD0@Z 0040ab30 f i DraggingDemo.obj
 0001:00009b80       ??0?$_Alloc_construct_ptr@V?$allocator@U?$_Tree_node@U?$pair@$$CBV?$basic_string@DU?$char_traits@D@std@@V?$allocator@D@2@@std@@V?$shared_ptr@VRawImageData@@@2@@std@@PAX@std@@@std@@@std@@QAE@AAV?$allocator@U?$_Tree_node@U?$pair@$$CBV?$basic_string@DU?$char_traits@D@std@@V?$allocator@D@2@@std@@V?$shared_ptr@VRawImageData@@@2@@std@@PAX@std@@@1@@Z 0040ab80 f i DraggingDemo.obj
 0001:00009bb0       ??0?$_Alloc_construct_ptr@V?$allocator@U?$_Tree_node@U?$pair@$$CBV?$basic_string@DU?$char_traits@D@std@@V?$allocator@D@2@@std@@V?$weak_ptr@VRawImageData@@@2@@std@@PAX@std@@@std@@@std@@QAE@AAV?$allocator@U?$_Tree_node@U?$pair@$$CBV?$basic_string@DU?$char_traits@D@std@@V?$allocator@D@2@@std@@V?$weak_ptr@VRawImageData@@@2@@std@@PAX@std@@@1@@Z 0040abb0 f i DraggingDemo.obj
 0001:00009be0       ??0?$_Container_proxy_ptr12@V?$allocator@U_Container_proxy@std@@@std@@@std@@QAE@AAV?$allocator@U_Container_proxy@std@@@1@AAU_Container_base12@1@@Z 0040abe0 f i DraggingDemo.obj
 0001:00009c60       ??0?$_Ptr_base@VRawImageData@@@std@@IAE@XZ 0040ac60 f i DraggingDemo.obj
 0001:00009c90       ??0?$_Ref_count@VRawImageData@@@std@@QAE@PAVRawImageData@@@Z 0040ac90 f i DraggingDemo.obj
 0001:00009ce0       ??0?$_String_val@U?$_Simple_types@D@std@@@std@@QAE@XZ 0040ace0 f i DraggingDemo.obj
 0001:00009d30       ??0?$_Temporary_owner@VRawImageData@@@std@@QAE@QAVRawImageData@@@Z 0040ad30 f i DraggingDemo.obj
 0001:00009d50       ??0?$_Tree@V?$_Tmap_traits@V?$basic_string@DU?$char_traits@D@std@@V?$allocator@D@2@@std@@V?$shared_ptr@VRawImageData@@@2@U?$less@V?$basic_string@DU?$char_traits@D@std@@V?$allocator@D@2@@std@@@2@V?$allocator@U?$pair@$$CBV?$basic_string@DU?$char_traits@D@std@@V?$allocator@D@2@@std@@V?$shared_ptr@VRawImageData@@@2@@std@@@2@$0A@@std@@@std@@QAE@ABU?$less@V?$basic_string@DU?$char_traits@D@std@@V?$allocator@D@2@@std@@@1@@Z 0040ad50 f i DraggingDemo.obj
 0001:00009d90       ??0?$_Tree@V?$_Tmap_traits@V?$basic_string@DU?$char_traits@D@std@@V?$allocator@D@2@@std@@V?$weak_ptr@VRawImageData@@@2@U?$less@V?$basic_string@DU?$char_traits@D@std@@V?$allocator@D@2@@std@@@2@V?$allocator@U?$pair@$$CBV?$basic_string@DU?$char_traits@D@std@@V?$allocator@D@2@@std@@V?$weak_ptr@VRawImageData@@@2@@std@@@2@$0A@@std@@@std@@QAE@ABU?$less@V?$basic_string@DU?$char_traits@D@std@@V?$allocator@D@2@@std@@@1@@Z 0040ad90 f i DraggingDemo.obj
 0001:00009dd0       ??0?$_Tree_const_iterator@V?$_Tree_val@U?$_Tree_simple_types@U?$pair@$$CBV?$basic_string@DU?$char_traits@D@std@@V?$allocator@D@2@@std@@V?$shared_ptr@VRawImageData@@@2@@std@@@std@@@std@@@std@@QAE@$$QAV01@@Z 0040add0 f i DraggingDemo.obj
 0001:00009e00       ??0?$_Tree_const_iterator@V?$_Tree_val@U?$_Tree_simple_types@U?$pair@$$CBV?$basic_string@DU?$char_traits@D@std@@V?$allocator@D@2@@std@@V?$shared_ptr@VRawImageData@@@2@@std@@@std@@@std@@@std@@QAE@PAU?$_Tree_node@U?$pair@$$CBV?$basic_string@DU?$char_traits@D@std@@V?$allocator@D@2@@std@@V?$shared_ptr@VRawImageData@@@2@@std@@PAX@1@PBV?$_Tree_val@U?$_Tree_simple_types@U?$pair@$$CBV?$basic_string@DU?$char_traits@D@std@@V?$allocator@D@2@@std@@V?$shared_ptr@VRawImageData@@@2@@std@@@std@@@1@@Z 0040ae00 f i DraggingDemo.obj
 0001:00009e30       ??0?$_Tree_const_iterator@V?$_Tree_val@U?$_Tree_simple_types@U?$pair@$$CBV?$basic_string@DU?$char_traits@D@std@@V?$allocator@D@2@@std@@V?$weak_ptr@VRawImageData@@@2@@std@@@std@@@std@@@std@@QAE@$$QAV01@@Z 0040ae30 f i DraggingDemo.obj
 0001:00009e60       ??0?$_Tree_const_iterator@V?$_Tree_val@U?$_Tree_simple_types@U?$pair@$$CBV?$basic_string@DU?$char_traits@D@std@@V?$allocator@D@2@@std@@V?$weak_ptr@VRawImageData@@@2@@std@@@std@@@std@@@std@@QAE@ABV01@@Z 0040ae60 f i DraggingDemo.obj
 0001:00009e90       ??0?$_Tree_const_iterator@V?$_Tree_val@U?$_Tree_simple_types@U?$pair@$$CBV?$basic_string@DU?$char_traits@D@std@@V?$allocator@D@2@@std@@V?$weak_ptr@VRawImageData@@@2@@std@@@std@@@std@@@std@@QAE@PAU?$_Tree_node@U?$pair@$$CBV?$basic_string@DU?$char_traits@D@std@@V?$allocator@D@2@@std@@V?$weak_ptr@VRawImageData@@@2@@std@@PAX@1@PBV?$_Tree_val@U?$_Tree_simple_types@U?$pair@$$CBV?$basic_string@DU?$char_traits@D@std@@V?$allocator@D@2@@std@@V?$weak_ptr@VRawImageData@@@2@@std@@@std@@@1@@Z 0040ae90 f i DraggingDemo.obj
 0001:00009ec0       ??0?$_Tree_iterator@V?$_Tree_val@U?$_Tree_simple_types@U?$pair@$$CBV?$basic_string@DU?$char_traits@D@std@@V?$allocator@D@2@@std@@V?$shared_ptr@VRawImageData@@@2@@std@@@std@@@std@@@std@@QAE@$$QAV01@@Z 0040aec0 f i DraggingDemo.obj
 0001:00009ef0       ??0?$_Tree_iterator@V?$_Tree_val@U?$_Tree_simple_types@U?$pair@$$CBV?$basic_string@DU?$char_traits@D@std@@V?$allocator@D@2@@std@@V?$shared_ptr@VRawImageData@@@2@@std@@@std@@@std@@@std@@QAE@PAU?$_Tree_node@U?$pair@$$CBV?$basic_string@DU?$char_traits@D@std@@V?$allocator@D@2@@std@@V?$shared_ptr@VRawImageData@@@2@@std@@PAX@1@PBV?$_Tree_val@U?$_Tree_simple_types@U?$pair@$$CBV?$basic_string@DU?$char_traits@D@std@@V?$allocator@D@2@@std@@V?$shared_ptr@VRawImageData@@@2@@std@@@std@@@1@@Z 0040aef0 f i DraggingDemo.obj
 0001:00009f20       ??0?$_Tree_iterator@V?$_Tree_val@U?$_Tree_simple_types@U?$pair@$$CBV?$basic_string@DU?$char_traits@D@std@@V?$allocator@D@2@@std@@V?$weak_ptr@VRawImageData@@@2@@std@@@std@@@std@@@std@@QAE@$$QAV01@@Z 0040af20 f i DraggingDemo.obj
 0001:00009f50       ??0?$_Tree_iterator@V?$_Tree_val@U?$_Tree_simple_types@U?$pair@$$CBV?$basic_string@DU?$char_traits@D@std@@V?$allocator@D@2@@std@@V?$weak_ptr@VRawImageData@@@2@@std@@@std@@@std@@@std@@QAE@ABV01@@Z 0040af50 f i DraggingDemo.obj
 0001:00009f80       ??0?$_Tree_iterator@V?$_Tree_val@U?$_Tree_simple_types@U?$pair@$$CBV?$basic_string@DU?$char_traits@D@std@@V?$allocator@D@2@@std@@V?$weak_ptr@VRawImageData@@@2@@std@@@std@@@std@@@std@@QAE@PAU?$_Tree_node@U?$pair@$$CBV?$basic_string@DU?$char_traits@D@std@@V?$allocator@D@2@@std@@V?$weak_ptr@VRawImageData@@@2@@std@@PAX@1@PBV?$_Tree_val@U?$_Tree_simple_types@U?$pair@$$CBV?$basic_string@DU?$char_traits@D@std@@V?$allocator@D@2@@std@@V?$weak_ptr@VRawImageData@@@2@@std@@@std@@@1@@Z 0040af80 f i DraggingDemo.obj
 0001:00009fb0       ??0?$_Tree_temp_node_alloc@V?$allocator@U?$_Tree_node@U?$pair@$$CBV?$basic_string@DU?$char_traits@D@std@@V?$allocator@D@2@@std@@V?$shared_ptr@VRawImageData@@@2@@std@@PAX@std@@@std@@@std@@QAE@AAV?$allocator@U?$_Tree_node@U?$pair@$$CBV?$basic_string@DU?$char_traits@D@std@@V?$allocator@D@2@@std@@V?$shared_ptr@VRawImageData@@@2@@std@@PAX@std@@@1@@Z 0040afb0 f i DraggingDemo.obj
 0001:0000a030       ??0?$_Tree_temp_node_alloc@V?$allocator@U?$_Tree_node@U?$pair@$$CBV?$basic_string@DU?$char_traits@D@std@@V?$allocator@D@2@@std@@V?$weak_ptr@VRawImageData@@@2@@std@@PAX@std@@@std@@@std@@QAE@AAV?$allocator@U?$_Tree_node@U?$pair@$$CBV?$basic_string@DU?$char_traits@D@std@@V?$allocator@D@2@@std@@V?$weak_ptr@VRawImageData@@@2@@std@@PAX@std@@@1@@Z 0040b030 f i DraggingDemo.obj
 0001:0000a0b0       ??0?$_Tree_unchecked_const_iterator@V?$_Tree_val@U?$_Tree_simple_types@U?$pair@$$CBV?$basic_string@DU?$char_traits@D@std@@V?$allocator@D@2@@std@@V?$shared_ptr@VRawImageData@@@2@@std@@@std@@@std@@U_Iterator_base12@2@@std@@QAE@$$QAV01@@Z 0040b0b0 f i DraggingDemo.obj
 0001:0000a0f0       ??0?$_Tree_unchecked_const_iterator@V?$_Tree_val@U?$_Tree_simple_types@U?$pair@$$CBV?$basic_string@DU?$char_traits@D@std@@V?$allocator@D@2@@std@@V?$shared_ptr@VRawImageData@@@2@@std@@@std@@@std@@U_Iterator_base12@2@@std@@QAE@PAU?$_Tree_node@U?$pair@$$CBV?$basic_string@DU?$char_traits@D@std@@V?$allocator@D@2@@std@@V?$shared_ptr@VRawImageData@@@2@@std@@PAX@1@PBV?$_Tree_val@U?$_Tree_simple_types@U?$pair@$$CBV?$basic_string@DU?$char_traits@D@std@@V?$allocator@D@2@@std@@V?$shared_ptr@VRawImageData@@@2@@std@@@std@@@1@@Z 0040b0f0 f i DraggingDemo.obj
 0001:0000a130       ??0?$_Tree_unchecked_const_iterator@V?$_Tree_val@U?$_Tree_simple_types@U?$pair@$$CBV?$basic_string@DU?$char_traits@D@std@@V?$allocator@D@2@@std@@V?$weak_ptr@VRawImageData@@@2@@std@@@std@@@std@@U_Iterator_base0@2@@std@@QAE@PAU?$_Tree_node@U?$pair@$$CBV?$basic_string@DU?$char_traits@D@std@@V?$allocator@D@2@@std@@V?$weak_ptr@VRawImageData@@@2@@std@@PAX@1@PBV?$_Tree_val@U?$_Tree_simple_types@U?$pair@$$CBV?$basic_string@DU?$char_traits@D@std@@V?$allocator@D@2@@std@@V?$weak_ptr@VRawImageData@@@2@@std@@@std@@@1@@Z 0040b130 f i DraggingDemo.obj
 0001:0000a160       ??0?$_Tree_unchecked_const_iterator@V?$_Tree_val@U?$_Tree_simple_types@U?$pair@$$CBV?$basic_string@DU?$char_traits@D@std@@V?$allocator@D@2@@std@@V?$weak_ptr@VRawImageData@@@2@@std@@@std@@@std@@U_Iterator_base12@2@@std@@QAE@$$QAV01@@Z 0040b160 f i DraggingDemo.obj
 0001:0000a1a0       ??0?$_Tree_unchecked_const_iterator@V?$_Tree_val@U?$_Tree_simple_types@U?$pair@$$CBV?$basic_string@DU?$char_traits@D@std@@V?$allocator@D@2@@std@@V?$weak_ptr@VRawImageData@@@2@@std@@@std@@@std@@U_Iterator_base12@2@@std@@QAE@ABV01@@Z 0040b1a0 f i DraggingDemo.obj
 0001:0000a1e0       ??0?$_Tree_unchecked_const_iterator@V?$_Tree_val@U?$_Tree_simple_types@U?$pair@$$CBV?$basic_string@DU?$char_traits@D@std@@V?$allocator@D@2@@std@@V?$weak_ptr@VRawImageData@@@2@@std@@@std@@@std@@U_Iterator_base12@2@@std@@QAE@PAU?$_Tree_node@U?$pair@$$CBV?$basic_string@DU?$char_traits@D@std@@V?$allocator@D@2@@std@@V?$weak_ptr@VRawImageData@@@2@@std@@PAX@1@PBV?$_Tree_val@U?$_Tree_simple_types@U?$pair@$$CBV?$basic_string@DU?$char_traits@D@std@@V?$allocator@D@2@@std@@V?$weak_ptr@VRawImageData@@@2@@std@@@std@@@1@@Z 0040b1e0 f i DraggingDemo.obj
 0001:0000a220       ??0?$_Tree_unchecked_iterator@V?$_Tree_val@U?$_Tree_simple_types@U?$pair@$$CBV?$basic_string@DU?$char_traits@D@std@@V?$allocator@D@2@@std@@V?$weak_ptr@VRawImageData@@@2@@std@@@std@@@std@@@std@@QAE@PAU?$_Tree_node@U?$pair@$$CBV?$basic_string@DU?$char_traits@D@std@@V?$allocator@D@2@@std@@V?$weak_ptr@VRawImageData@@@2@@std@@PAX@1@PBV?$_Tree_val@U?$_Tree_simple_types@U?$pair@$$CBV?$basic_string@DU?$char_traits@D@std@@V?$allocator@D@2@@std@@V?$weak_ptr@VRawImageData@@@2@@std@@@std@@@1@@Z 0040b220 f i DraggingDemo.obj
 0001:0000a250       ??0?$_Tree_val@U?$_Tree_simple_types@U?$pair@$$CBV?$basic_string@DU?$char_traits@D@std@@V?$allocator@D@2@@std@@V?$shared_ptr@VRawImageData@@@2@@std@@@std@@@std@@QAE@XZ 0040b250 f i DraggingDemo.obj
 0001:0000a290       ??0?$_Tree_val@U?$_Tree_simple_types@U?$pair@$$CBV?$basic_string@DU?$char_traits@D@std@@V?$allocator@D@2@@std@@V?$weak_ptr@VRawImageData@@@2@@std@@@std@@@std@@QAE@XZ 0040b290 f i DraggingDemo.obj
 0001:0000a2d0       ??0?$_Uninitialized_backout_al@V?$allocator@PAVDisplayableObject@@@std@@@std@@QAE@PAPAVDisplayableObject@@AAV?$allocator@PAVDisplayableObject@@@1@@Z 0040b2d0 f i DraggingDemo.obj
 0001:0000a310       ??0?$allocator@D@std@@QAE@XZ 0040b310 f i DraggingDemo.obj
 0001:0000a330       ??0?$allocator@U?$_Tree_node@U?$pair@$$CBV?$basic_string@DU?$char_traits@D@std@@V?$allocator@D@2@@std@@V?$shared_ptr@VRawImageData@@@2@@std@@PAX@std@@@std@@QAE@XZ 0040b330 f i DraggingDemo.obj
 0001:0000a350       ??0?$allocator@U?$_Tree_node@U?$pair@$$CBV?$basic_string@DU?$char_traits@D@std@@V?$allocator@D@2@@std@@V?$weak_ptr@VRawImageData@@@2@@std@@PAX@std@@@std@@QAE@XZ 0040b350 f i DraggingDemo.obj
 0001:0000a370       ??0?$basic_string@DU?$char_traits@D@std@@V?$allocator@D@2@@std@@QAE@$$QAV01@@Z 0040b370 f i DraggingDemo.obj
 0001:0000a400       ?end@?$initializer_list@I@std@@QBEPBIXZ 0040b400 f i MovingText.obj
 0001:0000a420       ??0?$basic_string@DU?$char_traits@D@std@@V?$allocator@D@2@@std@@QAE@ABV01@@Z 0040b420 f i DraggingDemo.obj
 0001:0000a4d0       ??0?$basic_string@DU?$char_traits@D@std@@V?$allocator@D@2@@std@@QAE@QBD@Z 0040b4d0 f i DraggingDemo.obj
 0001:0000a570       ??0?$map@V?$basic_string@DU?$char_traits@D@std@@V?$allocator@D@2@@std@@V?$shared_ptr@VRawImageData@@@2@U?$less@V?$basic_string@DU?$char_traits@D@std@@V?$allocator@D@2@@std@@@2@V?$allocator@U?$pair@$$CBV?$basic_string@DU?$char_traits@D@std@@V?$allocator@D@2@@std@@V?$shared_ptr@VRawImageData@@@2@@std@@@2@@std@@QAE@XZ 0040b570 f i DraggingDemo.obj
 0001:0000a5a0       ??0?$map@V?$basic_string@DU?$char_traits@D@std@@V?$allocator@D@2@@std@@V?$weak_ptr@VRawImageData@@@2@U?$less@V?$basic_string@DU?$char_traits@D@std@@V?$allocator@D@2@@std@@@2@V?$allocator@U?$pair@$$CBV?$basic_string@DU?$char_traits@D@std@@V?$allocator@D@2@@std@@V?$weak_ptr@VRawImageData@@@2@@std@@@2@@std@@QAE@XZ 0040b5a0 f i DraggingDemo.obj
 0001:0000a5d0       ??0?$shared_ptr@VRawImageData@@@std@@QAE@$$QAV01@@Z 0040b5d0 f i DraggingDemo.obj
 0001:0000a610       ??0?$shared_ptr@VRawImageData@@@std@@QAE@$$T@Z 0040b610 f i DraggingDemo.obj
 0001:0000a630       ??0?$shared_ptr@VRawImageData@@@std@@QAE@ABV01@@Z 0040b630 f i DraggingDemo.obj
 0001:0000a660       ??0?$shared_ptr@VRawImageData@@@std@@QAE@XZ 0040b660 f i DraggingDemo.obj
 0001:0000a680       ??0?$weak_ptr@VRawImageData@@@std@@QAE@$$QAV01@@Z 0040b680 f i DraggingDemo.obj
 0001:0000a6c0       ??0?$weak_ptr@VRawImageData@@@std@@QAE@ABV01@@Z 0040b6c0 f i DraggingDemo.obj
 0001:0000a6f0       ??0DragableBaseClassObject@@QAE@HHPAVBaseEngine@@HH_N@Z 0040b6f0 f i DraggingDemo.obj
 0001:0000a760       ?max_size@?$_Default_allocator_traits@V?$allocator@I@std@@@std@@SAIABV?$allocator@I@2@@Z 0040b760 f i MovingText.obj
 0001:0000a780       ??0DragableBaseClassObject@@QAE@PAVBaseEngine@@HH_N@Z 0040b780 f i DraggingDemo.obj
 0001:0000a800       ??0DragableImageObject@@QAE@HHPAVBaseEngine@@V?$basic_string@DU?$char_traits@D@std@@V?$allocator@D@2@@std@@_N2@Z 0040b800 f i DraggingDemo.obj
 0001:0000a950       ?_Unchecked_begin@?$vector@V?$basic_string@DU?$char_traits@D@std@@V?$allocator@D@2@@std@@V?$allocator@V?$basic_string@DU?$char_traits@D@std@@V?$allocator@D@2@@std@@@2@@std@@QAEPAV?$basic_string@DU?$char_traits@D@std@@V?$allocator@D@2@@2@XZ 0040b950 f i MovingText.obj
 0001:0000a980       ?max_size@?$_Default_allocator_traits@V?$allocator@V?$basic_string@DU?$char_traits@D@std@@V?$allocator@D@2@@std@@@std@@@std@@SAIABV?$allocator@V?$basic_string@DU?$char_traits@D@std@@V?$allocator@D@2@@std@@@2@@Z 0040b980 f i MovingText.obj
 0001:0000a9a0       ??0DragableObject@@QAE@HHPAVBaseEngine@@HH_N1@Z 0040b9a0 f i DraggingDemo.obj
 0001:0000aa50       ??0DragableObject@@QAE@PAVBaseEngine@@HH_N1@Z 0040ba50 f i DraggingDemo.obj
 0001:0000ab00       ??0ImageManager@@QAE@XZ    0040bb00 f i DraggingDemo.obj
 0001:0000ab70       ??0ImageObject@@QAE@HHPAVBaseEngine@@V?$basic_string@DU?$char_traits@D@std@@V?$allocator@D@2@@std@@_N2@Z 0040bb70 f i DraggingDemo.obj
 0001:0000acb0       ?capacity@?$vector@V?$basic_string@DU?$char_traits@D@std@@V?$allocator@D@2@@std@@V?$allocator@V?$basic_string@DU?$char_traits@D@std@@V?$allocator@D@2@@std@@@2@@std@@QBEIXZ 0040bcb0 f i MovingText.obj
 0001:0000ad00       ??0RawImageData@@QAE@V?$basic_string@DU?$char_traits@D@std@@V?$allocator@D@2@@std@@@Z 0040bd00 f i DraggingDemo.obj
 0001:0000adb0       ??0_Basic_container_proxy_ptr12@std@@IAE@XZ 0040bdb0 f i DraggingDemo.obj
 0001:0000add0       ??0_Bxty@?$_String_val@U?$_Simple_types@D@std@@@std@@QAE@XZ 0040bdd0 f i DraggingDemo.obj
 0001:0000ae00       ??0_Container_base12@std@@QAE@XZ 0040be00 f i DraggingDemo.obj
 0001:0000ae20       ??0_Container_proxy@std@@QAE@PAU_Container_base12@1@@Z 0040be20 f i DraggingDemo.obj
 0001:0000ae50       ??0_Iterator_base12@std@@QAE@ABU01@@Z 0040be50 f i DraggingDemo.obj
 0001:0000ae90       ??0_Iterator_base12@std@@QAE@XZ 0040be90 f i DraggingDemo.obj
 0001:0000aec0       ??0_Ref_count_base@std@@IAE@XZ 0040bec0 f i DraggingDemo.obj
 0001:0000aef0       ??0_Sentry_base@?$basic_ostream@DU?$char_traits@D@std@@@std@@QAE@AAV12@@Z 0040bef0 f i DraggingDemo.obj
 0001:0000af50       ??0bad_alloc@std@@AAE@QBD@Z 0040bf50 f i DraggingDemo.obj
 0001:0000af80       ??0bad_alloc@std@@QAE@ABV01@@Z 0040bf80 f i DraggingDemo.obj
 0001:0000afb0       ??0bad_array_new_length@std@@QAE@ABV01@@Z 0040bfb0 f i DraggingDemo.obj
 0001:0000afe0       ??0bad_array_new_length@std@@QAE@XZ 0040bfe0 f i DraggingDemo.obj
 0001:0000b010       ??0exception@std@@QAE@ABV01@@Z 0040c010 f i DraggingDemo.obj
 0001:0000b060       ??0exception@std@@QAE@QBDH@Z 0040c060 f i DraggingDemo.obj
 0001:0000b0a0       ??0sentry@?$basic_ostream@DU?$char_traits@D@std@@@std@@QAE@AAV12@@Z 0040c0a0 f i DraggingDemo.obj
 0001:0000b170       ?size@?$vector@IV?$allocator@I@std@@@std@@QBEIXZ 0040c170 f i MovingText.obj
 0001:0000b1a0       ??1?$_Alloc_construct_ptr@V?$allocator@U?$_Tree_node@U?$pair@$$CBV?$basic_string@DU?$char_traits@D@std@@V?$allocator@D@2@@std@@V?$shared_ptr@VRawImageData@@@2@@std@@PAX@std@@@std@@@std@@QAE@XZ 0040c1a0 f i DraggingDemo.obj
 0001:0000b210       ??1?$_Alloc_construct_ptr@V?$allocator@U?$_Tree_node@U?$pair@$$CBV?$basic_string@DU?$char_traits@D@std@@V?$allocator@D@2@@std@@V?$weak_ptr@VRawImageData@@@2@@std@@PAX@std@@@std@@@std@@QAE@XZ 0040c210 f i DraggingDemo.obj
 0001:0000b280       ??1?$_Compressed_pair@V?$allocator@D@std@@V?$_String_val@U?$_Simple_types@D@std@@@2@$00@std@@QAE@XZ 0040c280 f i DraggingDemo.obj
 0001:0000b2a0       ??1?$_Container_proxy_ptr12@V?$allocator@U_Container_proxy@std@@@std@@@std@@QAE@XZ 0040c2a0 f i DraggingDemo.obj
 0001:0000b2e0       ??1?$_Ref_count@VRawImageData@@@std@@UAE@XZ 0040c2e0 f i DraggingDemo.obj
 0001:0000b300       ??1?$_String_val@U?$_Simple_types@D@std@@@std@@QAE@XZ 0040c300 f i DraggingDemo.obj
 0001:0000b320       ??1?$_Temporary_owner@VRawImageData@@@std@@QAE@XZ 0040c320 f i DraggingDemo.obj
 0001:0000b360       ??1?$_Tree@V?$_Tmap_traits@V?$basic_string@DU?$char_traits@D@std@@V?$allocator@D@2@@std@@V?$weak_ptr@VRawImageData@@@2@U?$less@V?$basic_string@DU?$char_traits@D@std@@V?$allocator@D@2@@std@@@2@V?$allocator@U?$pair@$$CBV?$basic_string@DU?$char_traits@D@std@@V?$allocator@D@2@@std@@V?$weak_ptr@VRawImageData@@@2@@std@@@2@$0A@@std@@@std@@QAE@XZ 0040c360 f i DraggingDemo.obj
 0001:0000b3d0       ??1?$_Tree_const_iterator@V?$_Tree_val@U?$_Tree_simple_types@U?$pair@$$CBV?$basic_string@DU?$char_traits@D@std@@V?$allocator@D@2@@std@@V?$shared_ptr@VRawImageData@@@2@@std@@@std@@@std@@@std@@QAE@XZ 0040c3d0 f i DraggingDemo.obj
 0001:0000b3f0       ??1?$_Tree_const_iterator@V?$_Tree_val@U?$_Tree_simple_types@U?$pair@$$CBV?$basic_string@DU?$char_traits@D@std@@V?$allocator@D@2@@std@@V?$weak_ptr@VRawImageData@@@2@@std@@@std@@@std@@@std@@QAE@XZ 0040c3f0 f i DraggingDemo.obj
 0001:0000b410       ??1?$_Tree_iterator@V?$_Tree_val@U?$_Tree_simple_types@U?$pair@$$CBV?$basic_string@DU?$char_traits@D@std@@V?$allocator@D@2@@std@@V?$shared_ptr@VRawImageData@@@2@@std@@@std@@@std@@@std@@QAE@XZ 0040c410 f i DraggingDemo.obj
 0001:0000b430       ??1?$_Tree_iterator@V?$_Tree_val@U?$_Tree_simple_types@U?$pair@$$CBV?$basic_string@DU?$char_traits@D@std@@V?$allocator@D@2@@std@@V?$weak_ptr@VRawImageData@@@2@@std@@@std@@@std@@@std@@QAE@XZ 0040c430 f i DraggingDemo.obj
 0001:0000b450       ??1?$_Tree_temp_node@V?$allocator@U?$_Tree_node@U?$pair@$$CBV?$basic_string@DU?$char_traits@D@std@@V?$allocator@D@2@@std@@V?$shared_ptr@VRawImageData@@@2@@std@@PAX@std@@@std@@@std@@QAE@XZ 0040c450 f i DraggingDemo.obj
 0001:0000b520       ??1?$_Tree_temp_node@V?$allocator@U?$_Tree_node@U?$pair@$$CBV?$basic_string@DU?$char_traits@D@std@@V?$allocator@D@2@@std@@V?$weak_ptr@VRawImageData@@@2@@std@@PAX@std@@@std@@@std@@QAE@XZ 0040c520 f i DraggingDemo.obj
 0001:0000b5f0       ??1?$_Tree_temp_node_alloc@V?$allocator@U?$_Tree_node@U?$pair@$$CBV?$basic_string@DU?$char_traits@D@std@@V?$allocator@D@2@@std@@V?$shared_ptr@VRawImageData@@@2@@std@@PAX@std@@@std@@@std@@QAE@XZ 0040c5f0 f i DraggingDemo.obj
 0001:0000b610       ??1?$_Tree_temp_node_alloc@V?$allocator@U?$_Tree_node@U?$pair@$$CBV?$basic_string@DU?$char_traits@D@std@@V?$allocator@D@2@@std@@V?$weak_ptr@VRawImageData@@@2@@std@@PAX@std@@@std@@@std@@QAE@XZ 0040c610 f i DraggingDemo.obj
 0001:0000b630       ??1?$_Tree_unchecked_const_iterator@V?$_Tree_val@U?$_Tree_simple_types@U?$pair@$$CBV?$basic_string@DU?$char_traits@D@std@@V?$allocator@D@2@@std@@V?$shared_ptr@VRawImageData@@@2@@std@@@std@@@std@@U_Iterator_base12@2@@std@@QAE@XZ 0040c630 f i DraggingDemo.obj
 0001:0000b650       ??1?$_Tree_unchecked_const_iterator@V?$_Tree_val@U?$_Tree_simple_types@U?$pair@$$CBV?$basic_string@DU?$char_traits@D@std@@V?$allocator@D@2@@std@@V?$weak_ptr@VRawImageData@@@2@@std@@@std@@@std@@U_Iterator_base12@2@@std@@QAE@XZ 0040c650 f i DraggingDemo.obj
 0001:0000b670       ??1?$_Uninitialized_backout_al@V?$allocator@PAVDisplayableObject@@@std@@@std@@QAE@XZ 0040c670 f i DraggingDemo.obj
 0001:0000b6a0       ??1?$basic_string@DU?$char_traits@D@std@@V?$allocator@D@2@@std@@QAE@XZ 0040c6a0 f i DraggingDemo.obj
 0001:0000b710       ??1?$map@V?$basic_string@DU?$char_traits@D@std@@V?$allocator@D@2@@std@@V?$weak_ptr@VRawImageData@@@2@U?$less@V?$basic_string@DU?$char_traits@D@std@@V?$allocator@D@2@@std@@@2@V?$allocator@U?$pair@$$CBV?$basic_string@DU?$char_traits@D@std@@V?$allocator@D@2@@std@@V?$weak_ptr@VRawImageData@@@2@@std@@@2@@std@@QAE@XZ 0040c710 f i DraggingDemo.obj
 0001:0000b730       ??1?$pair@$$CBV?$basic_string@DU?$char_traits@D@std@@V?$allocator@D@2@@std@@V?$shared_ptr@VRawImageData@@@2@@std@@QAE@XZ 0040c730 f i DraggingDemo.obj
 0001:0000b760       ??1?$pair@$$CBV?$basic_string@DU?$char_traits@D@std@@V?$allocator@D@2@@std@@V?$weak_ptr@VRawImageData@@@2@@std@@QAE@XZ 0040c760 f i DraggingDemo.obj
 0001:0000b790       ??1?$pair@V?$_Tree_iterator@V?$_Tree_val@U?$_Tree_simple_types@U?$pair@$$CBV?$basic_string@DU?$char_traits@D@std@@V?$allocator@D@2@@std@@V?$shared_ptr@VRawImageData@@@2@@std@@@std@@@std@@@std@@_N@std@@QAE@XZ 0040c790 f i DraggingDemo.obj
 0001:0000b7b0       ??1?$pair@V?$_Tree_iterator@V?$_Tree_val@U?$_Tree_simple_types@U?$pair@$$CBV?$basic_string@DU?$char_traits@D@std@@V?$allocator@D@2@@std@@V?$weak_ptr@VRawImageData@@@2@@std@@@std@@@std@@@std@@_N@std@@QAE@XZ 0040c7b0 f i DraggingDemo.obj
 0001:0000b7d0       ??1?$pair@V?$basic_string@DU?$char_traits@D@std@@V?$allocator@D@2@@std@@V?$shared_ptr@VRawImageData@@@2@@std@@QAE@XZ 0040c7d0 f i DraggingDemo.obj
 0001:0000b800       ??1?$pair@V?$basic_string@DU?$char_traits@D@std@@V?$allocator@D@2@@std@@V?$weak_ptr@VRawImageData@@@2@@std@@QAE@XZ 0040c800 f i DraggingDemo.obj
 0001:0000b830       ??1?$shared_ptr@VRawImageData@@@std@@QAE@XZ 0040c830 f i DraggingDemo.obj
 0001:0000b850       ??1?$weak_ptr@VRawImageData@@@std@@QAE@XZ 0040c850 f i DraggingDemo.obj
 0001:0000b870       ??1DragableBaseClassObject@@UAE@XZ 0040c870 f i DraggingDemo.obj
 0001:0000b890       ??1DragableImageObject@@UAE@XZ 0040c890 f i DraggingDemo.obj
 0001:0000b8c0       ??1DragableObject@@UAE@XZ  0040c8c0 f i DraggingDemo.obj
 0001:0000b8e0       ??1ImageObject@@UAE@XZ     0040c8e0 f i DraggingDemo.obj
 0001:0000b910       ??1RawImageData@@QAE@XZ    0040c910 f i DraggingDemo.obj
 0001:0000b970       ??1SimpleImage@@QAE@XZ     0040c970 f i DraggingDemo.obj
 0001:0000b9c0       ??1_Bxty@?$_String_val@U?$_Simple_types@D@std@@@std@@QAE@XZ 0040c9c0 f i DraggingDemo.obj
 0001:0000b9d0       ??1_Iterator_base12@std@@QAE@XZ 0040c9d0 f i DraggingDemo.obj
 0001:0000b9f0       ??1_Ref_count_base@std@@UAE@XZ 0040c9f0 f i DraggingDemo.obj
 0001:0000ba00       ??1_Sentry_base@?$basic_ostream@DU?$char_traits@D@std@@@std@@QAE@XZ 0040ca00 f i DraggingDemo.obj
 0001:0000ba90       ??1bad_alloc@std@@UAE@XZ   0040ca90 f i DraggingDemo.obj
 0001:0000bab0       ??1bad_array_new_length@std@@UAE@XZ 0040cab0 f i DraggingDemo.obj
 0001:0000bad0       ??1exception@std@@UAE@XZ   0040cad0 f i DraggingDemo.obj
 0001:0000bb00       ??1sentry@?$basic_ostream@DU?$char_traits@D@std@@@std@@QAE@XZ 0040cb00 f i DraggingDemo.obj
 0001:0000bb90       ??2@YAPAXIPAX@Z            0040cb90 f i DraggingDemo.obj
 0001:0000bba0       ??4_Iterator_base12@std@@QAEAAU01@ABU01@@Z 0040cba0 f i DraggingDemo.obj
 0001:0000bbd0       ??8?$_Tree_const_iterator@V?$_Tree_val@U?$_Tree_simple_types@U?$pair@$$CBV?$basic_string@DU?$char_traits@D@std@@V?$allocator@D@2@@std@@V?$weak_ptr@VRawImageData@@@2@@std@@@std@@@std@@@std@@QBE_NABV01@@Z 0040cbd0 f i DraggingDemo.obj
 0001:0000bc90       ??9?$_Tree_const_iterator@V?$_Tree_val@U?$_Tree_simple_types@U?$pair@$$CBV?$basic_string@DU?$char_traits@D@std@@V?$allocator@D@2@@std@@V?$weak_ptr@VRawImageData@@@2@@std@@@std@@@std@@@std@@QBE_NABV01@@Z 0040cc90 f i DraggingDemo.obj
 0001:0000bce0       ??A?$vector@PAVDisplayableObject@@V?$allocator@PAVDisplayableObject@@@std@@@std@@QAEAAPAVDisplayableObject@@I@Z 0040cce0 f i DraggingDemo.obj
 0001:0000bd90       ??Bsentry@?$basic_ostream@DU?$char_traits@D@std@@@std@@QBE_NXZ 0040cd90 f i DraggingDemo.obj
 0001:0000bdb0       ??C?$_Tree_iterator@V?$_Tree_val@U?$_Tree_simple_types@U?$pair@$$CBV?$basic_string@DU?$char_traits@D@std@@V?$allocator@D@2@@std@@V?$weak_ptr@VRawImageData@@@2@@std@@@std@@@std@@@std@@QBEPAU?$pair@$$CBV?$basic_string@DU?$char_traits@D@std@@V?$allocator@D@2@@std@@V?$weak_ptr@VRawImageData@@@2@@1@XZ 0040cdb0 f i DraggingDemo.obj
 0001:0000bde0       ??D?$_Tree_const_iterator@V?$_Tree_val@U?$_Tree_simple_types@U?$pair@$$CBV?$basic_string@DU?$char_traits@D@std@@V?$allocator@D@2@@std@@V?$weak_ptr@VRawImageData@@@2@@std@@@std@@@std@@@std@@QBEABU?$pair@$$CBV?$basic_string@DU?$char_traits@D@std@@V?$allocator@D@2@@std@@V?$weak_ptr@VRawImageData@@@2@@1@XZ 0040cde0 f i DraggingDemo.obj
 0001:0000bef0       ??D?$_Tree_iterator@V?$_Tree_val@U?$_Tree_simple_types@U?$pair@$$CBV?$basic_string@DU?$char_traits@D@std@@V?$allocator@D@2@@std@@V?$weak_ptr@VRawImageData@@@2@@std@@@std@@@std@@@std@@QBEAAU?$pair@$$CBV?$basic_string@DU?$char_traits@D@std@@V?$allocator@D@2@@std@@V?$weak_ptr@VRawImageData@@@2@@1@XZ 0040cef0 f i DraggingDemo.obj
 0001:0000bf10       ??E?$_Tree_unchecked_const_iterator@V?$_Tree_val@U?$_Tree_simple_types@U?$pair@$$CBV?$basic_string@DU?$char_traits@D@std@@V?$allocator@D@2@@std@@V?$weak_ptr@VRawImageData@@@2@@std@@@std@@@std@@U_Iterator_base0@2@@std@@QAEAAV01@XZ 0040cf10 f i DraggingDemo.obj
 0001:0000bfa0       ??R?$less@V?$basic_string@DU?$char_traits@D@std@@V?$allocator@D@2@@std@@@std@@QBE_NABV?$basic_string@DU?$char_traits@D@std@@V?$allocator@D@2@@1@0@Z 0040cfa0 f i DraggingDemo.obj
 0001:0000bfd0       ??_E?$_Ref_count@VRawImageData@@@std@@UAEPAXI@Z 0040cfd0 f i DraggingDemo.obj
 0001:0000bfd0       ??_G?$_Ref_count@VRawImageData@@@std@@UAEPAXI@Z 0040cfd0 f i DraggingDemo.obj
 0001:0000c010       ??_G?$pair@$$CBV?$basic_string@DU?$char_traits@D@std@@V?$allocator@D@2@@std@@V?$shared_ptr@VRawImageData@@@2@@std@@QAEPAXI@Z 0040d010 f i DraggingDemo.obj
 0001:0000c050       ??_G?$pair@$$CBV?$basic_string@DU?$char_traits@D@std@@V?$allocator@D@2@@std@@V?$weak_ptr@VRawImageData@@@2@@std@@QAEPAXI@Z 0040d050 f i DraggingDemo.obj
 0001:0000c090       ??_EDragableBaseClassObject@@UAEPAXI@Z 0040d090 f i DraggingDemo.obj
 0001:0000c090       ??_GDragableBaseClassObject@@UAEPAXI@Z 0040d090 f i DraggingDemo.obj
 0001:0000c0d0       ??_EDragableImageObject@@UAEPAXI@Z 0040d0d0 f i DraggingDemo.obj
 0001:0000c0d0       ??_GDragableImageObject@@UAEPAXI@Z 0040d0d0 f i DraggingDemo.obj
 0001:0000c110       ??_EDragableObject@@UAEPAXI@Z 0040d110 f i DraggingDemo.obj
 0001:0000c110       ??_GDragableObject@@UAEPAXI@Z 0040d110 f i DraggingDemo.obj
 0001:0000c150       ??_EImageObject@@UAEPAXI@Z 0040d150 f i DraggingDemo.obj
 0001:0000c150       ??_GImageObject@@UAEPAXI@Z 0040d150 f i DraggingDemo.obj
 0001:0000c190       ??_GRawImageData@@QAEPAXI@Z 0040d190 f i DraggingDemo.obj
 0001:0000c1d0       ??_Ebad_alloc@std@@UAEPAXI@Z 0040d1d0 f i DraggingDemo.obj
 0001:0000c1d0       ??_Gbad_alloc@std@@UAEPAXI@Z 0040d1d0 f i DraggingDemo.obj
 0001:0000c210       ??_Ebad_array_new_length@std@@UAEPAXI@Z 0040d210 f i DraggingDemo.obj
 0001:0000c210       ??_Gbad_array_new_length@std@@UAEPAXI@Z 0040d210 f i DraggingDemo.obj
 0001:0000c250       ??_Eexception@std@@UAEPAXI@Z 0040d250 f i DraggingDemo.obj
 0001:0000c250       ??_Gexception@std@@UAEPAXI@Z 0040d250 f i DraggingDemo.obj
 0001:0000c290       ?_Activate_SSO_buffer@?$_String_val@U?$_Simple_types@D@std@@@std@@QAEXXZ 0040d290 f i DraggingDemo.obj
 0001:0000c2a0       ?_Adjust_manually_vector_aligned@std@@YAXAAPAXAAI@Z 0040d2a0 f i DraggingDemo.obj
 0001:0000c3b0       ?max_size@?$vector@IV?$allocator@I@std@@@std@@QBEIXZ 0040d3b0 f i MovingText.obj
 0001:0000c3f0       ?_Adopt@_Iterator_base0@std@@QAEXPBX@Z 0040d3f0 f i DraggingDemo.obj
 0001:0000c400       ?_Adopt@_Iterator_base12@std@@QAEXPBU_Container_base12@2@@Z 0040d400 f i DraggingDemo.obj
 0001:0000c420       ?_Adopt_locked@_Iterator_base12@std@@AAEXPBU_Container_base12@2@@Z 0040d420 f i DraggingDemo.obj
 0001:0000c460       ?_Adopt_unlocked@_Iterator_base12@std@@AAEXPBU_Container_base12@2@@Z 0040d460 f i DraggingDemo.obj
 0001:0000c4e0       ?_Alloc_sentinel_and_proxy@?$_Tree@V?$_Tmap_traits@V?$basic_string@DU?$char_traits@D@std@@V?$allocator@D@2@@std@@V?$shared_ptr@VRawImageData@@@2@U?$less@V?$basic_string@DU?$char_traits@D@std@@V?$allocator@D@2@@std@@@2@V?$allocator@U?$pair@$$CBV?$basic_string@DU?$char_traits@D@std@@V?$allocator@D@2@@std@@V?$shared_ptr@VRawImageData@@@2@@std@@@2@$0A@@std@@@std@@IAEXXZ 0040d4e0 f i DraggingDemo.obj
 0001:0000c5b0       ?_Alloc_sentinel_and_proxy@?$_Tree@V?$_Tmap_traits@V?$basic_string@DU?$char_traits@D@std@@V?$allocator@D@2@@std@@V?$weak_ptr@VRawImageData@@@2@U?$less@V?$basic_string@DU?$char_traits@D@std@@V?$allocator@D@2@@std@@@2@V?$allocator@U?$pair@$$CBV?$basic_string@DU?$char_traits@D@std@@V?$allocator@D@2@@std@@V?$weak_ptr@VRawImageData@@@2@@std@@@2@$0A@@std@@@std@@IAEXXZ 0040d5b0 f i DraggingDemo.obj
 0001:0000c680       ?_Allocate@?$_Alloc_construct_ptr@V?$allocator@U?$_Tree_node@U?$pair@$$CBV?$basic_string@DU?$char_traits@D@std@@V?$allocator@D@2@@std@@V?$shared_ptr@VRawImageData@@@2@@std@@PAX@std@@@std@@@std@@QAEXXZ 0040d680 f i DraggingDemo.obj
 0001:0000c6b0       ?_Allocate@?$_Alloc_construct_ptr@V?$allocator@U?$_Tree_node@U?$pair@$$CBV?$basic_string@DU?$char_traits@D@std@@V?$allocator@D@2@@std@@V?$weak_ptr@VRawImageData@@@2@@std@@PAX@std@@@std@@@std@@QAEXXZ 0040d6b0 f i DraggingDemo.obj
 0001:0000c6e0       ?_Allocate@_Default_allocate_traits@std@@SAPAXI@Z 0040d6e0 f i DraggingDemo.obj
 0001:0000c700       ?_Assign_locked@_Iterator_base12@std@@AAEXABU12@@Z 0040d700 f i DraggingDemo.obj
 0001:0000c740       ?_Assign_unlocked@_Iterator_base12@std@@AAEXABU12@@Z 0040d740 f i DraggingDemo.obj
 0001:0000c790       ?_Calculate_growth@?$basic_string@DU?$char_traits@D@std@@V?$allocator@D@2@@std@@ABEII@Z 0040d790 f i DraggingDemo.obj
 0001:0000c7d0       ?_Calculate_growth@?$basic_string@DU?$char_traits@D@std@@V?$allocator@D@2@@std@@CAIIII@Z 0040d7d0 f i DraggingDemo.obj
 0001:0000c840       ?_Calculate_growth@?$vector@PAVDisplayableObject@@V?$allocator@PAVDisplayableObject@@@std@@@std@@ABEII@Z 0040d840 f i DraggingDemo.obj
 0001:0000c8b0       ?_Change_array@?$vector@PAVDisplayableObject@@V?$allocator@PAVDisplayableObject@@@std@@@std@@AAEXQAPAVDisplayableObject@@II@Z 0040d8b0 f i DraggingDemo.obj
 0001:0000c980       ?_Check_grow_by_1@?$_Tree@V?$_Tmap_traits@V?$basic_string@DU?$char_traits@D@std@@V?$allocator@D@2@@std@@V?$shared_ptr@VRawImageData@@@2@U?$less@V?$basic_string@DU?$char_traits@D@std@@V?$allocator@D@2@@std@@@2@V?$allocator@U?$pair@$$CBV?$basic_string@DU?$char_traits@D@std@@V?$allocator@D@2@@std@@V?$shared_ptr@VRawImageData@@@2@@std@@@2@$0A@@std@@@std@@IAEXXZ 0040d980 f i DraggingDemo.obj
 0001:0000c9c0       ?_Check_grow_by_1@?$_Tree@V?$_Tmap_traits@V?$basic_string@DU?$char_traits@D@std@@V?$allocator@D@2@@std@@V?$weak_ptr@VRawImageData@@@2@U?$less@V?$basic_string@DU?$char_traits@D@std@@V?$allocator@D@2@@std@@@2@V?$allocator@U?$pair@$$CBV?$basic_string@DU?$char_traits@D@std@@V?$allocator@D@2@@std@@V?$weak_ptr@VRawImageData@@@2@@std@@@2@$0A@@std@@@std@@IAEXXZ 0040d9c0 f i DraggingDemo.obj
 0001:0000ca00       ?_Decref@?$_Ptr_base@VRawImageData@@@std@@IAEXXZ 0040da00 f i DraggingDemo.obj
 0001:0000ca30       ?_Decref@_Ref_count_base@std@@QAEXXZ 0040da30 f i DraggingDemo.obj
 0001:0000ca70       ?_Decwref@?$_Ptr_base@VRawImageData@@@std@@IAEXXZ 0040da70 f i DraggingDemo.obj
 0001:0000caa0       ?_Decwref@_Ref_count_base@std@@QAEXXZ 0040daa0 f i DraggingDemo.obj
 0001:0000cae0       ?_Delete_this@?$_Ref_count@VRawImageData@@@std@@EAEXXZ 0040dae0 f i DraggingDemo.obj
 0001:0000cb30       ?_Destroy@?$_Ref_count@VRawImageData@@@std@@EAEXXZ 0040db30 f i DraggingDemo.obj
 0001:0000cb70       ?_Erase_unchecked@?$_Tree@V?$_Tmap_traits@V?$basic_string@DU?$char_traits@D@std@@V?$allocator@D@2@@std@@V?$weak_ptr@VRawImageData@@@2@U?$less@V?$basic_string@DU?$char_traits@D@std@@V?$allocator@D@2@@std@@@2@V?$allocator@U?$pair@$$CBV?$basic_string@DU?$char_traits@D@std@@V?$allocator@D@2@@std@@V?$weak_ptr@VRawImageData@@@2@@std@@@2@$0A@@std@@@std@@AAEPAU?$_Tree_node@U?$pair@$$CBV?$basic_string@DU?$char_traits@D@std@@V?$allocator@D@2@@std@@V?$weak_ptr@VRawImageData@@@2@@std@@PAX@2@V?$_Tree_unchecked_const_iterator@V?$_Tree_val@U?$_Tree_simple_types@U?$pair@$$CBV?$basic_string@DU?$char_traits@D@std@@V?$allocator@D@2@@std@@V?$weak_ptr@VRawImageData@@@2@@std@@@std@@@std@@U_Iterator_base0@2@@2@@Z 0040db70 f i DraggingDemo.obj
 0001:0000cbf0       ?_Extract@?$_In_place_key_extract_map@V?$basic_string@DU?$char_traits@D@std@@V?$allocator@D@2@@std@@U?$pair@V?$basic_string@DU?$char_traits@D@std@@V?$allocator@D@2@@std@@V?$shared_ptr@VRawImageData@@@2@@2@@std@@SAABV?$basic_string@DU?$char_traits@D@std@@V?$allocator@D@2@@2@ABU?$pair@V?$basic_string@DU?$char_traits@D@std@@V?$allocator@D@2@@std@@V?$shared_ptr@VRawImageData@@@2@@2@@Z 0040dbf0 f i DraggingDemo.obj
 0001:0000cc00       ?_Extract@?$_In_place_key_extract_map@V?$basic_string@DU?$char_traits@D@std@@V?$allocator@D@2@@std@@U?$pair@V?$basic_string@DU?$char_traits@D@std@@V?$allocator@D@2@@std@@V?$weak_ptr@VRawImageData@@@2@@2@@std@@SAABV?$basic_string@DU?$char_traits@D@std@@V?$allocator@D@2@@2@ABU?$pair@V?$basic_string@DU?$char_traits@D@std@@V?$allocator@D@2@@std@@V?$weak_ptr@VRawImageData@@@2@@2@@Z 0040dc00 f i DraggingDemo.obj
 0001:0000cc10       ?_Extract@?$_Tree_val@U?$_Tree_simple_types@U?$pair@$$CBV?$basic_string@DU?$char_traits@D@std@@V?$allocator@D@2@@std@@V?$weak_ptr@VRawImageData@@@2@@std@@@std@@@std@@QAEPAU?$_Tree_node@U?$pair@$$CBV?$basic_string@DU?$char_traits@D@std@@V?$allocator@D@2@@std@@V?$weak_ptr@VRawImageData@@@2@@std@@PAX@2@V?$_Tree_unchecked_const_iterator@V?$_Tree_val@U?$_Tree_simple_types@U?$pair@$$CBV?$basic_string@DU?$char_traits@D@std@@V?$allocator@D@2@@std@@V?$weak_ptr@VRawImageData@@@2@@std@@@std@@@std@@U_Iterator_base0@2@@2@@Z 0040dc10 f i DraggingDemo.obj
 0001:0000d040       ??$?HDU?$char_traits@D@std@@V?$allocator@D@1@@std@@YA?AV?$basic_string@DU?$char_traits@D@std@@V?$allocator@D@2@@0@$$QAV10@QBD@Z 0040e040 f i MovingText.obj
 0001:0000d080       ??$_Emplace_back@ABI@?$_Uninitialized_backout_al@V?$allocator@I@std@@@std@@QAEXABI@Z 0040e080 f i MovingText.obj
 0001:0000d0d0       ??$_Emplace_back@ABV?$basic_string@DU?$char_traits@D@std@@V?$allocator@D@2@@std@@@?$_Uninitialized_backout_al@V?$allocator@V?$basic_string@DU?$char_traits@D@std@@V?$allocator@D@2@@std@@@std@@@std@@QAEXABV?$basic_string@DU?$char_traits@D@std@@V?$allocator@D@2@@1@@Z 0040e0d0 f i MovingText.obj
 0001:0000d150       ?_Get_deleter@_Ref_count_base@std@@UBEPAXABVtype_info@@@Z 0040e150 f i DraggingDemo.obj
 0001:0000d170       ?_Get_first@?$_Compressed_pair@U?$less@V?$basic_string@DU?$char_traits@D@std@@V?$allocator@D@2@@std@@@std@@V?$_Compressed_pair@V?$allocator@U?$_Tree_node@U?$pair@$$CBV?$basic_string@DU?$char_traits@D@std@@V?$allocator@D@2@@std@@V?$shared_ptr@VRawImageData@@@2@@std@@PAX@std@@@std@@V?$_Tree_val@U?$_Tree_simple_types@U?$pair@$$CBV?$basic_string@DU?$char_traits@D@std@@V?$allocator@D@2@@std@@V?$shared_ptr@VRawImageData@@@2@@std@@@std@@@2@$00@2@$00@std@@QBEABU?$less@V?$basic_string@DU?$char_traits@D@std@@V?$allocator@D@2@@std@@@2@XZ 0040e170 f i DraggingDemo.obj
 0001:0000d190       ?_Get_first@?$_Compressed_pair@U?$less@V?$basic_string@DU?$char_traits@D@std@@V?$allocator@D@2@@std@@@std@@V?$_Compressed_pair@V?$allocator@U?$_Tree_node@U?$pair@$$CBV?$basic_string@DU?$char_traits@D@std@@V?$allocator@D@2@@std@@V?$weak_ptr@VRawImageData@@@2@@std@@PAX@std@@@std@@V?$_Tree_val@U?$_Tree_simple_types@U?$pair@$$CBV?$basic_string@DU?$char_traits@D@std@@V?$allocator@D@2@@std@@V?$weak_ptr@VRawImageData@@@2@@std@@@std@@@2@$00@2@$00@std@@QBEABU?$less@V?$basic_string@DU?$char_traits@D@std@@V?$allocator@D@2@@std@@@2@XZ 0040e190 f i DraggingDemo.obj
 0001:0000d1b0       ?_Get_first@?$_Compressed_pair@V?$allocator@D@std@@V?$_String_val@U?$_Simple_types@D@std@@@2@$00@std@@QAEAAV?$allocator@D@2@XZ 0040e1b0 f i DraggingDemo.obj
 0001:0000d1d0       ?_Get_first@?$_Compressed_pair@V?$allocator@D@std@@V?$_String_val@U?$_Simple_types@D@std@@@2@$00@std@@QBEABV?$allocator@D@2@XZ 0040e1d0 f i DraggingDemo.obj
 0001:0000d1f0       ?_Get_first@?$_Compressed_pair@V?$allocator@PAVDisplayableObject@@@std@@V?$_Vector_val@U?$_Simple_types@PAVDisplayableObject@@@std@@@2@$00@std@@QAEAAV?$allocator@PAVDisplayableObject@@@2@XZ 0040e1f0 f i DraggingDemo.obj
 0001:0000d210       ?_Get_first@?$_Compressed_pair@V?$allocator@PAVDisplayableObject@@@std@@V?$_Vector_val@U?$_Simple_types@PAVDisplayableObject@@@std@@@2@$00@std@@QBEABV?$allocator@PAVDisplayableObject@@@2@XZ 0040e210 f i DraggingDemo.obj
 0001:0000d230       ?_Get_first@?$_Compressed_pair@V?$allocator@U?$_Tree_node@U?$pair@$$CBV?$basic_string@DU?$char_traits@D@std@@V?$allocator@D@2@@std@@V?$shared_ptr@VRawImageData@@@2@@std@@PAX@std@@@std@@V?$_Tree_val@U?$_Tree_simple_types@U?$pair@$$CBV?$basic_string@DU?$char_traits@D@std@@V?$allocator@D@2@@std@@V?$shared_ptr@VRawImageData@@@2@@std@@@std@@@2@$00@std@@QAEAAV?$allocator@U?$_Tree_node@U?$pair@$$CBV?$basic_string@DU?$char_traits@D@std@@V?$allocator@D@2@@std@@V?$shared_ptr@VRawImageData@@@2@@std@@PAX@std@@@2@XZ 0040e230 f i DraggingDemo.obj
 0001:0000d250       ?_Get_first@?$_Compressed_pair@V?$allocator@U?$_Tree_node@U?$pair@$$CBV?$basic_string@DU?$char_traits@D@std@@V?$allocator@D@2@@std@@V?$shared_ptr@VRawImageData@@@2@@std@@PAX@std@@@std@@V?$_Tree_val@U?$_Tree_simple_types@U?$pair@$$CBV?$basic_string@DU?$char_traits@D@std@@V?$allocator@D@2@@std@@V?$shared_ptr@VRawImageData@@@2@@std@@@std@@@2@$00@std@@QBEABV?$allocator@U?$_Tree_node@U?$pair@$$CBV?$basic_string@DU?$char_traits@D@std@@V?$allocator@D@2@@std@@V?$shared_ptr@VRawImageData@@@2@@std@@PAX@std@@@2@XZ 0040e250 f i DraggingDemo.obj
 0001:0000d270       ?_Get_first@?$_Compressed_pair@V?$allocator@U?$_Tree_node@U?$pair@$$CBV?$basic_string@DU?$char_traits@D@std@@V?$allocator@D@2@@std@@V?$weak_ptr@VRawImageData@@@2@@std@@PAX@std@@@std@@V?$_Tree_val@U?$_Tree_simple_types@U?$pair@$$CBV?$basic_string@DU?$char_traits@D@std@@V?$allocator@D@2@@std@@V?$weak_ptr@VRawImageData@@@2@@std@@@std@@@2@$00@std@@QAEAAV?$allocator@U?$_Tree_node@U?$pair@$$CBV?$basic_string@DU?$char_traits@D@std@@V?$allocator@D@2@@std@@V?$weak_ptr@VRawImageData@@@2@@std@@PAX@std@@@2@XZ 0040e270 f i DraggingDemo.obj
 0001:0000d290       ?_Get_first@?$_Compressed_pair@V?$allocator@U?$_Tree_node@U?$pair@$$CBV?$basic_string@DU?$char_traits@D@std@@V?$allocator@D@2@@std@@V?$weak_ptr@VRawImageData@@@2@@std@@PAX@std@@@std@@V?$_Tree_val@U?$_Tree_simple_types@U?$pair@$$CBV?$basic_string@DU?$char_traits@D@std@@V?$allocator@D@2@@std@@V?$weak_ptr@VRawImageData@@@2@@std@@@std@@@2@$00@std@@QBEABV?$allocator@U?$_Tree_node@U?$pair@$$CBV?$basic_string@DU?$char_traits@D@std@@V?$allocator@D@2@@std@@V?$weak_ptr@VRawImageData@@@2@@std@@PAX@std@@@2@XZ 0040e290 f i DraggingDemo.obj
 0001:0000d2b0       ?_Get_scary@?$_Tree@V?$_Tmap_traits@V?$basic_string@DU?$char_traits@D@std@@V?$allocator@D@2@@std@@V?$shared_ptr@VRawImageData@@@2@U?$less@V?$basic_string@DU?$char_traits@D@std@@V?$allocator@D@2@@std@@@2@V?$allocator@U?$pair@$$CBV?$basic_string@DU?$char_traits@D@std@@V?$allocator@D@2@@std@@V?$shared_ptr@VRawImageData@@@2@@std@@@2@$0A@@std@@@std@@IAEPAV?$_Tree_val@U?$_Tree_simple_types@U?$pair@$$CBV?$basic_string@DU?$char_traits@D@std@@V?$allocator@D@2@@std@@V?$shared_ptr@VRawImageData@@@2@@std@@@std@@@2@XZ 0040e2b0 f i DraggingDemo.obj
 0001:0000d2d0       ?_Get_scary@?$_Tree@V?$_Tmap_traits@V?$basic_string@DU?$char_traits@D@std@@V?$allocator@D@2@@std@@V?$shared_ptr@VRawImageData@@@2@U?$less@V?$basic_string@DU?$char_traits@D@std@@V?$allocator@D@2@@std@@@2@V?$allocator@U?$pair@$$CBV?$basic_string@DU?$char_traits@D@std@@V?$allocator@D@2@@std@@V?$shared_ptr@VRawImageData@@@2@@std@@@2@$0A@@std@@@std@@IBEPBV?$_Tree_val@U?$_Tree_simple_types@U?$pair@$$CBV?$basic_string@DU?$char_traits@D@std@@V?$allocator@D@2@@std@@V?$shared_ptr@VRawImageData@@@2@@std@@@std@@@2@XZ 0040e2d0 f i DraggingDemo.obj
 0001:0000d2f0       ?_Get_scary@?$_Tree@V?$_Tmap_traits@V?$basic_string@DU?$char_traits@D@std@@V?$allocator@D@2@@std@@V?$weak_ptr@VRawImageData@@@2@U?$less@V?$basic_string@DU?$char_traits@D@std@@V?$allocator@D@2@@std@@@2@V?$allocator@U?$pair@$$CBV?$basic_string@DU?$char_traits@D@std@@V?$allocator@D@2@@std@@V?$weak_ptr@VRawImageData@@@2@@std@@@2@$0A@@std@@@std@@IAEPAV?$_Tree_val@U?$_Tree_simple_types@U?$pair@$$CBV?$basic_string@DU?$char_traits@D@std@@V?$allocator@D@2@@std@@V?$weak_ptr@VRawImageData@@@2@@std@@@std@@@2@XZ 0040e2f0 f i DraggingDemo.obj
 0001:0000d310       ?_Get_scary@?$_Tree@V?$_Tmap_traits@V?$basic_string@DU?$char_traits@D@std@@V?$allocator@D@2@@std@@V?$weak_ptr@VRawImageData@@@2@U?$less@V?$basic_string@DU?$char_traits@D@std@@V?$allocator@D@2@@std@@@2@V?$allocator@U?$pair@$$CBV?$basic_string@DU?$char_traits@D@std@@V?$allocator@D@2@@std@@V?$weak_ptr@VRawImageData@@@2@@std@@@2@$0A@@std@@@std@@IBEPBV?$_Tree_val@U?$_Tree_simple_types@U?$pair@$$CBV?$basic_string@DU?$char_traits@D@std@@V?$allocator@D@2@@std@@V?$weak_ptr@VRawImageData@@@2@@std@@@std@@@2@XZ 0040e310 f i DraggingDemo.obj
 0001:0000d330       ?_Getal@?$_Tree@V?$_Tmap_traits@V?$basic_string@DU?$char_traits@D@std@@V?$allocator@D@2@@std@@V?$shared_ptr@VRawImageData@@@2@U?$less@V?$basic_string@DU?$char_traits@D@std@@V?$allocator@D@2@@std@@@2@V?$allocator@U?$pair@$$CBV?$basic_string@DU?$char_traits@D@std@@V?$allocator@D@2@@std@@V?$shared_ptr@VRawImageData@@@2@@std@@@2@$0A@@std@@@std@@IAEAAV?$allocator@U?$_Tree_node@U?$pair@$$CBV?$basic_string@DU?$char_traits@D@std@@V?$allocator@D@2@@std@@V?$shared_ptr@VRawImageData@@@2@@std@@PAX@std@@@2@XZ 0040e330 f i DraggingDemo.obj
 0001:0000d350       ?_Getal@?$_Tree@V?$_Tmap_traits@V?$basic_string@DU?$char_traits@D@std@@V?$allocator@D@2@@std@@V?$shared_ptr@VRawImageData@@@2@U?$less@V?$basic_string@DU?$char_traits@D@std@@V?$allocator@D@2@@std@@@2@V?$allocator@U?$pair@$$CBV?$basic_string@DU?$char_traits@D@std@@V?$allocator@D@2@@std@@V?$shared_ptr@VRawImageData@@@2@@std@@@2@$0A@@std@@@std@@IBEABV?$allocator@U?$_Tree_node@U?$pair@$$CBV?$basic_string@DU?$char_traits@D@std@@V?$allocator@D@2@@std@@V?$shared_ptr@VRawImageData@@@2@@std@@PAX@std@@@2@XZ 0040e350 f i DraggingDemo.obj
 0001:0000d370       ?_Getal@?$_Tree@V?$_Tmap_traits@V?$basic_string@DU?$char_traits@D@std@@V?$allocator@D@2@@std@@V?$weak_ptr@VRawImageData@@@2@U?$less@V?$basic_string@DU?$char_traits@D@std@@V?$allocator@D@2@@std@@@2@V?$allocator@U?$pair@$$CBV?$basic_string@DU?$char_traits@D@std@@V?$allocator@D@2@@std@@V?$weak_ptr@VRawImageData@@@2@@std@@@2@$0A@@std@@@std@@IAEAAV?$allocator@U?$_Tree_node@U?$pair@$$CBV?$basic_string@DU?$char_traits@D@std@@V?$allocator@D@2@@std@@V?$weak_ptr@VRawImageData@@@2@@std@@PAX@std@@@2@XZ 0040e370 f i DraggingDemo.obj
 0001:0000d390       ?_Getal@?$_Tree@V?$_Tmap_traits@V?$basic_string@DU?$char_traits@D@std@@V?$allocator@D@2@@std@@V?$weak_ptr@VRawImageData@@@2@U?$less@V?$basic_string@DU?$char_traits@D@std@@V?$allocator@D@2@@std@@@2@V?$allocator@U?$pair@$$CBV?$basic_string@DU?$char_traits@D@std@@V?$allocator@D@2@@std@@V?$weak_ptr@VRawImageData@@@2@@std@@@2@$0A@@std@@@std@@IBEABV?$allocator@U?$_Tree_node@U?$pair@$$CBV?$basic_string@DU?$char_traits@D@std@@V?$allocator@D@2@@std@@V?$weak_ptr@VRawImageData@@@2@@std@@PAX@std@@@2@XZ 0040e390 f i DraggingDemo.obj
 0001:0000d3b0       ?_Getal@?$basic_string@DU?$char_traits@D@std@@V?$allocator@D@2@@std@@AAEAAV?$allocator@D@2@XZ 0040e3b0 f i DraggingDemo.obj
 0001:0000d3d0       ?_Getal@?$basic_string@DU?$char_traits@D@std@@V?$allocator@D@2@@std@@ABEABV?$allocator@D@2@XZ 0040e3d0 f i DraggingDemo.obj
 0001:0000d3f0       ?_Getal@?$vector@PAVDisplayableObject@@V?$allocator@PAVDisplayableObject@@@std@@@std@@AAEAAV?$allocator@PAVDisplayableObject@@@2@XZ 0040e3f0 f i DraggingDemo.obj
 0001:0000d410       ?_Getal@?$vector@PAVDisplayableObject@@V?$allocator@PAVDisplayableObject@@@std@@@std@@ABEABV?$allocator@PAVDisplayableObject@@@2@XZ 0040e410 f i DraggingDemo.obj
 0001:0000d430       ?_Getcomp@?$_Tree@V?$_Tmap_traits@V?$basic_string@DU?$char_traits@D@std@@V?$allocator@D@2@@std@@V?$shared_ptr@VRawImageData@@@2@U?$less@V?$basic_string@DU?$char_traits@D@std@@V?$allocator@D@2@@std@@@2@V?$allocator@U?$pair@$$CBV?$basic_string@DU?$char_traits@D@std@@V?$allocator@D@2@@std@@V?$shared_ptr@VRawImageData@@@2@@std@@@2@$0A@@std@@@std@@IBEABU?$less@V?$basic_string@DU?$char_traits@D@std@@V?$allocator@D@2@@std@@@2@XZ 0040e430 f i DraggingDemo.obj
 0001:0000d450       ?_Getcomp@?$_Tree@V?$_Tmap_traits@V?$basic_string@DU?$char_traits@D@std@@V?$allocator@D@2@@std@@V?$weak_ptr@VRawImageData@@@2@U?$less@V?$basic_string@DU?$char_traits@D@std@@V?$allocator@D@2@@std@@@2@V?$allocator@U?$pair@$$CBV?$basic_string@DU?$char_traits@D@std@@V?$allocator@D@2@@std@@V?$weak_ptr@VRawImageData@@@2@@std@@@2@$0A@@std@@@std@@IBEABU?$less@V?$basic_string@DU?$char_traits@D@std@@V?$allocator@D@2@@std@@@2@XZ 0040e450 f i DraggingDemo.obj
 0001:0000d470       ?_Getcont@_Iterator_base12@std@@QBEPBU_Container_base12@2@XZ 0040e470 f i DraggingDemo.obj
 0001:0000d4b0       ?_Incref@?$_Ptr_base@VRawImageData@@@std@@IBEXXZ 0040e4b0 f i DraggingDemo.obj
 0001:0000d4e0       ?_Incref@_Ref_count_base@std@@QAEXXZ 0040e4e0 f i DraggingDemo.obj
 0001:0000d500       ?_Incref_nz@_Ref_count_base@std@@QAE_NXZ 0040e500 f i DraggingDemo.obj
 0001:0000d570       ?_Incwref@_Ref_count_base@std@@QAEXXZ 0040e570 f i DraggingDemo.obj
 0001:0000d590       ?_Insert_node@?$_Tree_val@U?$_Tree_simple_types@U?$pair@$$CBV?$basic_string@DU?$char_traits@D@std@@V?$allocator@D@2@@std@@V?$shared_ptr@VRawImageData@@@2@@std@@@std@@@std@@QAEPAU?$_Tree_node@U?$pair@$$CBV?$basic_string@DU?$char_traits@D@std@@V?$allocator@D@2@@std@@V?$shared_ptr@VRawImageData@@@2@@std@@PAX@2@U?$_Tree_id@PAU?$_Tree_node@U?$pair@$$CBV?$basic_string@DU?$char_traits@D@std@@V?$allocator@D@2@@std@@V?$shared_ptr@VRawImageData@@@2@@std@@PAX@std@@@2@QAU32@@Z 0040e590 f i DraggingDemo.obj
 0001:0000d7a0       ??0?$initializer_list@I@std@@QAE@PBI0@Z 0040e7a0 f i MovingText.obj
 0001:0000d7d0       ?max_size@?$vector@V?$basic_string@DU?$char_traits@D@std@@V?$allocator@D@2@@std@@V?$allocator@V?$basic_string@DU?$char_traits@D@std@@V?$allocator@D@2@@std@@@2@@std@@QBEIXZ 0040e7d0 f i MovingText.obj
 0001:0000d820       ?_Insert_node@?$_Tree_val@U?$_Tree_simple_types@U?$pair@$$CBV?$basic_string@DU?$char_traits@D@std@@V?$allocator@D@2@@std@@V?$weak_ptr@VRawImageData@@@2@@std@@@std@@@std@@QAEPAU?$_Tree_node@U?$pair@$$CBV?$basic_string@DU?$char_traits@D@std@@V?$allocator@D@2@@std@@V?$weak_ptr@VRawImageData@@@2@@std@@PAX@2@U?$_Tree_id@PAU?$_Tree_node@U?$pair@$$CBV?$basic_string@DU?$char_traits@D@std@@V?$allocator@D@2@@std@@V?$weak_ptr@VRawImageData@@@2@@std@@PAX@std@@@2@QAU32@@Z 0040e820 f i DraggingDemo.obj
 0001:0000da30       ??_G?$basic_string@DU?$char_traits@D@std@@V?$allocator@D@2@@std@@QAEPAXI@Z 0040ea30 f i MovingText.obj
 0001:0000dab0       ?_Large_string_engaged@?$_String_val@U?$_Simple_types@D@std@@@std@@QBE_NXZ 0040eab0 f i DraggingDemo.obj
 0001:0000daf0       ?_Lrotate@?$_Tree_val@U?$_Tree_simple_types@U?$pair@$$CBV?$basic_string@DU?$char_traits@D@std@@V?$allocator@D@2@@std@@V?$shared_ptr@VRawImageData@@@2@@std@@@std@@@std@@QAEXPAU?$_Tree_node@U?$pair@$$CBV?$basic_string@DU?$char_traits@D@std@@V?$allocator@D@2@@std@@V?$shared_ptr@VRawImageData@@@2@@std@@PAX@2@@Z 0040eaf0 f i DraggingDemo.obj
 0001:0000dbb0       ?_Lrotate@?$_Tree_val@U?$_Tree_simple_types@U?$pair@$$CBV?$basic_string@DU?$char_traits@D@std@@V?$allocator@D@2@@std@@V?$weak_ptr@VRawImageData@@@2@@std@@@std@@@std@@QAEXPAU?$_Tree_node@U?$pair@$$CBV?$basic_string@DU?$char_traits@D@std@@V?$allocator@D@2@@std@@V?$weak_ptr@VRawImageData@@@2@@std@@PAX@2@@Z 0040ebb0 f i DraggingDemo.obj
 0001:0000dc70       ?_Max@?$_Tree_val@U?$_Tree_simple_types@U?$pair@$$CBV?$basic_string@DU?$char_traits@D@std@@V?$allocator@D@2@@std@@V?$weak_ptr@VRawImageData@@@2@@std@@@std@@@std@@SAPAU?$_Tree_node@U?$pair@$$CBV?$basic_string@DU?$char_traits@D@std@@V?$allocator@D@2@@std@@V?$weak_ptr@VRawImageData@@@2@@std@@PAX@2@PAU32@@Z 0040ec70 f i DraggingDemo.obj
 0001:0000dca0       ?_Memcpy_val_from@?$basic_string@DU?$char_traits@D@std@@V?$allocator@D@2@@std@@AAEXABV12@@Z 0040eca0 f i DraggingDemo.obj
 0001:0000dd00       ?_Min@?$_Tree_val@U?$_Tree_simple_types@U?$pair@$$CBV?$basic_string@DU?$char_traits@D@std@@V?$allocator@D@2@@std@@V?$weak_ptr@VRawImageData@@@2@@std@@@std@@@std@@SAPAU?$_Tree_node@U?$pair@$$CBV?$basic_string@DU?$char_traits@D@std@@V?$allocator@D@2@@std@@V?$weak_ptr@VRawImageData@@@2@@std@@PAX@2@PAU32@@Z 0040ed00 f i DraggingDemo.obj
 0001:0000dd30       ?_Myptr@?$_String_val@U?$_Simple_types@D@std@@@std@@QBEPBDXZ 0040ed30 f i DraggingDemo.obj
 0001:0000dd80       ?_Orphan_all@_Container_base12@std@@QAEXXZ 0040ed80 f i DraggingDemo.obj
 0001:0000dda0       ?_Orphan_all_locked_v3@_Container_base12@std@@AAEXXZ 0040eda0 f i DraggingDemo.obj
 0001:0000dde0       ?_Orphan_all_unlocked_v3@_Container_base12@std@@AAEXXZ 0040ede0 f i DraggingDemo.obj
 0001:0000de50       ?_Orphan_me_locked_v3@_Iterator_base12@std@@AAEXXZ 0040ee50 f i DraggingDemo.obj
 0001:0000de90       ?_Orphan_me_unlocked_v3@_Iterator_base12@std@@AAEXXZ 0040ee90 f i DraggingDemo.obj
 0001:0000df70       ?_Orphan_ptr@?$_Tree_val@U?$_Tree_simple_types@U?$pair@$$CBV?$basic_string@DU?$char_traits@D@std@@V?$allocator@D@2@@std@@V?$weak_ptr@VRawImageData@@@2@@std@@@std@@@std@@QAEXQAU?$_Tree_node@U?$pair@$$CBV?$basic_string@DU?$char_traits@D@std@@V?$allocator@D@2@@std@@V?$weak_ptr@VRawImageData@@@2@@std@@PAX@2@@Z 0040ef70 f i DraggingDemo.obj
 0001:0000e020       ?_Orphan_range@?$vector@PAVDisplayableObject@@V?$allocator@PAVDisplayableObject@@@std@@@std@@ABEXPAPAVDisplayableObject@@0@Z 0040f020 f i DraggingDemo.obj
 0001:0000e050       ?_Orphan_range_locked@?$vector@PAVDisplayableObject@@V?$allocator@PAVDisplayableObject@@@std@@@std@@ABEXPAPAVDisplayableObject@@0@Z 0040f050 f i DraggingDemo.obj
 0001:0000e0e0       ?_Orphan_range_unlocked@?$vector@PAVDisplayableObject@@V?$allocator@PAVDisplayableObject@@@std@@@std@@ABEXPAPAVDisplayableObject@@0@Z 0040f0e0 f i DraggingDemo.obj
 0001:0000e160       ?_Release@?$_Alloc_construct_ptr@V?$allocator@U?$_Tree_node@U?$pair@$$CBV?$basic_string@DU?$char_traits@D@std@@V?$allocator@D@2@@std@@V?$shared_ptr@VRawImageData@@@2@@std@@PAX@std@@@std@@@std@@QAEPAU?$_Tree_node@U?$pair@$$CBV?$basic_string@DU?$char_traits@D@std@@V?$allocator@D@2@@std@@V?$shared_ptr@VRawImageData@@@2@@std@@PAX@2@XZ 0040f160 f i DraggingDemo.obj
 0001:0000e190       ?_Release@?$_Alloc_construct_ptr@V?$allocator@U?$_Tree_node@U?$pair@$$CBV?$basic_string@DU?$char_traits@D@std@@V?$allocator@D@2@@std@@V?$weak_ptr@VRawImageData@@@2@@std@@PAX@std@@@std@@@std@@QAEPAU?$_Tree_node@U?$pair@$$CBV?$basic_string@DU?$char_traits@D@std@@V?$allocator@D@2@@std@@V?$weak_ptr@VRawImageData@@@2@@std@@PAX@2@XZ 0040f190 f i DraggingDemo.obj
 0001:0000e1c0       ?_Release@?$_Uninitialized_backout_al@V?$allocator@PAVDisplayableObject@@@std@@@std@@QAEPAPAVDisplayableObject@@XZ 0040f1c0 f i DraggingDemo.obj
 0001:0000e1f0       ?_Release@_Basic_container_proxy_ptr12@std@@QAEXXZ 0040f1f0 f i DraggingDemo.obj
 0001:0000e210       ?_Rrotate@?$_Tree_val@U?$_Tree_simple_types@U?$pair@$$CBV?$basic_string@DU?$char_traits@D@std@@V?$allocator@D@2@@std@@V?$shared_ptr@VRawImageData@@@2@@std@@@std@@@std@@QAEXPAU?$_Tree_node@U?$pair@$$CBV?$basic_string@DU?$char_traits@D@std@@V?$allocator@D@2@@std@@V?$shared_ptr@VRawImageData@@@2@@std@@PAX@2@@Z 0040f210 f i DraggingDemo.obj
 0001:0000e2e0       ?_Rrotate@?$_Tree_val@U?$_Tree_simple_types@U?$pair@$$CBV?$basic_string@DU?$char_traits@D@std@@V?$allocator@D@2@@std@@V?$weak_ptr@VRawImageData@@@2@@std@@@std@@@std@@QAEXPAU?$_Tree_node@U?$pair@$$CBV?$basic_string@DU?$char_traits@D@std@@V?$allocator@D@2@@std@@V?$weak_ptr@VRawImageData@@@2@@std@@PAX@2@@Z 0040f2e0 f i DraggingDemo.obj
 0001:0000e3b0       ?_Swap_proxy_and_iterators@?$basic_string@DU?$char_traits@D@std@@V?$allocator@D@2@@std@@AAEXAAV12@@Z 0040f3b0 f i DraggingDemo.obj
 0001:0000e3d0       ?_Swap_proxy_and_iterators@_Container_base12@std@@QAEXAAU12@@Z 0040f3d0 f i DraggingDemo.obj
 0001:0000e3f0       ?_Swap_proxy_and_iterators_locked@_Container_base12@std@@AAEXAAU12@@Z 0040f3f0 f i DraggingDemo.obj
 0001:0000e430       ?_Swap_proxy_and_iterators_unlocked@_Container_base12@std@@AAEXAAU12@@Z 0040f430 f i DraggingDemo.obj
 0001:0000e490       ?_Take_contents@?$basic_string@DU?$char_traits@D@std@@V?$allocator@D@2@@std@@AAEXAAV12@@Z 0040f490 f i DraggingDemo.obj
 0001:0000e5f0       ?_Throw_bad_array_new_length@std@@YAXXZ 0040f5f0 f i DraggingDemo.obj
 0001:0000e620       ?_Throw_tree_length_error@std@@YAXXZ 0040f620 f i DraggingDemo.obj
 0001:0000e640       ?_Tidy_deallocate@?$basic_string@DU?$char_traits@D@std@@V?$allocator@D@2@@std@@AAEXXZ 0040f640 f i DraggingDemo.obj
 0001:0000e750       ?_Tidy_init@?$basic_string@DU?$char_traits@D@std@@V?$allocator@D@2@@std@@AAEXXZ 0040f750 f i DraggingDemo.obj
 0001:0000e7c0       ?_Unwrapped@?$_Tree_iterator@V?$_Tree_val@U?$_Tree_simple_types@U?$pair@$$CBV?$basic_string@DU?$char_traits@D@std@@V?$allocator@D@2@@std@@V?$weak_ptr@VRawImageData@@@2@@std@@@std@@@std@@@std@@QBE?AV?$_Tree_unchecked_iterator@V?$_Tree_val@U?$_Tree_simple_types@U?$pair@$$CBV?$basic_string@DU?$char_traits@D@std@@V?$allocator@D@2@@std@@V?$weak_ptr@VRawImageData@@@2@@std@@@std@@@std@@@2@XZ 0040f7c0 f i DraggingDemo.obj
 0001:0000e800       ?_Use_count@_Ref_count_base@std@@QBEJXZ 0040f800 f i DraggingDemo.obj
 0001:0000e820       ?_Xlen_string@std@@YAXXZ   0040f820 f i DraggingDemo.obj
 0001:0000e840       ?_Xlength@?$vector@PAVDisplayableObject@@V?$allocator@PAVDisplayableObject@@@std@@@std@@CAXXZ 0040f840 f i DraggingDemo.obj
 0001:0000e860       ?__empty_global_delete@@YAXPAX@Z 0040f860 f i DraggingDemo.obj
 0001:0000e870       ?__empty_global_delete@@YAXPAXI@Z 0040f870 f i DraggingDemo.obj
 0001:0000e870       ?__global_delete@@YAXPAXI@Z 0040f870 f i DraggingDemo.obj
 0001:0000e880       ?allocate@?$allocator@D@std@@QAEPADI@Z 0040f880 f i DraggingDemo.obj
 0001:0000e8b0       ?allocate@?$allocator@PAVDisplayableObject@@@std@@QAEPAPAVDisplayableObject@@I@Z 0040f8b0 f i DraggingDemo.obj
 0001:0000e8e0       ?allocate@?$allocator@U?$_Tree_node@U?$pair@$$CBV?$basic_string@DU?$char_traits@D@std@@V?$allocator@D@2@@std@@V?$shared_ptr@VRawImageData@@@2@@std@@PAX@std@@@std@@QAEPAU?$_Tree_node@U?$pair@$$CBV?$basic_string@DU?$char_traits@D@std@@V?$allocator@D@2@@std@@V?$shared_ptr@VRawImageData@@@2@@std@@PAX@2@I@Z 0040f8e0 f i DraggingDemo.obj
 0001:0000e910       ?allocate@?$allocator@U?$_Tree_node@U?$pair@$$CBV?$basic_string@DU?$char_traits@D@std@@V?$allocator@D@2@@std@@V?$weak_ptr@VRawImageData@@@2@@std@@PAX@std@@@std@@QAEPAU?$_Tree_node@U?$pair@$$CBV?$basic_string@DU?$char_traits@D@std@@V?$allocator@D@2@@std@@V?$weak_ptr@VRawImageData@@@2@@std@@PAX@2@I@Z 0040f910 f i DraggingDemo.obj
 0001:0000e940       ?allocate@?$allocator@U_Container_proxy@std@@@std@@QAEPAU_Container_proxy@2@I@Z 0040f940 f i DraggingDemo.obj
 0001:0000e970       ?assign@?$_Narrow_char_traits@DH@std@@SAXAADABD@Z 0040f970 f i DraggingDemo.obj
 0001:0000e990       ?c_str@?$basic_string@DU?$char_traits@D@std@@V?$allocator@D@2@@std@@QBEPBDXZ 0040f990 f i DraggingDemo.obj
 0001:0000e9b0       ?capacity@?$vector@PAVDisplayableObject@@V?$allocator@PAVDisplayableObject@@@std@@@std@@QBEIXZ 0040f9b0 f i DraggingDemo.obj
 0001:0000e9e0       ?checkDoDrag@DragableBaseClassObject@@UAEXHH@Z 0040f9e0 f i DraggingDemo.obj
 0001:0000ea60       ?checkFinishDrag@DragableBaseClassObject@@UAEXHH@Z 0040fa60 f i DraggingDemo.obj
 0001:0000eaa0       ?checkStartDrag@DragableBaseClassObject@@UAEXHH@Z 0040faa0 f i DraggingDemo.obj
 0001:0000eb20       ?checkWritable@DrawingSurface@@QAEXXZ 0040fb20 f i DraggingDemo.obj
 0001:0000eb70       ?compare@?$_Narrow_char_traits@DH@std@@SAHQBD0I@Z 0040fb70 f i DraggingDemo.obj
 0001:0000eb90       ?compare@?$basic_string@DU?$char_traits@D@std@@V?$allocator@D@2@@std@@QBEHABV12@@Z 0040fb90 f i DraggingDemo.obj
 0001:0000ebe0       ?copy@?$_Char_traits@DH@std@@SAPADQADQBDI@Z 0040fbe0 f i DraggingDemo.obj
 0001:0000ec10       ?createObjectArray@DisplayableObjectContainer@@QAEXH@Z 0040fc10 f i DraggingDemo.obj
 0001:0000ec60       ?data@?$basic_string@DU?$char_traits@D@std@@V?$allocator@D@2@@std@@QBEPBDXZ 0040fc60 f i DraggingDemo.obj
 0001:0000ec80       ?deallocate@?$_Default_allocator_traits@V?$allocator@U?$_Tree_node@U?$pair@$$CBV?$basic_string@DU?$char_traits@D@std@@V?$allocator@D@2@@std@@V?$weak_ptr@VRawImageData@@@2@@std@@PAX@std@@@std@@@std@@SAXAAV?$allocator@U?$_Tree_node@U?$pair@$$CBV?$basic_string@DU?$char_traits@D@std@@V?$allocator@D@2@@std@@V?$weak_ptr@VRawImageData@@@2@@std@@PAX@std@@@2@QAU?$_Tree_node@U?$pair@$$CBV?$basic_string@DU?$char_traits@D@std@@V?$allocator@D@2@@std@@V?$weak_ptr@VRawImageData@@@2@@std@@PAX@2@I@Z 0040fc80 f i DraggingDemo.obj
 0001:0000eca0       ?deallocate@?$_Default_allocator_traits@V?$allocator@U_Container_proxy@std@@@std@@@std@@SAXAAV?$allocator@U_Container_proxy@std@@@2@QAU_Container_proxy@2@I@Z 0040fca0 f i DraggingDemo.obj
 0001:0000ecc0       ?deallocate@?$allocator@D@std@@QAEXQADI@Z 0040fcc0 f i DraggingDemo.obj
 0001:0000ed60       ?deallocate@?$allocator@PAVDisplayableObject@@@std@@QAEXQAPAVDisplayableObject@@I@Z 0040fd60 f i DraggingDemo.obj
 0001:0000ee00       ?deallocate@?$allocator@U?$_Tree_node@U?$pair@$$CBV?$basic_string@DU?$char_traits@D@std@@V?$allocator@D@2@@std@@V?$shared_ptr@VRawImageData@@@2@@std@@PAX@std@@@std@@QAEXQAU?$_Tree_node@U?$pair@$$CBV?$basic_string@DU?$char_traits@D@std@@V?$allocator@D@2@@std@@V?$shared_ptr@VRawImageData@@@2@@std@@PAX@2@I@Z 0040fe00 f i DraggingDemo.obj
 0001:0000eea0       ?deallocate@?$allocator@U?$_Tree_node@U?$pair@$$CBV?$basic_string@DU?$char_traits@D@std@@V?$allocator@D@2@@std@@V?$weak_ptr@VRawImageData@@@2@@std@@PAX@std@@@std@@QAEXQAU?$_Tree_node@U?$pair@$$CBV?$basic_string@DU?$char_traits@D@std@@V?$allocator@D@2@@std@@V?$weak_ptr@VRawImageData@@@2@@std@@PAX@2@I@Z 0040fea0 f i DraggingDemo.obj
 0001:0000ef40       ?deleteOnRemoval@DisplayableObject@@UBE_NXZ 0040ff40 f i DraggingDemo.obj
 0001:0000ef60       ?doDragRedraw@DragableBaseClassObject@@UAEXXZ 0040ff60 f i DraggingDemo.obj
 0001:0000ef80       ?drawableObjectsChanged@DisplayableObjectContainer@@QAEXXZ 0040ff80 f i DraggingDemo.obj
 0001:0000efa0       ?end@?$_Tree@V?$_Tmap_traits@V?$basic_string@DU?$char_traits@D@std@@V?$allocator@D@2@@std@@V?$weak_ptr@VRawImageData@@@2@U?$less@V?$basic_string@DU?$char_traits@D@std@@V?$allocator@D@2@@std@@@2@V?$allocator@U?$pair@$$CBV?$basic_string@DU?$char_traits@D@std@@V?$allocator@D@2@@std@@V?$weak_ptr@VRawImageData@@@2@@std@@@2@$0A@@std@@@std@@QAE?AV?$_Tree_iterator@V?$_Tree_val@U?$_Tree_simple_types@U?$pair@$$CBV?$basic_string@DU?$char_traits@D@std@@V?$allocator@D@2@@std@@V?$weak_ptr@VRawImageData@@@2@@std@@@std@@@std@@@2@XZ 0040ffa0 f i DraggingDemo.obj
 0001:0000efe0       ?eof@?$_Narrow_char_traits@DH@std@@SAHXZ 0040ffe0 f i DraggingDemo.obj
 0001:0000eff0       ?eq_int_type@?$_Narrow_char_traits@DH@std@@SA_NABH0@Z 0040fff0 f i DraggingDemo.obj
 0001:0000f020       ?expired@?$weak_ptr@VRawImageData@@@std@@QBE_NXZ 00410020 f i DraggingDemo.obj
 0001:0000f060       ?find@?$_Tree@V?$_Tmap_traits@V?$basic_string@DU?$char_traits@D@std@@V?$allocator@D@2@@std@@V?$weak_ptr@VRawImageData@@@2@U?$less@V?$basic_string@DU?$char_traits@D@std@@V?$allocator@D@2@@std@@@2@V?$allocator@U?$pair@$$CBV?$basic_string@DU?$char_traits@D@std@@V?$allocator@D@2@@std@@V?$weak_ptr@VRawImageData@@@2@@std@@@2@$0A@@std@@@std@@QAE?AV?$_Tree_iterator@V?$_Tree_val@U?$_Tree_simple_types@U?$pair@$$CBV?$basic_string@DU?$char_traits@D@std@@V?$allocator@D@2@@std@@V?$weak_ptr@VRawImageData@@@2@@std@@@std@@@std@@@2@ABV?$basic_string@DU?$char_traits@D@std@@V?$allocator@D@2@@2@@Z 00410060 f i DraggingDemo.obj
 0001:0000f0b0       ?freeSurface@RawImageData@@QAEXXZ 004100b0 f i DraggingDemo.obj
 0001:0000f130       ?get@?$_Ptr_base@VRawImageData@@@std@@IBEPAVRawImageData@@XZ 00410130 f i DraggingDemo.obj
 0001:0000f150       ?get@ImageManager@@SAPAV1@XZ 00410150 f i DraggingDemo.obj
 0001:0000f200       ?getEngine@DisplayableObject@@QBEPAVBaseEngine@@XZ 00410200 f i DraggingDemo.obj
 0001:0000f220       ?getForegroundSurface@BaseEngine@@QAEPAVDrawingSurface@@XZ 00410220 f i DraggingDemo.obj
 0001:0000f240       ?getHeight@RawImageData@@QBEHXZ 00410240 f i DraggingDemo.obj
 0001:0000f260       ?getHeight@SimpleImage@@QBEHXZ 00410260 f i DraggingDemo.obj
 0001:0000f290       ?getImagePtrbyURL@ImageManager@@QAE?AV?$shared_ptr@VRawImageData@@@std@@V?$basic_string@DU?$char_traits@D@std@@V?$allocator@D@2@@3@_N1@Z 00410290 f i DraggingDemo.obj
 0001:0000f5f0       ??1?$vector@IV?$allocator@I@std@@@std@@QAE@XZ 004105f0 f i MovingText.obj
 0001:0000f640       ??A?$vector@IV?$allocator@I@std@@@std@@QAEAAII@Z 00410640 f i MovingText.obj
 0001:0000f6d0       ?getImagebyURL@ImageManager@@QAE?AVSimpleImage@@V?$basic_string@DU?$char_traits@D@std@@V?$allocator@D@2@@std@@_N1@Z 004106d0 f i DraggingDemo.obj
 0001:0000f7a0       ?getIntsPerWindowRow@DrawingSurface@@QBEIXZ 004107a0 f i DraggingDemo.obj
 0001:0000f7c0       ?getSurfaceHeight@DrawingSurface@@QBEHXZ 004107c0 f i DraggingDemo.obj
 0001:0000f7e0       ?getSurfaceWidth@DrawingSurface@@QBEHXZ 004107e0 f i DraggingDemo.obj
 0001:0000f800       ?getWidth@RawImageData@@QBEHXZ 00410800 f i DraggingDemo.obj
 0001:0000f820       ?getWidth@SimpleImage@@QBEHXZ 00410820 f i DraggingDemo.obj
 0001:0000f850       ?getWindowHeight@BaseEngine@@QBEHXZ 00410850 f i DraggingDemo.obj
 0001:0000f870       ?getWindowWidth@BaseEngine@@QBEHXZ 00410870 f i DraggingDemo.obj
 0001:0000f890       ?getXForRotationAndCrop@RawImageData@@SAHHHHHHH@Z 00410890 f i DraggingDemo.obj
 0001:0000f900       ?getYForRotationAndCrop@RawImageData@@SAHHHHHHH@Z 00410900 f i DraggingDemo.obj
 0001:0000f970       ?isVisible@DisplayableObject@@QBE_NXZ 00410970 f i DraggingDemo.obj
 0001:0000f990       ?length@?$_Narrow_char_traits@DH@std@@SAIQBD@Z 00410990 f i DraggingDemo.obj
 0001:0000f9b0       ?loadAsNew@ImageManager@@QAE?AV?$shared_ptr@VRawImageData@@@std@@V?$basic_string@DU?$char_traits@D@std@@V?$allocator@D@2@@3@@Z 004109b0 f i DraggingDemo.obj
 0001:0000fb80       ?loadImage@RawImageData@@QAE_NV?$basic_string@DU?$char_traits@D@std@@V?$allocator@D@2@@std@@HHHHH_N@Z 00410b80 f i DraggingDemo.obj
 0001:0000fdf0       ??_EMovingText@@UAEPAXI@Z  00410df0 f i MovingText.obj
 0001:0000fdf0       ??_GMovingText@@UAEPAXI@Z  00410df0 f i MovingText.obj
 0001:0000fe30       ?_Calculate_growth@?$vector@V?$basic_string@DU?$char_traits@D@std@@V?$allocator@D@2@@std@@V?$allocator@V?$basic_string@DU?$char_traits@D@std@@V?$allocator@D@2@@std@@@2@@std@@ABEII@Z 00410e30 f i MovingText.obj
 0001:0000fe90       ?lock@?$weak_ptr@VRawImageData@@@std@@QBE?AV?$shared_ptr@VRawImageData@@@2@XZ 00410e90 f i DraggingDemo.obj
 0001:0000fee0       ?max@?$numeric_limits@H@std@@SAHXZ 00410ee0 f i DraggingDemo.obj
 0001:0000fef0       ?max_size@?$_Default_allocator_traits@V?$allocator@D@std@@@std@@SAIABV?$allocator@D@2@@Z 00410ef0 f i DraggingDemo.obj
 0001:0000ff00       ?max_size@?$_Default_allocator_traits@V?$allocator@PAVDisplayableObject@@@std@@@std@@SAIABV?$allocator@PAVDisplayableObject@@@2@@Z 00410f00 f i DraggingDemo.obj
 0001:0000ff10       ?max_size@?$_Default_allocator_traits@V?$allocator@U?$_Tree_node@U?$pair@$$CBV?$basic_string@DU?$char_traits@D@std@@V?$allocator@D@2@@std@@V?$shared_ptr@VRawImageData@@@2@@std@@PAX@std@@@std@@@std@@SAIABV?$allocator@U?$_Tree_node@U?$pair@$$CBV?$basic_string@DU?$char_traits@D@std@@V?$allocator@D@2@@std@@V?$shared_ptr@VRawImageData@@@2@@std@@PAX@std@@@2@@Z 00410f10 f i DraggingDemo.obj
 0001:0000ff20       ?max_size@?$_Default_allocator_traits@V?$allocator@U?$_Tree_node@U?$pair@$$CBV?$basic_string@DU?$char_traits@D@std@@V?$allocator@D@2@@std@@V?$weak_ptr@VRawImageData@@@2@@std@@PAX@std@@@std@@@std@@SAIABV?$allocator@U?$_Tree_node@U?$pair@$$CBV?$basic_string@DU?$char_traits@D@std@@V?$allocator@D@2@@std@@V?$weak_ptr@VRawImageData@@@2@@std@@PAX@std@@@2@@Z 00410f20 f i DraggingDemo.obj
 0001:0000ff30       ?max_size@?$_Tree@V?$_Tmap_traits@V?$basic_string@DU?$char_traits@D@std@@V?$allocator@D@2@@std@@V?$shared_ptr@VRawImageData@@@2@U?$less@V?$basic_string@DU?$char_traits@D@std@@V?$allocator@D@2@@std@@@2@V?$allocator@U?$pair@$$CBV?$basic_string@DU?$char_traits@D@std@@V?$allocator@D@2@@std@@V?$shared_ptr@VRawImageData@@@2@@std@@@2@$0A@@std@@@std@@QBEIXZ 00410f30 f i DraggingDemo.obj
 0001:0000ff80       ?max_size@?$_Tree@V?$_Tmap_traits@V?$basic_string@DU?$char_traits@D@std@@V?$allocator@D@2@@std@@V?$weak_ptr@VRawImageData@@@2@U?$less@V?$basic_string@DU?$char_traits@D@std@@V?$allocator@D@2@@std@@@2@V?$allocator@U?$pair@$$CBV?$basic_string@DU?$char_traits@D@std@@V?$allocator@D@2@@std@@V?$weak_ptr@VRawImageData@@@2@@std@@@2@$0A@@std@@@std@@QBEIXZ 00410f80 f i DraggingDemo.obj
 0001:0000ffd0       ?max_size@?$basic_string@DU?$char_traits@D@std@@V?$allocator@D@2@@std@@QBEIXZ 00410fd0 f i DraggingDemo.obj
 0001:00010050       ?max_size@?$vector@PAVDisplayableObject@@V?$allocator@PAVDisplayableObject@@@std@@@std@@QBEIXZ 00411050 f i DraggingDemo.obj
 0001:000100a0       ?move@?$_Char_traits@DH@std@@SAPADQADQBDI@Z 004110a0 f i DraggingDemo.obj
 0001:000100d0       ?notifyObjectsAboutMouse@BaseEngine@@QAEX_N@Z 004110d0 f i DraggingDemo.obj
 0001:000100f0       ?pointer_to@?$pointer_traits@PAU?$pair@$$CBV?$basic_string@DU?$char_traits@D@std@@V?$allocator@D@2@@std@@V?$weak_ptr@VRawImageData@@@2@@std@@@std@@SAPAU?$pair@$$CBV?$basic_string@DU?$char_traits@D@std@@V?$allocator@D@2@@std@@V?$weak_ptr@VRawImageData@@@2@@2@AAU32@@Z 004110f0 f i DraggingDemo.obj
 0001:00010110       ?rawSetPixel@DrawingSurface@@QAEXHHI@Z 00411110 f i DraggingDemo.obj
 0001:000101c0       ?resize@?$vector@PAVDisplayableObject@@V?$allocator@PAVDisplayableObject@@@std@@@std@@QAEXI@Z 004111c0 f i DraggingDemo.obj
 0001:000101f0       ?select_on_container_copy_construction@?$_Default_allocator_traits@V?$allocator@D@std@@@std@@SA?AV?$allocator@D@2@ABV32@@Z 004111f0 f i DraggingDemo.obj
 0001:00010200       ?setBackgroundPixel@BaseEngine@@QAEXHHI@Z 00411200 f i DraggingDemo.obj
 0001:00010230       ?setExitWithCode@BaseEngine@@QAEXH@Z 00411230 f i DraggingDemo.obj
 0001:00010250       ?setPixel@DrawingSurface@@QAEXHHI@Z 00411250 f i DraggingDemo.obj
 0001:000102c0       ?setPosition@DisplayableObject@@UAEXHH@Z 004112c0 f i DraggingDemo.obj
 0001:00010300       ?setVisible@DisplayableObject@@QAEX_N@Z 00411300 f i DraggingDemo.obj
 0001:00010320       ?size@?$basic_string@DU?$char_traits@D@std@@V?$allocator@D@2@@std@@QBEIXZ 00411320 f i DraggingDemo.obj
 0001:00010340       ?storeObjectInArray@DisplayableObjectContainer@@QAEXHPAVDisplayableObject@@@Z 00411340 f i DraggingDemo.obj
 0001:00010380       ?use_count@?$_Ptr_base@VRawImageData@@@std@@QBEJXZ 00411380 f i DraggingDemo.obj
 0001:000103c0       ?virtDraw@DragableImageObject@@UAEXXZ 004113c0 f i DraggingDemo.obj
 0001:00010440       ?virtDraw@ImageObject@@UAEXXZ 00411440 f i DraggingDemo.obj
 0001:000104c0       ?virtIsPositionWithinObject@DisplayableObject@@UAE_NHH@Z 004114c0 f i DraggingDemo.obj
 0001:00010550       ?virtKeyDown@DisplayableObject@@UAEXH@Z 00411550 f i DraggingDemo.obj
 0001:00010560       ?virtKeyUp@DisplayableObject@@UAEXH@Z 00411560 f i DraggingDemo.obj
 0001:00010570       ?virtMouseDown@DisplayableObject@@UAEXHHH@Z 00411570 f i DraggingDemo.obj
 0001:00010580       ?virtMouseDown@DragableImageObject@@UAEXHHH@Z 00411580 f i DraggingDemo.obj
 0001:000105b0       ?virtMouseDown@DragableObject@@UAEXHHH@Z 004115b0 f i DraggingDemo.obj
 0001:000105e0       ?virtMouseMoved@DisplayableObject@@UAEXHH@Z 004115e0 f i DraggingDemo.obj
 0001:000105f0       ?virtMouseMoved@DragableImageObject@@UAEXHH@Z 004115f0 f i DraggingDemo.obj
 0001:00010620       ?virtMouseMoved@DragableObject@@UAEXHH@Z 00411620 f i DraggingDemo.obj
 0001:00010650       ?virtMouseUp@DisplayableObject@@UAEXHHH@Z 00411650 f i DraggingDemo.obj
 0001:00010660       ?virtMouseUp@DragableImageObject@@UAEXHHH@Z 00411660 f i DraggingDemo.obj
 0001:00010690       ?virtMouseUp@DragableObject@@UAEXHHH@Z 00411690 f i DraggingDemo.obj
 0001:000106d0       ?virtNotify@DisplayableObject@@UAEJHHH@Z 004116d0 f i DraggingDemo.obj
 0001:000106f0       ?virtSingleItemMouseDown@DisplayableObject@@UAE_NHHH@Z 004116f0 f i DraggingDemo.obj
 0001:00010710       ?what@exception@std@@UBEPBDXZ 00411710 f i DraggingDemo.obj
 0001:00010750       ___local_stdio_printf_options 00411750 f i DraggingDemo.obj
 0001:00010760       __vfprintf_l               00411760 f i DraggingDemo.obj
 0001:000107a0       _printf                    004117a0 f i DraggingDemo.obj
 0001:000107f0       ??0DrawingSurface@@QAE@PAVBaseEngine@@@Z 004117f0 f   DrawingSurface.obj
 0001:00010890       ?drawLine@DrawingSurface@@QAEXNNNNI@Z 00411890 f   DrawingSurface.obj
 0001:00010a70       ?drawThickLine@DrawingSurface@@QAEXNNNNIH@Z 00411a70 f   DrawingSurface.obj
 0001:00010f10       ?drawVerticalSidedRegion@DrawingSurface@@QAEXNNNNNNI@Z 00411f10 f   DrawingSurface.obj
 0001:000112b0       ?drawRectangle@DrawingSurface@@QAEXHHHHI@Z 004122b0 f   DrawingSurface.obj
 0001:000113c0       ?drawOval@DrawingSurface@@QAEXHHHHI@Z 004123c0 f   DrawingSurface.obj
 0001:00011590       ?rawDrawOval@DrawingSurface@@QAEXHHHHI@Z 00412590 f   DrawingSurface.obj
 0001:000116f0       ?drawHollowOval@DrawingSurface@@QAEXHHHHHHHHI@Z 004126f0 f   DrawingSurface.obj
 0001:00011a10       ?drawPolygon@DrawingSurface@@QAEXHPAN0I@Z 00412a10 f   DrawingSurface.obj
 0001:00012190       ?drawFastString@DrawingSurface@@QAEXHHPBDIPAVFont@@@Z 00413190 f   DrawingSurface.obj
 0001:00012280       ?drawScalableString@DrawingSurface@@QAEXHHPBDIPAVFont@@@Z 00413280 f   DrawingSurface.obj
 0001:00012450       ?drawShortenedArrow@DrawingSurface@@QAEXHHHHHHIHH@Z 00413450 f   DrawingSurface.obj
 0001:000129d0       ?drawShortenedLine@DrawingSurface@@QAEXHHHHHHIH@Z 004139d0 f   DrawingSurface.obj
 0001:00012dd0       ?drawTriangle@DrawingSurface@@QAEXNNNNNNI@Z 00413dd0 f   DrawingSurface.obj
 0001:00013120       ?copyEntireSurface@DrawingSurface@@QAEXPAV1@@Z 00414120 f   DrawingSurface.obj
 0001:00013170       ?copyRectangleFrom@DrawingSurface@@QAEXPAV1@HHHHHH@Z 00414170 f   DrawingSurface.obj
 0001:00013370       ?getAngle@DrawingSurface@@SANNNNN@Z 00414370 f   DrawingSurface.obj
 0001:00013410       ?getVirtualRedrawMinX@DrawingSurface@@QAEHXZ 00414410 f   DrawingSurface.obj
 0001:00013460       ?getVirtualRedrawMinY@DrawingSurface@@QAEHXZ 00414460 f   DrawingSurface.obj
 0001:000134b0       ?getVirtualRedrawMaxX@DrawingSurface@@QAEHXZ 004144b0 f   DrawingSurface.obj
 0001:00013510       ?getVirtualRedrawMaxY@DrawingSurface@@QAEHXZ 00414510 f   DrawingSurface.obj
 0001:00013570       ?getRealRedrawMinX@DrawingSurface@@QAEHXZ 00414570 f   DrawingSurface.obj
 0001:000135c0       ?getRealRedrawMinY@DrawingSurface@@QAEHXZ 004145c0 f   DrawingSurface.obj
 0001:00013610       ?getRealRedrawMaxX@DrawingSurface@@QAEHXZ 00414610 f   DrawingSurface.obj
 0001:00013660       ?getRealRedrawMaxY@DrawingSurface@@QAEHXZ 00414660 f   DrawingSurface.obj
 0001:000136b0       ??$?HDU?$char_traits@D@std@@V?$allocator@D@1@@std@@YA?AV?$basic_string@DU?$char_traits@D@std@@V?$allocator@D@2@@0@QBD$$QAV10@@Z 004146b0 f i MovingText.obj
 0001:000136f0       ??0?$vector@V?$basic_string@DU?$char_traits@D@std@@V?$allocator@D@2@@std@@V?$allocator@V?$basic_string@DU?$char_traits@D@std@@V?$allocator@D@2@@std@@@2@@std@@QAE@XZ 004146f0 f i MovingText.obj
 0001:000137a0       ??$_To_address@PAI@std@@YA?A_PABQAI@Z 004147a0 f i MovingText.obj
 0001:000137b0       ??R<lambda_4d79bb85f269e6e8002a4599002d832c>@@QBE@QADQBDII1I@Z 004147b0 f i MovingText.obj
 0001:00013810       ?_Buy_raw@?$vector@IV?$allocator@I@std@@@std@@AAEXI@Z 00414810 f i MovingText.obj
 0001:000138b0       ?_Getal@?$vector@IV?$allocator@I@std@@@std@@ABEABV?$allocator@I@2@XZ 004148b0 f i MovingText.obj
 0001:000138d0       ?deallocate@?$allocator@I@std@@QAEXQAII@Z 004148d0 f i MovingText.obj
 0001:00013980       ?_Getal@?$vector@V?$basic_string@DU?$char_traits@D@std@@V?$allocator@D@2@@std@@V?$allocator@V?$basic_string@DU?$char_traits@D@std@@V?$allocator@D@2@@std@@@2@@std@@AAEAAV?$allocator@V?$basic_string@DU?$char_traits@D@std@@V?$allocator@D@2@@std@@@2@XZ 00414980 f i MovingText.obj
 0001:000139a0       ?deallocate@?$allocator@V?$basic_string@DU?$char_traits@D@std@@V?$allocator@D@2@@std@@@std@@QAEXQAV?$basic_string@DU?$char_traits@D@std@@V?$allocator@D@2@@2@I@Z 004149a0 f i MovingText.obj
 0001:00013a50       ?_Xlength@?$vector@V?$basic_string@DU?$char_traits@D@std@@V?$allocator@D@2@@std@@V?$allocator@V?$basic_string@DU?$char_traits@D@std@@V?$allocator@D@2@@std@@@2@@std@@CAXXZ 00414a50 f i MovingText.obj
 0001:00013ad0       ?allocate@?$allocator@I@std@@QAEPAII@Z 00414ad0 f i MovingText.obj
 0001:000140a0       ??$_Assign_counted_range@PBV?$basic_string@DU?$char_traits@D@std@@V?$allocator@D@2@@std@@@?$vector@V?$basic_string@DU?$char_traits@D@std@@V?$allocator@D@2@@std@@V?$allocator@V?$basic_string@DU?$char_traits@D@std@@V?$allocator@D@2@@std@@@2@@std@@AAEXPBV?$basic_string@DU?$char_traits@D@std@@V?$allocator@D@2@@1@I@Z 004150a0 f i MovingText.obj
 0001:00014260       ??$move@AAH@std@@YA$$QAHAAH@Z 00415260 f i DrawingSurface.obj
 0001:00014270       ??$move@AAN@std@@YA$$QANAAN@Z 00415270 f i DrawingSurface.obj
 0001:00014280       ??$swap@H$0A@@std@@YAXAAH0@Z 00415280 f i DrawingSurface.obj
 0001:000142d0       ??$swap@N$0A@@std@@YAXAAN0@Z 004152d0 f i DrawingSurface.obj
 0001:00014330       ?checkBlitable@DrawingSurface@@QAEXXZ 00415330 f i DrawingSurface.obj
 0001:00014380       ?convertRealToVirtualXPosition@DrawingSurface@@QAEHH@Z 00415380 f i DrawingSurface.obj
 0001:000143c0       ?convertRealToVirtualYPosition@DrawingSurface@@QAEHH@Z 004153c0 f i DrawingSurface.obj
 0001:00014400       ?getDefaultFont@BaseEngine@@QBEPAVFont@@XZ 00415400 f i DrawingSurface.obj
 0001:00014420       ?getRedrawAllScreen@BaseEngine@@QAEHXZ 00415420 f i DrawingSurface.obj
 0001:00014440       ?getRedrawRectRealBottom@BaseEngine@@QAEHXZ 00415440 f i DrawingSurface.obj
 0001:00014460       ?getRedrawRectRealLeft@BaseEngine@@QAEHXZ 00415460 f i DrawingSurface.obj
 0001:00014480       ?getRedrawRectRealRight@BaseEngine@@QAEHXZ 00415480 f i DrawingSurface.obj
 0001:000144a0       ?getRedrawRectRealTop@BaseEngine@@QAEHXZ 004154a0 f i DrawingSurface.obj
 0001:000144c0       ?getRedrawRectVirtualBottom@BaseEngine@@QAEHXZ 004154c0 f i DrawingSurface.obj
 0001:000144e0       ?getRedrawRectVirtualLeft@BaseEngine@@QAEHXZ 004154e0 f i DrawingSurface.obj
 0001:00014500       ?getRedrawRectVirtualRight@BaseEngine@@QAEHXZ 00415500 f i DrawingSurface.obj
 0001:00014520       ?getRedrawRectVirtualTop@BaseEngine@@QAEHXZ 00415520 f i DrawingSurface.obj
 0001:00014540       ?getTTFFont@Font@@QAEPAU_TTF_Font@@XZ 00415540 f i DrawingSurface.obj
 0001:00014560       ?mySDLTempRelockSurface@DrawingSurface@@QAEXXZ 00415560 f i DrawingSurface.obj
 0001:000145b0       ?mySDLTempUnlockSurface@DrawingSurface@@QAEXXZ 004155b0 f i DrawingSurface.obj
 0001:00014600       ?setDrawPointsFilter@DrawingSurface@@QAEXPAVFilterPoints@@@Z 00415600 f i DrawingSurface.obj
 0001:00014620       ?deleteName@efylw5Engine@@QAEXXZ 00415620 f   efylw5Engine.obj
 0001:00014650       ?virtSetupBackgroundBuffer@efylw5Engine@@UAEXXZ 00415650 f   efylw5Engine.obj
 0001:00014710       ?virtKeyDown@efylw5Engine@@UAEXH@Z 00415710 f   efylw5Engine.obj
 0001:000152c0       ?addPlayerName@efylw5Engine@@QAEXXZ 004162c0 f   efylw5Engine.obj
 0001:000153a0       ?virtDrawStringsUnderneath@efylw5Engine@@UAEXXZ 004163a0 f   efylw5Engine.obj
 0001:00015630       ?virtDrawStringsOnTop@efylw5Engine@@UAEXXZ 00416630 f   efylw5Engine.obj
 0001:000156d0       ?drawTable@efylw5Engine@@QAEXXZ 004166d0 f   efylw5Engine.obj
 0001:00015880       ?setUpForegroundEffectHS@efylw5Engine@@QAEXXZ 00416880 f   efylw5Engine.obj
 0001:00015890       ?populateTable@efylw5Engine@@QAEXXZ 00416890 f   efylw5Engine.obj
 0001:00015a60       ?virtInitialiseObjects@efylw5Engine@@UAEHXZ 00416a60 f   efylw5Engine.obj
 0001:00015d00       ??$_Construct_n@PBIPBI@?$vector@IV?$allocator@I@std@@@std@@AAEXI$$QAPBI0@Z 00416d00 f i MovingText.obj
 0001:00015df0       ??$_Reallocate_grow_by@V<lambda_4d79bb85f269e6e8002a4599002d832c>@@IPBDI@?$basic_string@DU?$char_traits@D@std@@V?$allocator@D@2@@std@@AAEAAV01@IV<lambda_4d79bb85f269e6e8002a4599002d832c>@@IPBDI@Z 00416df0 f i MovingText.obj
 0001:00015f20       ??$_Uninitialized_copy@PBIPBIV?$allocator@I@std@@@std@@YAPAIPBI0PAIAAV?$allocator@I@0@@Z 00416f20 f i MovingText.obj
 0001:00016030       ?_Buy_raw@?$vector@V?$basic_string@DU?$char_traits@D@std@@V?$allocator@D@2@@std@@V?$allocator@V?$basic_string@DU?$char_traits@D@std@@V?$allocator@D@2@@std@@@2@@std@@AAEXI@Z 00417030 f i MovingText.obj
 0001:000160a0       ?_Clear_and_reserve_geometric@?$vector@V?$basic_string@DU?$char_traits@D@std@@V?$allocator@D@2@@std@@V?$allocator@V?$basic_string@DU?$char_traits@D@std@@V?$allocator@D@2@@std@@@2@@std@@AAEXI@Z 004170a0 f i MovingText.obj
 0001:00016170       ?_Tidy@?$vector@IV?$allocator@I@std@@@std@@AAEXXZ 00417170 f i MovingText.obj
 0001:00016290       ??$?0$$V@?$_Compressed_pair@V?$allocator@H@std@@V?$_Vector_val@U?$_Simple_types@H@std@@@2@$00@std@@QAE@U_Zero_then_variadic_args_t@1@@Z 00417290 f i efylw5Engine.obj
 0001:000162c0       ??$?0$$V@?$_Compressed_pair@V?$allocator@PAD@std@@V?$_Vector_val@U?$_Simple_types@PAD@std@@@2@$00@std@@QAE@U_Zero_then_variadic_args_t@1@@Z 004172c0 f i efylw5Engine.obj
 0001:000162f0       ??$?0AAPAV_Facet_base@std@@@?$_Compressed_pair@U?$default_delete@V_Facet_base@std@@@std@@PAV_Facet_base@2@$00@std@@QAE@U_Zero_then_variadic_args_t@1@AAPAV_Facet_base@1@@Z 004172f0 f i efylw5Engine.obj
 0001:00016320       ??$?0ABV?$allocator@D@std@@$$V@?$_Compressed_pair@V?$allocator@D@std@@V?$_String_val@U?$_Simple_types@D@std@@@2@$00@std@@QAE@U_One_then_variadic_args_t@1@ABV?$allocator@D@1@@Z 00417320 f i efylw5Engine.obj
 0001:00016350       ??$?0ABV?$allocator@H@std@@$$V@?$_Compressed_pair@V?$allocator@H@std@@V?$_Vector_val@U?$_Simple_types@H@std@@@2@$00@std@@QAE@U_One_then_variadic_args_t@1@ABV?$allocator@H@1@@Z 00417350 f i efylw5Engine.obj
 0001:00016380       ??$?0ABV?$allocator@PAD@std@@$$V@?$_Compressed_pair@V?$allocator@PAD@std@@V?$_Vector_val@U?$_Simple_types@PAD@std@@@2@$00@std@@QAE@U_One_then_variadic_args_t@1@ABV?$allocator@PAD@1@@Z 00417380 f i efylw5Engine.obj
 0001:000163b0       ??$?0H@?$allocator@U_Container_proxy@std@@@std@@QAE@ABV?$allocator@H@1@@Z 004173b0 f i efylw5Engine.obj
 0001:000163d0       ??$?0PAD$0A@@?$basic_string@DU?$char_traits@D@std@@V?$allocator@D@2@@std@@QAE@PAD0ABV?$allocator@D@1@@Z 004173d0 f i efylw5Engine.obj
 0001:000164e0       ??$?0PAD@?$allocator@U_Container_proxy@std@@@std@@QAE@ABV?$allocator@PAD@1@@Z 004174e0 f i efylw5Engine.obj
 0001:00016500       ??$?0PAVSnakeBody@@@?$allocator@U_Container_proxy@std@@@std@@QAE@ABV?$allocator@PAVSnakeBody@@@1@@Z 00417500 f i efylw5Engine.obj
 0001:00016520       ??$?0U?$default_delete@V_Facet_base@std@@@std@@$0A@@?$unique_ptr@V_Facet_base@std@@U?$default_delete@V_Facet_base@std@@@2@@std@@QAE@PAV_Facet_base@1@@Z 00417520 f i efylw5Engine.obj
 0001:00016550       ??$?0U?$pair@V?$basic_string@DU?$char_traits@D@std@@V?$allocator@D@2@@std@@H@std@@@?$allocator@U_Container_proxy@std@@@std@@QAE@ABV?$allocator@U?$pair@V?$basic_string@DU?$char_traits@D@std@@V?$allocator@D@2@@std@@H@std@@@1@@Z 00417550 f i efylw5Engine.obj
 0001:00016570       ??$?0V?$allocator@H@std@@$$V@?$_Compressed_pair@V?$allocator@H@std@@V?$_Vector_val@U?$_Simple_types@H@std@@@2@$00@std@@QAE@U_One_then_variadic_args_t@1@$$QAV?$allocator@H@1@@Z 00417570 f i efylw5Engine.obj
 0001:000165a0       ??$?0V?$allocator@PAD@std@@$$V@?$_Compressed_pair@V?$allocator@PAD@std@@V?$_Vector_val@U?$_Simple_types@PAD@std@@@2@$00@std@@QAE@U_One_then_variadic_args_t@1@$$QAV?$allocator@PAD@1@@Z 004175a0 f i efylw5Engine.obj
 0001:000165d0       ??$?0V?$allocator@PAVSnakeBody@@@std@@$$V@?$_Compressed_pair@V?$allocator@PAVSnakeBody@@@std@@V?$_Vector_val@U?$_Simple_types@PAVSnakeBody@@@std@@@2@$00@std@@QAE@U_One_then_variadic_args_t@1@$$QAV?$allocator@PAVSnakeBody@@@1@@Z 004175d0 f i efylw5Engine.obj
 0001:00016600       ??$?8DU?$char_traits@D@std@@V?$allocator@D@1@@std@@YA_NABV?$basic_string@DU?$char_traits@D@std@@V?$allocator@D@2@@0@QBD@Z 00417600 f i efylw5Engine.obj
 0001:00016620       ??$?9DU?$char_traits@D@std@@V?$allocator@D@1@@std@@YA_NABV?$basic_string@DU?$char_traits@D@std@@V?$allocator@D@2@@0@QBD@Z 00417620 f i efylw5Engine.obj
 0001:00016660       ??$_Adl_verify_range@PADPAD@std@@YAXABQAD0@Z 00417660 f i efylw5Engine.obj
 0001:00016680       ??$_Assign_counted_range@PAH@?$vector@HV?$allocator@H@std@@@std@@AAEXPAHI@Z 00417680 f i efylw5Engine.obj
 0001:00016880       ??$_Assign_counted_range@PAPAD@?$vector@PADV?$allocator@PAD@std@@@std@@AAEXPAPADI@Z 00417880 f i efylw5Engine.obj
 0001:00016a80       ??$_Assign_counted_range@PAPAVSnakeBody@@@?$vector@PAVSnakeBody@@V?$allocator@PAVSnakeBody@@@std@@@std@@AAEXPAPAVSnakeBody@@I@Z 00417a80 f i efylw5Engine.obj
 0001:00016c80       ??$_Construct@$00PAD@?$basic_string@DU?$char_traits@D@std@@V?$allocator@D@2@@std@@AAEXQADI@Z 00417c80 f i efylw5Engine.obj
 0001:00016e60       ??$_Construct_in_place@PAVDisplayableObject@@ABQAV1@@std@@YAXAAPAVDisplayableObject@@ABQAV1@@Z 00417e60 f i efylw5Engine.obj
 0001:00016eb0       ??$_Construct_in_place@PAVSnakeBody@@ABQAV1@@std@@YAXAAPAVSnakeBody@@ABQAV1@@Z 00417eb0 f i efylw5Engine.obj
 0001:00016f00       ??$_Construct_n@ABQAHABQAH@?$vector@HV?$allocator@H@std@@@std@@AAEXIABQAH0@Z 00417f00 f i efylw5Engine.obj
 0001:00017030       ??$_Construct_n@ABQAPADABQAPAD@?$vector@PADV?$allocator@PAD@std@@@std@@AAEXIABQAPAD0@Z 00418030 f i efylw5Engine.obj
 0001:00017160       ??$_Construct_n@ABQAPAVSnakeBody@@ABQAPAV1@@?$vector@PAVSnakeBody@@V?$allocator@PAVSnakeBody@@@std@@@std@@AAEXIABQAPAVSnakeBody@@0@Z 00418160 f i efylw5Engine.obj
 0001:00017290       ??$_Construct_n@PBHPBH@?$vector@HV?$allocator@H@std@@@std@@AAEXI$$QAPBH0@Z 00418290 f i efylw5Engine.obj
 0001:000173c0       ??$_Construct_n@PBQADPBQAD@?$vector@PADV?$allocator@PAD@std@@@std@@AAEXI$$QAPBQAD0@Z 004183c0 f i efylw5Engine.obj
 0001:000174f0       ??$_Copy_memmove@PAHPAH@std@@YAPAHPAH00@Z 004184f0 f i efylw5Engine.obj
 0001:00017580       ??$_Copy_memmove@PAPADPAPAD@std@@YAPAPADPAPAD00@Z 00418580 f i efylw5Engine.obj
 0001:00017610       ??$_Copy_memmove@PAPAVSnakeBody@@PAPAV1@@std@@YAPAPAVSnakeBody@@PAPAV1@00@Z 00418610 f i efylw5Engine.obj
 0001:000176a0       ??$_Copy_memmove@PBHPAH@std@@YAPAHPBH0PAH@Z 004186a0 f i efylw5Engine.obj
 0001:00017730       ??$_Copy_memmove@PBQADPAPAD@std@@YAPAPADPBQAD0PAPAD@Z 00418730 f i efylw5Engine.obj
 0001:000177c0       ??$_Copy_memmove_n@PAHPAH@std@@YAPAHPAHI0@Z 004187c0 f i efylw5Engine.obj
 0001:00017800       ??$_Copy_memmove_n@PAPADPAPAD@std@@YAPAPADPAPADI0@Z 00418800 f i efylw5Engine.obj
 0001:00017840       ??$_Copy_memmove_n@PAPAVSnakeBody@@PAPAV1@@std@@YAPAPAVSnakeBody@@PAPAV1@I0@Z 00418840 f i efylw5Engine.obj
 0001:00017880       ??$_Copy_n_unchecked4@PAHIPAH@std@@YAPAHPAHI0@Z 00418880 f i efylw5Engine.obj
 0001:000178e0       ??$_Copy_n_unchecked4@PAPADIPAPAD@std@@YAPAPADPAPADI0@Z 004188e0 f i efylw5Engine.obj
 0001:00017940       ??$_Copy_n_unchecked4@PAPAVSnakeBody@@IPAPAV1@@std@@YAPAPAVSnakeBody@@PAPAV1@I0@Z 00418940 f i efylw5Engine.obj
 0001:000179a0       ??$_Destroy_range@V?$allocator@H@std@@@std@@YAXPAHQAHAAV?$allocator@H@0@@Z 004189a0 f i efylw5Engine.obj
 0001:000179b0       ??$_Destroy_range@V?$allocator@PAD@std@@@std@@YAXPAPADQAPADAAV?$allocator@PAD@0@@Z 004189b0 f i efylw5Engine.obj
 0001:000179c0       ??$_Destroy_range@V?$allocator@PAVSnakeBody@@@std@@@std@@YAXPAPAVSnakeBody@@QAPAV1@AAV?$allocator@PAVSnakeBody@@@0@@Z 004189c0 f i efylw5Engine.obj
 0001:000179d0       ??$_Destroy_range@V?$allocator@U?$pair@V?$basic_string@DU?$char_traits@D@std@@V?$allocator@D@2@@std@@H@std@@@std@@@std@@YAXPAU?$pair@V?$basic_string@DU?$char_traits@D@std@@V?$allocator@D@2@@std@@H@0@QAU10@AAV?$allocator@U?$pair@V?$basic_string@DU?$char_traits@D@std@@V?$allocator@D@2@@std@@H@std@@@0@@Z 004189d0 f i efylw5Engine.obj
 0001:00017a50       ??$_Emplace_back@AAH@?$_Uninitialized_backout_al@V?$allocator@H@std@@@std@@QAEXAAH@Z 00418a50 f i efylw5Engine.obj
 0001:00017ab0       ??$_Emplace_back@AAPAD@?$_Uninitialized_backout_al@V?$allocator@PAD@std@@@std@@QAEXAAPAD@Z 00418ab0 f i efylw5Engine.obj
 0001:00017b10       ??$_Emplace_back@AAPAVSnakeBody@@@?$_Uninitialized_backout_al@V?$allocator@PAVSnakeBody@@@std@@@std@@QAEXAAPAVSnakeBody@@@Z 00418b10 f i efylw5Engine.obj
 0001:00017b70       ??$_Emplace_back@ABH@?$_Uninitialized_backout_al@V?$allocator@H@std@@@std@@QAEXABH@Z 00418b70 f i efylw5Engine.obj
 0001:00017bd0       ??$_Emplace_back@ABQAD@?$_Uninitialized_backout_al@V?$allocator@PAD@std@@@std@@QAEXABQAD@Z 00418bd0 f i efylw5Engine.obj
 0001:00017c30       ??$_Emplace_back@PAVSnakeBody@@@?$_Uninitialized_backout_al@V?$allocator@PAVSnakeBody@@@std@@@std@@QAEX$$QAPAVSnakeBody@@@Z 00418c30 f i efylw5Engine.obj
 0001:00017c90       ??$_Emplace_back_with_unused_capacity@ABQAVDisplayableObject@@@?$vector@PAVDisplayableObject@@V?$allocator@PAVDisplayableObject@@@std@@@std@@AAEAAPAVDisplayableObject@@ABQAV2@@Z 00418c90 f i efylw5Engine.obj
 0001:00017d10       ??$_Emplace_back_with_unused_capacity@ABQAVSnakeBody@@@?$vector@PAVSnakeBody@@V?$allocator@PAVSnakeBody@@@std@@@std@@AAEAAPAVSnakeBody@@ABQAV2@@Z 00418d10 f i efylw5Engine.obj
 0001:00017d90       ??$_Emplace_one_at_back@ABQAVDisplayableObject@@@?$vector@PAVDisplayableObject@@V?$allocator@PAVDisplayableObject@@@std@@@std@@AAEAAPAVDisplayableObject@@ABQAV2@@Z 00418d90 f i efylw5Engine.obj
 0001:00017e10       ??$_Emplace_one_at_back@ABQAVSnakeBody@@@?$vector@PAVSnakeBody@@V?$allocator@PAVSnakeBody@@@std@@@std@@AAEAAPAVSnakeBody@@ABQAV2@@Z 00418e10 f i efylw5Engine.obj
 0001:00017e90       ??$_Emplace_reallocate@ABQAVDisplayableObject@@@?$vector@PAVDisplayableObject@@V?$allocator@PAVDisplayableObject@@@std@@@std@@AAEPAPAVDisplayableObject@@QAPAV2@ABQAV2@@Z 00418e90 f i efylw5Engine.obj
 0001:000180f0       ??$_Emplace_reallocate@ABQAVSnakeBody@@@?$vector@PAVSnakeBody@@V?$allocator@PAVSnakeBody@@@std@@@std@@AAEPAPAVSnakeBody@@QAPAV2@ABQAV2@@Z 004190f0 f i efylw5Engine.obj
 0001:00018350       ??$_Fgetc@D@std@@YA_NAADPAU_iobuf@@@Z 00419350 f i efylw5Engine.obj
 0001:00018390       ??$_Fputc@D@std@@YA_NDPAU_iobuf@@@Z 00419390 f i efylw5Engine.obj
 0001:000183d0       ??$_Get_unwrapped@AAPAD@std@@YA?A_TAAPAD@Z 004193d0 f i efylw5Engine.obj
 0001:000183e0       ??$_Get_unwrapped@ABQAPAVSnakeBody@@@std@@YA?A_TABQAPAVSnakeBody@@@Z 004193e0 f i efylw5Engine.obj
 0001:000183f0       ??$_Get_unwrapped@PAH@std@@YA?A_T$$QAPAH@Z 004193f0 f i efylw5Engine.obj
 0001:00018400       ??$_Get_unwrapped@PAPAD@std@@YA?A_T$$QAPAPAD@Z 00419400 f i efylw5Engine.obj
 0001:00018410       ??$_Get_unwrapped@PAPAVSnakeBody@@@std@@YA?A_T$$QAPAPAVSnakeBody@@@Z 00419410 f i efylw5Engine.obj
 0001:00018420       ??$_Get_unwrapped@PBH@std@@YA?A_T$$QAPBH@Z 00419420 f i efylw5Engine.obj
 0001:00018430       ??$_Get_unwrapped@PBQAD@std@@YA?A_T$$QAPBQAD@Z 00419430 f i efylw5Engine.obj
 0001:00018440       ??$_Integral_to_string@DH@std@@YA?AV?$basic_string@DU?$char_traits@D@std@@V?$allocator@D@2@@0@H@Z 00419440 f i efylw5Engine.obj
 0001:00018510       ??$_Pocca@V?$allocator@D@std@@@std@@YAXAAV?$allocator@D@0@ABV10@@Z 00419510 f i efylw5Engine.obj
 0001:00018520       ??$_Pocca@V?$allocator@H@std@@@std@@YAXAAV?$allocator@H@0@ABV10@@Z 00419520 f i efylw5Engine.obj
 0001:00018530       ??$_Pocca@V?$allocator@PAD@std@@@std@@YAXAAV?$allocator@PAD@0@ABV10@@Z 00419530 f i efylw5Engine.obj
 0001:00018540       ??$_Pocca@V?$allocator@PAVSnakeBody@@@std@@@std@@YAXAAV?$allocator@PAVSnakeBody@@@0@ABV10@@Z 00419540 f i efylw5Engine.obj
 0001:00018550       ??$_Reallocate_for@V<lambda_9366063389c5f42a00a5088cf24e69de>@@PBD@?$basic_string@DU?$char_traits@D@std@@V?$allocator@D@2@@std@@AAEAAV01@IV<lambda_9366063389c5f42a00a5088cf24e69de>@@PBD@Z 00419550 f i efylw5Engine.obj
 0001:00018650       ??$_Reallocate_grow_by@V<lambda_15711c68e099a15a58f4d77303cb286d>@@D@?$basic_string@DU?$char_traits@D@std@@V?$allocator@D@2@@std@@AAEAAV01@IV<lambda_15711c68e099a15a58f4d77303cb286d>@@D@Z 00419650 f i efylw5Engine.obj
 0001:000187c0       ??$_Reallocate_grow_by@V<lambda_ab246b20b9526e2ef7792587e4298a77>@@PBDI@?$basic_string@DU?$char_traits@D@std@@V?$allocator@D@2@@std@@AAEAAV01@IV<lambda_ab246b20b9526e2ef7792587e4298a77>@@PBDI@Z 004197c0 f i efylw5Engine.obj
 0001:00018930       ??$_To_address@PAH@std@@YA?A_PABQAH@Z 00419930 f i efylw5Engine.obj
 0001:00018940       ??$_To_address@PAPAD@std@@YA?A_PABQAPAD@Z 00419940 f i efylw5Engine.obj
 0001:00018950       ??$_To_address@PAPAVSnakeBody@@@std@@YA?A_PABQAPAVSnakeBody@@@Z 00419950 f i efylw5Engine.obj
 0001:00018960       ??$_To_address@PBH@std@@YA?A_PABQBH@Z 00419960 f i efylw5Engine.obj
 0001:00018970       ??$_To_address@PBQAD@std@@YA?A_PABQBQAD@Z 00419970 f i efylw5Engine.obj
 0001:00018980       ??$_Traits_equal@U?$char_traits@D@std@@@std@@YA_NQBDI0I@Z 00419980 f i efylw5Engine.obj
 0001:000189d0       ??$_UIntegral_to_buff@DI@std@@YAPADPADI@Z 004199d0 f i efylw5Engine.obj
 0001:00018a30       ??$_Unfancy@H@std@@YAPAHPAH@Z 00419a30 f i efylw5Engine.obj
 0001:00018a40       ??$_Unfancy@PAD@std@@YAPAPADPAPAD@Z 00419a40 f i efylw5Engine.obj
 0001:00018a50       ??$_Unfancy@PAVSnakeBody@@@std@@YAPAPAVSnakeBody@@PAPAV1@@Z 00419a50 f i efylw5Engine.obj
 0001:00018a60       ??$_Unfancy@U?$pair@V?$basic_string@DU?$char_traits@D@std@@V?$allocator@D@2@@std@@H@std@@@std@@YAPAU?$pair@V?$basic_string@DU?$char_traits@D@std@@V?$allocator@D@2@@std@@H@0@PAU10@@Z 00419a60 f i efylw5Engine.obj
 0001:00018a70       ??$_Ungetc@D@std@@YA_NABDPAU_iobuf@@@Z 00419a70 f i efylw5Engine.obj
 0001:00018ac0       ??$_Uninitialized_copy@PAHPAHV?$allocator@H@std@@@std@@YAPAHPAH00AAV?$allocator@H@0@@Z 00419ac0 f i efylw5Engine.obj
 0001:00018c10       ??$_Uninitialized_copy@PAPADPAPADV?$allocator@PAD@std@@@std@@YAPAPADPAPAD00AAV?$allocator@PAD@0@@Z 00419c10 f i efylw5Engine.obj
 0001:00018d60       ??$_Uninitialized_copy@PAPAVSnakeBody@@PAPAV1@V?$allocator@PAVSnakeBody@@@std@@@std@@YAPAPAVSnakeBody@@PAPAV1@00AAV?$allocator@PAVSnakeBody@@@0@@Z 00419d60 f i efylw5Engine.obj
 0001:00018eb0       ??$_Uninitialized_copy@PBHPBHV?$allocator@H@std@@@std@@YAPAHPBH0PAHAAV?$allocator@H@0@@Z 00419eb0 f i efylw5Engine.obj
 0001:00019000       ??$_Uninitialized_copy@PBQADPBQADV?$allocator@PAD@std@@@std@@YAPAPADPBQAD0PAPADAAV?$allocator@PAD@0@@Z 0041a000 f i efylw5Engine.obj
 0001:00019150       ??$_Uninitialized_copy_n@PAHV?$allocator@H@std@@@std@@YAPAHPAHI0AAV?$allocator@H@0@@Z 0041a150 f i efylw5Engine.obj
 0001:00019260       ??$_Uninitialized_copy_n@PAPADV?$allocator@PAD@std@@@std@@YAPAPADPAPADI0AAV?$allocator@PAD@0@@Z 0041a260 f i efylw5Engine.obj
 0001:00019370       ??$_Uninitialized_copy_n@PAPAVSnakeBody@@V?$allocator@PAVSnakeBody@@@std@@@std@@YAPAPAVSnakeBody@@PAPAV1@I0AAV?$allocator@PAVSnakeBody@@@0@@Z 0041a370 f i efylw5Engine.obj
 0001:00019480       ??$_Uninitialized_move@PAPAVSnakeBody@@V?$allocator@PAVSnakeBody@@@std@@@std@@YAPAPAVSnakeBody@@QAPAV1@0PAPAV1@AAV?$allocator@PAVSnakeBody@@@0@@Z 0041a480 f i efylw5Engine.obj
 0001:000195a0       ??$_Verify_range@D@std@@YAXQBD0@Z 0041a5a0 f i efylw5Engine.obj
 0001:00019620       ??$_Voidify_iter@PAH@std@@YAPAXPAH@Z 0041a620 f i efylw5Engine.obj
 0001:00019630       ??$_Voidify_iter@PAPAVSnakeBody@@@std@@YAPAXPAPAVSnakeBody@@@Z 0041a630 f i efylw5Engine.obj
 0001:00019640       ??$addressof@$$CBV?$_Vector_val@U?$_Simple_types@PAVDisplayableObject@@@std@@@std@@@std@@YAPBV?$_Vector_val@U?$_Simple_types@PAVDisplayableObject@@@std@@@0@ABV10@@Z 0041a640 f i efylw5Engine.obj
 0001:00019650       ??$addressof@$$CBV?$basic_string@DU?$char_traits@D@std@@V?$allocator@D@2@@std@@@std@@YAPBV?$basic_string@DU?$char_traits@D@std@@V?$allocator@D@2@@0@ABV10@@Z 0041a650 f i efylw5Engine.obj
 0001:00019660       ??$addressof@$$CBV?$codecvt@DDU_Mbstatet@@@std@@@std@@YAPBV?$codecvt@DDU_Mbstatet@@@0@ABV10@@Z 0041a660 f i efylw5Engine.obj
 0001:00019670       ??$addressof@$$CBV?$vector@HV?$allocator@H@std@@@std@@@std@@YAPBV?$vector@HV?$allocator@H@std@@@0@ABV10@@Z 0041a670 f i efylw5Engine.obj
 0001:00019680       ??$addressof@$$CBV?$vector@PADV?$allocator@PAD@std@@@std@@@std@@YAPBV?$vector@PADV?$allocator@PAD@std@@@0@ABV10@@Z 0041a680 f i efylw5Engine.obj
 0001:00019690       ??$addressof@$$CBV?$vector@PAVSnakeBody@@V?$allocator@PAVSnakeBody@@@std@@@std@@@std@@YAPBV?$vector@PAVSnakeBody@@V?$allocator@PAVSnakeBody@@@std@@@0@ABV10@@Z 0041a690 f i efylw5Engine.obj
 0001:000196a0       ??$addressof@PAVDisplayableObject@@@std@@YAPAPAVDisplayableObject@@AAPAV1@@Z 0041a6a0 f i efylw5Engine.obj
 0001:000196b0       ??$addressof@PAVSnakeBody@@@std@@YAPAPAVSnakeBody@@AAPAV1@@Z 0041a6b0 f i efylw5Engine.obj
 0001:000196c0       ??$addressof@V?$basic_filebuf@DU?$char_traits@D@std@@@std@@@std@@YAPAV?$basic_filebuf@DU?$char_traits@D@std@@@0@AAV10@@Z 0041a6c0 f i efylw5Engine.obj
 0001:000196d0       ??$construct@HAAH@?$_Default_allocator_traits@V?$allocator@H@std@@@std@@SAXAAV?$allocator@H@1@QAHAAH@Z 0041a6d0 f i efylw5Engine.obj
 0001:00019720       ??$construct@HABH@?$_Default_allocator_traits@V?$allocator@H@std@@@std@@SAXAAV?$allocator@H@1@QAHABH@Z 0041a720 f i efylw5Engine.obj
 0001:00019770       ??$construct@PADAAPAD@?$_Default_allocator_traits@V?$allocator@PAD@std@@@std@@SAXAAV?$allocator@PAD@1@QAPADAAPAD@Z 0041a770 f i efylw5Engine.obj
 0001:000197c0       ??$construct@PADABQAD@?$_Default_allocator_traits@V?$allocator@PAD@std@@@std@@SAXAAV?$allocator@PAD@1@QAPADABQAD@Z 0041a7c0 f i efylw5Engine.obj
 0001:00019810       ??$construct@PAVDisplayableObject@@ABQAV1@@?$_Default_allocator_traits@V?$allocator@PAVDisplayableObject@@@std@@@std@@SAXAAV?$allocator@PAVDisplayableObject@@@1@QAPAVDisplayableObject@@ABQAV3@@Z 0041a810 f i efylw5Engine.obj
 0001:00019860       ??$construct@PAVSnakeBody@@AAPAV1@@?$_Default_allocator_traits@V?$allocator@PAVSnakeBody@@@std@@@std@@SAXAAV?$allocator@PAVSnakeBody@@@1@QAPAVSnakeBody@@AAPAV3@@Z 0041a860 f i efylw5Engine.obj
 0001:000198b0       ??$construct@PAVSnakeBody@@ABQAV1@@?$_Default_allocator_traits@V?$allocator@PAVSnakeBody@@@std@@@std@@SAXAAV?$allocator@PAVSnakeBody@@@1@QAPAVSnakeBody@@ABQAV3@@Z 0041a8b0 f i efylw5Engine.obj
 0001:00019900       ??$construct@PAVSnakeBody@@PAV1@@?$_Default_allocator_traits@V?$allocator@PAVSnakeBody@@@std@@@std@@SAXAAV?$allocator@PAVSnakeBody@@@1@QAPAVSnakeBody@@$$QAPAV3@@Z 0041a900 f i efylw5Engine.obj
 0001:00019950       ??$destroy@U?$pair@V?$basic_string@DU?$char_traits@D@std@@V?$allocator@D@2@@std@@H@std@@@?$_Default_allocator_traits@V?$allocator@U?$pair@V?$basic_string@DU?$char_traits@D@std@@V?$allocator@D@2@@std@@H@std@@@std@@@std@@SAXAAV?$allocator@U?$pair@V?$basic_string@DU?$char_traits@D@std@@V?$allocator@D@2@@std@@H@std@@@1@QAU?$pair@V?$basic_string@DU?$char_traits@D@std@@V?$allocator@D@2@@std@@H@1@@Z 0041a950 f i efylw5Engine.obj
 0001:00019970       ??$end@D$0BF@@std@@YAPADAAY0BF@D@Z 0041a970 f i efylw5Engine.obj
 0001:00019980       ??$exchange@PAU_Container_proxy@std@@$$T@std@@YAPAU_Container_proxy@0@AAPAU10@$$QA$$T@Z 0041a980 f i efylw5Engine.obj
 0001:000199b0       ??$exchange@PAV_Facet_base@std@@$$T@std@@YAPAV_Facet_base@0@AAPAV10@$$QA$$T@Z 0041a9b0 f i efylw5Engine.obj
 0001:000199e0       ??$forward@AAH@std@@YAAAHAAH@Z 0041a9e0 f i efylw5Engine.obj
 0001:000199f0       ??$forward@AAPAVSnakeBody@@@std@@YAAAPAVSnakeBody@@AAPAV1@@Z 0041a9f0 f i efylw5Engine.obj
 0001:00019a00       ??$forward@AAPAV_Facet_base@std@@@std@@YAAAPAV_Facet_base@0@AAPAV10@@Z 0041aa00 f i efylw5Engine.obj
 0001:00019a10       ??$forward@ABH@std@@YAABHABH@Z 0041aa10 f i efylw5Engine.obj
 0001:00019a20       ??$forward@ABQAH@std@@YAABQAHABQAH@Z 0041aa20 f i efylw5Engine.obj
 0001:00019a30       ??$forward@ABQAPAD@std@@YAABQAPADABQAPAD@Z 0041aa30 f i efylw5Engine.obj
 0001:00019a40       ??$forward@ABQAPAVSnakeBody@@@std@@YAABQAPAVSnakeBody@@ABQAPAV1@@Z 0041aa40 f i efylw5Engine.obj
 0001:00019a50       ??$forward@ABQAVDisplayableObject@@@std@@YAABQAVDisplayableObject@@ABQAV1@@Z 0041aa50 f i efylw5Engine.obj
 0001:00019a60       ??$forward@ABQAVSnakeBody@@@std@@YAABQAVSnakeBody@@ABQAV1@@Z 0041aa60 f i efylw5Engine.obj
 0001:00019a70       ??$forward@ABV?$allocator@D@std@@@std@@YAABV?$allocator@D@0@ABV10@@Z 0041aa70 f i efylw5Engine.obj
 0001:00019a80       ??$forward@ABV?$allocator@H@std@@@std@@YAABV?$allocator@H@0@ABV10@@Z 0041aa80 f i efylw5Engine.obj
 0001:00019a90       ??$forward@ABV?$allocator@PAD@std@@@std@@YAABV?$allocator@PAD@0@ABV10@@Z 0041aa90 f i efylw5Engine.obj
 0001:00019aa0       ??$forward@PAVSnakeBody@@@std@@YA$$QAPAVSnakeBody@@AAPAV1@@Z 0041aaa0 f i efylw5Engine.obj
 0001:00019ab0       ??$forward@PBH@std@@YA$$QAPBHAAPBH@Z 0041aab0 f i efylw5Engine.obj
 0001:00019ac0       ??$forward@PBQAD@std@@YA$$QAPBQADAAPBQAD@Z 0041aac0 f i efylw5Engine.obj
 0001:00019ad0       ??$forward@V?$allocator@H@std@@@std@@YA$$QAV?$allocator@H@0@AAV10@@Z 0041aad0 f i efylw5Engine.obj
 0001:00019ae0       ??$forward@V?$allocator@PAD@std@@@std@@YA$$QAV?$allocator@PAD@0@AAV10@@Z 0041aae0 f i efylw5Engine.obj
 0001:00019af0       ??$forward@V?$allocator@PAVSnakeBody@@@std@@@std@@YA$$QAV?$allocator@PAVSnakeBody@@@0@AAV10@@Z 0041aaf0 f i efylw5Engine.obj
 0001:00019b00       ??$move@AAPAH@std@@YA$$QAPAHAAPAH@Z 0041ab00 f i efylw5Engine.obj
 0001:00019b10       ??$move@AAPAPAD@std@@YA$$QAPAPADAAPAPAD@Z 0041ab10 f i efylw5Engine.obj
 0001:00019b20       ??$move@AAPAPAVSnakeBody@@@std@@YA$$QAPAPAVSnakeBody@@AAPAPAV1@@Z 0041ab20 f i efylw5Engine.obj
 0001:00019b30       ??$move@AAPAVSnakeBody@@@std@@YA$$QAPAVSnakeBody@@AAPAV1@@Z 0041ab30 f i efylw5Engine.obj
 0001:00019b40       ??$move@AAPBH@std@@YA$$QAPBHAAPBH@Z 0041ab40 f i efylw5Engine.obj
 0001:00019b50       ??$move@AAPBQAD@std@@YA$$QAPBQADAAPBQAD@Z 0041ab50 f i efylw5Engine.obj
 0001:00019b60       ??$use_facet@V?$codecvt@DDU_Mbstatet@@@std@@@std@@YAABV?$codecvt@DDU_Mbstatet@@@0@ABVlocale@0@@Z 0041ab60 f i efylw5Engine.obj
 0001:00019cb0       ??0?$_Uninitialized_backout_al@V?$allocator@H@std@@@std@@QAE@PAHAAV?$allocator@H@1@@Z 0041acb0 f i efylw5Engine.obj
 0001:00019cf0       ??0?$_Uninitialized_backout_al@V?$allocator@PAD@std@@@std@@QAE@PAPADAAV?$allocator@PAD@1@@Z 0041acf0 f i efylw5Engine.obj
 0001:00019d30       ??0?$_Uninitialized_backout_al@V?$allocator@PAVSnakeBody@@@std@@@std@@QAE@PAPAVSnakeBody@@AAV?$allocator@PAVSnakeBody@@@1@@Z 0041ad30 f i efylw5Engine.obj
 0001:00019d70       ??0?$_Vector_const_iterator@V?$_Vector_val@U?$_Simple_types@PAVDisplayableObject@@@std@@@std@@@std@@QAE@$$QAV01@@Z 0041ad70 f i efylw5Engine.obj
 0001:00019db0       ??0?$_Vector_const_iterator@V?$_Vector_val@U?$_Simple_types@PAVDisplayableObject@@@std@@@std@@@std@@QAE@ABV01@@Z 0041adb0 f i efylw5Engine.obj
 0001:00019df0       ??0?$_Vector_const_iterator@V?$_Vector_val@U?$_Simple_types@PAVDisplayableObject@@@std@@@std@@@std@@QAE@PAPAVDisplayableObject@@PBU_Container_base12@1@@Z 0041adf0 f i efylw5Engine.obj
 0001:00019e30       ??0?$_Vector_val@U?$_Simple_types@H@std@@@std@@QAE@XZ 0041ae30 f i efylw5Engine.obj
 0001:00019e80       ??0?$_Vector_val@U?$_Simple_types@PAD@std@@@std@@QAE@XZ 0041ae80 f i efylw5Engine.obj
 0001:00019ed0       ??0?$_Vector_val@U?$_Simple_types@PAVSnakeBody@@@std@@@std@@QAE@XZ 0041aed0 f i efylw5Engine.obj
 0001:00019f20       ??0?$allocator@H@std@@QAE@XZ 0041af20 f i efylw5Engine.obj
 0001:00019f40       ??0?$allocator@PAD@std@@QAE@XZ 0041af40 f i efylw5Engine.obj
 0001:00019f60       ??0?$basic_filebuf@DU?$char_traits@D@std@@@std@@QAE@XZ 0041af60 f i efylw5Engine.obj
 0001:00019fe0       ??0?$basic_ofstream@DU?$char_traits@D@std@@@std@@QAE@XZ 0041afe0 f i efylw5Engine.obj
 0001:0001a0f0       ??0?$basic_string@DU?$char_traits@D@std@@V?$allocator@D@2@@std@@QAE@XZ 0041b0f0 f i efylw5Engine.obj
 0001:0001a180       ??0?$fpos@U_Mbstatet@@@std@@QAE@U_Mbstatet@@_J@Z 0041b180 f i efylw5Engine.obj
 0001:0001a1d0       ??0?$fpos@U_Mbstatet@@@std@@QAE@_J@Z 0041b1d0 f i efylw5Engine.obj
 0001:0001a220       ??0?$initializer_list@H@std@@QAE@PBH0@Z 0041b220 f i efylw5Engine.obj
 0001:0001a250       ??0?$initializer_list@PAD@std@@QAE@PBQAD0@Z 0041b250 f i efylw5Engine.obj
 0001:0001a280       ??0?$vector@HV?$allocator@H@std@@@std@@QAE@ABV01@@Z 0041b280 f i efylw5Engine.obj
 0001:0001a300       ??0?$vector@HV?$allocator@H@std@@@std@@QAE@V?$initializer_list@H@1@ABV?$allocator@H@1@@Z 0041b300 f i efylw5Engine.obj
 0001:0001a380       ??0?$vector@HV?$allocator@H@std@@@std@@QAE@XZ 0041b380 f i efylw5Engine.obj
 0001:0001a400       ??0?$vector@PADV?$allocator@PAD@std@@@std@@QAE@ABV01@@Z 0041b400 f i efylw5Engine.obj
 0001:0001a480       ??0?$vector@PADV?$allocator@PAD@std@@@std@@QAE@V?$initializer_list@PAD@1@ABV?$allocator@PAD@1@@Z 0041b480 f i efylw5Engine.obj
 0001:0001a500       ??0?$vector@PADV?$allocator@PAD@std@@@std@@QAE@XZ 0041b500 f i efylw5Engine.obj
 0001:0001a580       ??0?$vector@PAVSnakeBody@@V?$allocator@PAVSnakeBody@@@std@@@std@@QAE@ABV01@@Z 0041b580 f i efylw5Engine.obj
 0001:0001a600       ??0States@@QAE@XZ          0041b600 f i efylw5Engine.obj
 0001:0001a670       ??0bad_cast@std@@QAE@ABV01@@Z 0041b670 f i efylw5Engine.obj
 0001:0001a6a0       ??0bad_cast@std@@QAE@XZ    0041b6a0 f i efylw5Engine.obj
 0001:0001a6d0       ??0runningState@@QAE@PAVSnakeHead@@PAVefylw5Engine@@@Z 0041b6d0 f i efylw5Engine.obj
 0001:0001a910       ??0startingState@@QAE@PAVefylw5Engine@@@Z 0041b910 f i efylw5Engine.obj
 0001:0001ab40       ??0tutorialState@@QAE@XZ   0041bb40 f i efylw5Engine.obj
 0001:0001ade0       ??0winningState@@QAE@XZ    0041bde0 f i efylw5Engine.obj
 0001:0001b000       ??1?$_Tidy_guard@V?$vector@HV?$allocator@H@std@@@std@@@std@@QAE@XZ 0041c000 f i efylw5Engine.obj
 0001:0001b030       ??1?$_Tidy_guard@V?$vector@PADV?$allocator@PAD@std@@@std@@@std@@QAE@XZ 0041c030 f i efylw5Engine.obj
 0001:0001b060       ??1?$_Tidy_guard@V?$vector@PAVSnakeBody@@V?$allocator@PAVSnakeBody@@@std@@@std@@@std@@QAE@XZ 0041c060 f i efylw5Engine.obj
 0001:0001b090       ??1?$_Uninitialized_backout_al@V?$allocator@H@std@@@std@@QAE@XZ 0041c090 f i efylw5Engine.obj
 0001:0001b0c0       ??1?$_Uninitialized_backout_al@V?$allocator@PAD@std@@@std@@QAE@XZ 0041c0c0 f i efylw5Engine.obj
 0001:0001b0f0       ??1?$_Uninitialized_backout_al@V?$allocator@PAVSnakeBody@@@std@@@std@@QAE@XZ 0041c0f0 f i efylw5Engine.obj
 0001:0001b120       ??1?$_Vector_const_iterator@V?$_Vector_val@U?$_Simple_types@PAVDisplayableObject@@@std@@@std@@@std@@QAE@XZ 0041c120 f i efylw5Engine.obj
 0001:0001b140       ??1?$basic_filebuf@DU?$char_traits@D@std@@@std@@UAE@XZ 0041c140 f i efylw5Engine.obj
 0001:0001b1d0       ??1?$basic_ofstream@DU?$char_traits@D@std@@@std@@UAE@XZ 0041c1d0 f i efylw5Engine.obj
 0001:0001b240       ??1?$pair@V?$basic_string@DU?$char_traits@D@std@@V?$allocator@D@2@@std@@H@std@@QAE@XZ 0041c240 f i efylw5Engine.obj
 0001:0001b260       ??1?$unique_ptr@V_Facet_base@std@@U?$default_delete@V_Facet_base@std@@@2@@std@@QAE@XZ 0041c260 f i efylw5Engine.obj
 0001:0001b2a0       ??1?$vector@HV?$allocator@H@std@@@std@@QAE@XZ 0041c2a0 f i efylw5Engine.obj
 0001:0001b310       ??1?$vector@PADV?$allocator@PAD@std@@@std@@QAE@XZ 0041c310 f i efylw5Engine.obj
 0001:0001b380       ??1?$vector@PAVSnakeBody@@V?$allocator@PAVSnakeBody@@@std@@@std@@QAE@XZ 0041c380 f i efylw5Engine.obj
 0001:0001b3f0       ??1?$vector@U?$pair@V?$basic_string@DU?$char_traits@D@std@@V?$allocator@D@2@@std@@H@std@@V?$allocator@U?$pair@V?$basic_string@DU?$char_traits@D@std@@V?$allocator@D@2@@std@@H@std@@@2@@std@@QAE@XZ 0041c3f0 f i efylw5Engine.obj
 0001:0001b460       ??1States@@QAE@XZ          0041c460 f i efylw5Engine.obj
 0001:0001b4b0       ??1bad_cast@std@@UAE@XZ    0041c4b0 f i efylw5Engine.obj
 0001:0001b4d0       ??1locale@std@@QAE@XZ      0041c4d0 f i efylw5Engine.obj
 0001:0001b530       ??4?$basic_string@DU?$char_traits@D@std@@V?$allocator@D@2@@std@@QAEAAV01@ABV01@@Z 0041c530 f i efylw5Engine.obj
 0001:0001b5b0       ??4?$vector@HV?$allocator@H@std@@@std@@QAEAAV01@ABV01@@Z 0041c5b0 f i efylw5Engine.obj
 0001:0001b640       ??4?$vector@PADV?$allocator@PAD@std@@@std@@QAEAAV01@ABV01@@Z 0041c640 f i efylw5Engine.obj
 0001:0001b6d0       ??4?$vector@PAVSnakeBody@@V?$allocator@PAVSnakeBody@@@std@@@std@@QAEAAV01@ABV01@@Z 0041c6d0 f i efylw5Engine.obj
 0001:0001b760       ??8?$_Vector_const_iterator@V?$_Vector_val@U?$_Simple_types@PAVDisplayableObject@@@std@@@std@@@std@@QBE_NABV01@@Z 0041c760 f i efylw5Engine.obj
 0001:0001b7b0       ??9?$_Vector_const_iterator@V?$_Vector_val@U?$_Simple_types@PAVDisplayableObject@@@std@@@std@@@std@@QBE_NABV01@@Z 0041c7b0 f i efylw5Engine.obj
 0001:0001b800       ??A?$vector@HV?$allocator@H@std@@@std@@QAEAAHI@Z 0041c800 f i efylw5Engine.obj
 0001:0001b8b0       ??A?$vector@PADV?$allocator@PAD@std@@@std@@QAEAAPADI@Z 0041c8b0 f i efylw5Engine.obj
 0001:0001b960       ??A?$vector@U?$pair@V?$basic_string@DU?$char_traits@D@std@@V?$allocator@D@2@@std@@H@std@@V?$allocator@U?$pair@V?$basic_string@DU?$char_traits@D@std@@V?$allocator@D@2@@std@@H@std@@@2@@std@@QAEAAU?$pair@V?$basic_string@DU?$char_traits@D@std@@V?$allocator@D@2@@std@@H@1@I@Z 0041c960 f i efylw5Engine.obj
 0001:0001ba10       ??B?$fpos@U_Mbstatet@@@std@@QBE_JXZ 0041ca10 f i efylw5Engine.obj
 0001:0001ba40       ??D?$_Vector_const_iterator@V?$_Vector_val@U?$_Simple_types@PAVDisplayableObject@@@std@@@std@@@std@@QBEABQAVDisplayableObject@@XZ 0041ca40 f i efylw5Engine.obj
 0001:0001bb50       ??E?$_Vector_const_iterator@V?$_Vector_val@U?$_Simple_types@PAVDisplayableObject@@@std@@@std@@@std@@QAE?AV01@H@Z 0041cb50 f i efylw5Engine.obj
 0001:0001bba0       ??E?$_Vector_const_iterator@V?$_Vector_val@U?$_Simple_types@PAVDisplayableObject@@@std@@@std@@@std@@QAEAAV01@XZ 0041cba0 f i efylw5Engine.obj
 0001:0001bcb0       ??R<lambda_15711c68e099a15a58f4d77303cb286d>@@QBE@QADQBDID@Z 0041ccb0 f i efylw5Engine.obj
 0001:0001bd20       ??R<lambda_9366063389c5f42a00a5088cf24e69de>@@QBE@QADIQBD@Z 0041cd20 f i efylw5Engine.obj
 0001:0001bd70       ??R<lambda_ab246b20b9526e2ef7792587e4298a77>@@QBE@QADQBDI1I@Z 0041cd70 f i efylw5Engine.obj
 0001:0001bde0       ??R?$default_delete@V_Facet_base@std@@@std@@QBEXPAV_Facet_base@1@@Z 0041cde0 f i efylw5Engine.obj
 0001:0001be30       ??Y?$basic_string@DU?$char_traits@D@std@@V?$allocator@D@2@@std@@QAEAAV01@ABV01@@Z 0041ce30 f i efylw5Engine.obj
 0001:0001be50       ??_D?$basic_ofstream@DU?$char_traits@D@std@@@std@@QAEXXZ 0041ce50 f i efylw5Engine.obj
 0001:0001be7a       ??_E?$basic_ofstream@DU?$char_traits@D@std@@@std@@$4PPPPPPPM@A@AEPAXI@Z 0041ce7a f i efylw5Engine.obj
 0001:0001be90       ??_E?$basic_filebuf@DU?$char_traits@D@std@@@std@@UAEPAXI@Z 0041ce90 f i efylw5Engine.obj
 0001:0001be90       ??_G?$basic_filebuf@DU?$char_traits@D@std@@@std@@UAEPAXI@Z 0041ce90 f i efylw5Engine.obj
 0001:0001bed0       ??_E?$basic_ofstream@DU?$char_traits@D@std@@@std@@UAEPAXI@Z 0041ced0 f i efylw5Engine.obj
 0001:0001bed0       ??_G?$basic_ofstream@DU?$char_traits@D@std@@@std@@UAEPAXI@Z 0041ced0 f i efylw5Engine.obj
 0001:0001bf20       ??_G?$pair@V?$basic_string@DU?$char_traits@D@std@@V?$allocator@D@2@@std@@H@std@@QAEPAXI@Z 0041cf20 f i efylw5Engine.obj
 0001:0001bf60       ??_Ebad_cast@std@@UAEPAXI@Z 0041cf60 f i efylw5Engine.obj
 0001:0001bf60       ??_Gbad_cast@std@@UAEPAXI@Z 0041cf60 f i efylw5Engine.obj
 0001:0001bfa0       ?_Buy_nonzero@?$vector@HV?$allocator@H@std@@@std@@AAEXI@Z 0041cfa0 f i efylw5Engine.obj
 0001:0001bfe0       ?_Buy_nonzero@?$vector@PADV?$allocator@PAD@std@@@std@@AAEXI@Z 0041cfe0 f i efylw5Engine.obj
 0001:0001c020       ?_Buy_nonzero@?$vector@PAVSnakeBody@@V?$allocator@PAVSnakeBody@@@std@@@std@@AAEXI@Z 0041d020 f i efylw5Engine.obj
 0001:0001c060       ?_Buy_raw@?$vector@HV?$allocator@H@std@@@std@@AAEXI@Z 0041d060 f i efylw5Engine.obj
 0001:0001c0e0       ?_Buy_raw@?$vector@PADV?$allocator@PAD@std@@@std@@AAEXI@Z 0041d0e0 f i efylw5Engine.obj
 0001:0001c160       ?_Buy_raw@?$vector@PAVSnakeBody@@V?$allocator@PAVSnakeBody@@@std@@@std@@AAEXI@Z 0041d160 f i efylw5Engine.obj
 0001:0001c1e0       ?_Calculate_growth@?$vector@HV?$allocator@H@std@@@std@@ABEII@Z 0041d1e0 f i efylw5Engine.obj
 0001:0001c250       ?_Calculate_growth@?$vector@PADV?$allocator@PAD@std@@@std@@ABEII@Z 0041d250 f i efylw5Engine.obj
 0001:0001c2c0       ?_Calculate_growth@?$vector@PAVSnakeBody@@V?$allocator@PAVSnakeBody@@@std@@@std@@ABEII@Z 0041d2c0 f i efylw5Engine.obj
 0001:0001c330       ?_Change_array@?$vector@PAVSnakeBody@@V?$allocator@PAVSnakeBody@@@std@@@std@@AAEXQAPAVSnakeBody@@II@Z 0041d330 f i efylw5Engine.obj
 0001:0001c400       ?_Check_offset@?$_String_val@U?$_Simple_types@D@std@@@std@@QBEXI@Z 0041d400 f i efylw5Engine.obj
 0001:0001c430       ?_Clamp_suffix_size@?$_String_val@U?$_Simple_types@D@std@@@std@@QBEIII@Z 0041d430 f i efylw5Engine.obj
 0001:0001c470       ?_Clear_and_reserve_geometric@?$vector@HV?$allocator@H@std@@@std@@AAEXI@Z 0041d470 f i efylw5Engine.obj
 0001:0001c560       ?_Clear_and_reserve_geometric@?$vector@PADV?$allocator@PAD@std@@@std@@AAEXI@Z 0041d560 f i efylw5Engine.obj
 0001:0001c650       ?_Clear_and_reserve_geometric@?$vector@PAVSnakeBody@@V?$allocator@PAVSnakeBody@@@std@@@std@@AAEXI@Z 0041d650 f i efylw5Engine.obj
 0001:0001c740       ?_Compat@?$_Vector_const_iterator@V?$_Vector_val@U?$_Simple_types@PAVDisplayableObject@@@std@@@std@@@std@@QBEXABV12@@Z 0041d740 f i efylw5Engine.obj
 0001:0001c7e0       ?_Endwrite@?$basic_filebuf@DU?$char_traits@D@std@@@std@@IAE_NXZ 0041d7e0 f i efylw5Engine.obj
 0001:0001c940       ?_Eos@?$basic_string@DU?$char_traits@D@std@@V?$allocator@D@2@@std@@AAEXI@Z 0041d940 f i efylw5Engine.obj
 0001:0001c990       ?_Equal@?$basic_string@DU?$char_traits@D@std@@V?$allocator@D@2@@std@@QBE_NQBD@Z 0041d990 f i efylw5Engine.obj
 0001:0001c9e0       ?_Erase_noexcept@?$basic_string@DU?$char_traits@D@std@@V?$allocator@D@2@@std@@AAEAAV12@II@Z 0041d9e0 f i efylw5Engine.obj
 0001:0001ca70       ?_Get_first@?$_Compressed_pair@U?$default_delete@V_Facet_base@std@@@std@@PAV_Facet_base@2@$00@std@@QAEAAU?$default_delete@V_Facet_base@std@@@2@XZ 0041da70 f i efylw5Engine.obj
 0001:0001ca90       ?_Get_first@?$_Compressed_pair@V?$allocator@H@std@@V?$_Vector_val@U?$_Simple_types@H@std@@@2@$00@std@@QAEAAV?$allocator@H@2@XZ 0041da90 f i efylw5Engine.obj
 0001:0001cab0       ?_Get_first@?$_Compressed_pair@V?$allocator@H@std@@V?$_Vector_val@U?$_Simple_types@H@std@@@2@$00@std@@QBEABV?$allocator@H@2@XZ 0041dab0 f i efylw5Engine.obj
 0001:0001cad0       ?_Get_first@?$_Compressed_pair@V?$allocator@PAD@std@@V?$_Vector_val@U?$_Simple_types@PAD@std@@@2@$00@std@@QAEAAV?$allocator@PAD@2@XZ 0041dad0 f i efylw5Engine.obj
 0001:0001caf0       ?_Get_first@?$_Compressed_pair@V?$allocator@PAD@std@@V?$_Vector_val@U?$_Simple_types@PAD@std@@@2@$00@std@@QBEABV?$allocator@PAD@2@XZ 0041daf0 f i efylw5Engine.obj
 0001:0001cb10       ?_Get_first@?$_Compressed_pair@V?$allocator@PAVSnakeBody@@@std@@V?$_Vector_val@U?$_Simple_types@PAVSnakeBody@@@std@@@2@$00@std@@QAEAAV?$allocator@PAVSnakeBody@@@2@XZ 0041db10 f i efylw5Engine.obj
 0001:0001cb30       ?_Get_first@?$_Compressed_pair@V?$allocator@PAVSnakeBody@@@std@@V?$_Vector_val@U?$_Simple_types@PAVSnakeBody@@@std@@@2@$00@std@@QBEABV?$allocator@PAVSnakeBody@@@2@XZ 0041db30 f i efylw5Engine.obj
 0001:0001cb50       ?_Get_first@?$_Compressed_pair@V?$allocator@U?$pair@V?$basic_string@DU?$char_traits@D@std@@V?$allocator@D@2@@std@@H@std@@@std@@V?$_Vector_val@U?$_Simple_types@U?$pair@V?$basic_string@DU?$char_traits@D@std@@V?$allocator@D@2@@std@@H@std@@@std@@@2@$00@std@@QAEAAV?$allocator@U?$pair@V?$basic_string@DU?$char_traits@D@std@@V?$allocator@D@2@@std@@H@std@@@2@XZ 0041db50 f i efylw5Engine.obj
 0001:0001cb70       ?_Getal@?$vector@HV?$allocator@H@std@@@std@@AAEAAV?$allocator@H@2@XZ 0041db70 f i efylw5Engine.obj
 0001:0001cb90       ?_Getal@?$vector@HV?$allocator@H@std@@@std@@ABEABV?$allocator@H@2@XZ 0041db90 f i efylw5Engine.obj
 0001:0001cbb0       ?_Getal@?$vector@PADV?$allocator@PAD@std@@@std@@AAEAAV?$allocator@PAD@2@XZ 0041dbb0 f i efylw5Engine.obj
 0001:0001cbd0       ?_Getal@?$vector@PADV?$allocator@PAD@std@@@std@@ABEABV?$allocator@PAD@2@XZ 0041dbd0 f i efylw5Engine.obj
 0001:0001cbf0       ?_Getal@?$vector@PAVSnakeBody@@V?$allocator@PAVSnakeBody@@@std@@@std@@AAEAAV?$allocator@PAVSnakeBody@@@2@XZ 0041dbf0 f i efylw5Engine.obj
 0001:0001cc10       ?_Getal@?$vector@PAVSnakeBody@@V?$allocator@PAVSnakeBody@@@std@@@std@@ABEABV?$allocator@PAVSnakeBody@@@2@XZ 0041dc10 f i efylw5Engine.obj
 0001:0001cc30       ?_Getal@?$vector@U?$pair@V?$basic_string@DU?$char_traits@D@std@@V?$allocator@D@2@@std@@H@std@@V?$allocator@U?$pair@V?$basic_string@DU?$char_traits@D@std@@V?$allocator@D@2@@std@@H@std@@@2@@std@@AAEAAV?$allocator@U?$pair@V?$basic_string@DU?$char_traits@D@std@@V?$allocator@D@2@@std@@H@std@@@2@XZ 0041dc30 f i efylw5Engine.obj
 0001:0001cc50       ?_Getfacet@locale@std@@QBEPBVfacet@12@I@Z 0041dc50 f i efylw5Engine.obj
 0001:0001ccf0       ?_Init@?$basic_filebuf@DU?$char_traits@D@std@@@std@@IAEXPAU_iobuf@@W4_Initfl@12@@Z 0041dcf0 f i efylw5Engine.obj
 0001:0001cdf0       ?_Initcvt@?$basic_filebuf@DU?$char_traits@D@std@@@std@@IAEXABV?$codecvt@DDU_Mbstatet@@@2@@Z 0041ddf0 f i efylw5Engine.obj
 0001:0001ce50       ?_Lock@?$basic_filebuf@DU?$char_traits@D@std@@@std@@UAEXXZ 0041de50 f i efylw5Engine.obj
 0001:0001ce80       ?_Myptr@?$_String_val@U?$_Simple_types@D@std@@@std@@QAEPADXZ 0041de80 f i efylw5Engine.obj
 0001:0001ced0       ?_Orphan_range@?$vector@PAVSnakeBody@@V?$allocator@PAVSnakeBody@@@std@@@std@@ABEXPAPAVSnakeBody@@0@Z 0041ded0 f i efylw5Engine.obj
 0001:0001cf00       ?_Orphan_range_locked@?$vector@PAVSnakeBody@@V?$allocator@PAVSnakeBody@@@std@@@std@@ABEXPAPAVSnakeBody@@0@Z 0041df00 f i efylw5Engine.obj
 0001:0001cf90       ?_Orphan_range_unlocked@?$vector@PAVSnakeBody@@V?$allocator@PAVSnakeBody@@@std@@@std@@ABEXPAPAVSnakeBody@@0@Z 0041df90 f i efylw5Engine.obj
 0001:0001d010       ?_Release@?$_Uninitialized_backout_al@V?$allocator@H@std@@@std@@QAEPAHXZ 0041e010 f i efylw5Engine.obj
 0001:0001d040       ?_Release@?$_Uninitialized_backout_al@V?$allocator@PAD@std@@@std@@QAEPAPADXZ 0041e040 f i efylw5Engine.obj
 0001:0001d070       ?_Release@?$_Uninitialized_backout_al@V?$allocator@PAVSnakeBody@@@std@@@std@@QAEPAPAVSnakeBody@@XZ 0041e070 f i efylw5Engine.obj
 0001:0001d0a0       ?_Reset_back@?$basic_filebuf@DU?$char_traits@D@std@@@std@@AAEXXZ 0041e0a0 f i efylw5Engine.obj
 0001:0001d0f0       ?_Set_back@?$basic_filebuf@DU?$char_traits@D@std@@@std@@AAEXXZ 0041e0f0 f i efylw5Engine.obj
 0001:0001d160       ?_Throw_bad_cast@std@@YAXXZ 0041e160 f i efylw5Engine.obj
 0001:0001d190       ?_Tidy@?$vector@HV?$allocator@H@std@@@std@@AAEXXZ 0041e190 f i efylw5Engine.obj
 0001:0001d290       ?_Tidy@?$vector@PADV?$allocator@PAD@std@@@std@@AAEXXZ 0041e290 f i efylw5Engine.obj
 0001:0001d390       ?_Tidy@?$vector@PAVSnakeBody@@V?$allocator@PAVSnakeBody@@@std@@@std@@AAEXXZ 0041e390 f i efylw5Engine.obj
 0001:0001d490       ?_Tidy@?$vector@U?$pair@V?$basic_string@DU?$char_traits@D@std@@V?$allocator@D@2@@std@@H@std@@V?$allocator@U?$pair@V?$basic_string@DU?$char_traits@D@std@@V?$allocator@D@2@@std@@H@std@@@2@@std@@AAEXXZ 0041e490 f i efylw5Engine.obj
 0001:0001d590       ?_Unlock@?$basic_filebuf@DU?$char_traits@D@std@@@std@@UAEXXZ 0041e590 f i efylw5Engine.obj
 0001:0001d5c0       ?_Xlength@?$vector@HV?$allocator@H@std@@@std@@CAXXZ 0041e5c0 f i efylw5Engine.obj
 0001:0001d5e0       ?_Xlength@?$vector@PADV?$allocator@PAD@std@@@std@@CAXXZ 0041e5e0 f i efylw5Engine.obj
 0001:0001d600       ?_Xlength@?$vector@PAVSnakeBody@@V?$allocator@PAVSnakeBody@@@std@@@std@@CAXXZ 0041e600 f i efylw5Engine.obj
 0001:0001d620       ?_Xran@?$_String_val@U?$_Simple_types@D@std@@@std@@SAXXZ 0041e620 f i efylw5Engine.obj
 0001:0001d640       ?allocate@?$allocator@H@std@@QAEPAHI@Z 0041e640 f i efylw5Engine.obj
 0001:0001d670       ?allocate@?$allocator@PAD@std@@QAEPAPADI@Z 0041e670 f i efylw5Engine.obj
 0001:0001d6a0       ?allocate@?$allocator@PAVSnakeBody@@@std@@QAEPAPAVSnakeBody@@I@Z 0041e6a0 f i efylw5Engine.obj
 0001:0001d6d0       ?append@?$basic_string@DU?$char_traits@D@std@@V?$allocator@D@2@@std@@QAEAAV12@ABV12@@Z 0041e6d0 f i efylw5Engine.obj
 0001:0001d700       ?append@?$basic_string@DU?$char_traits@D@std@@V?$allocator@D@2@@std@@QAEAAV12@QBDI@Z 0041e700 f i efylw5Engine.obj
 0001:0001d7c0       ?appendObjectToArray@DisplayableObjectContainer@@QAEXPAVDisplayableObject@@@Z 0041e7c0 f i efylw5Engine.obj
 0001:0001d800       ?assign@?$basic_string@DU?$char_traits@D@std@@V?$allocator@D@2@@std@@QAEAAV12@QBDI@Z 0041e800 f i efylw5Engine.obj
 0001:0001d8a0       ?begin@?$initializer_list@H@std@@QBEPBHXZ 0041e8a0 f i efylw5Engine.obj
 0001:0001d8c0       ?begin@?$initializer_list@PAD@std@@QBEPBQADXZ 0041e8c0 f i efylw5Engine.obj
 0001:0001d8e0       ?begin@?$vector@PAVDisplayableObject@@V?$allocator@PAVDisplayableObject@@@std@@@std@@QBE?AV?$_Vector_const_iterator@V?$_Vector_val@U?$_Simple_types@PAVDisplayableObject@@@std@@@std@@@2@XZ 0041e8e0 f i efylw5Engine.obj
 0001:0001d930       ?capacity@?$vector@HV?$allocator@H@std@@@std@@QBEIXZ 0041e930 f i efylw5Engine.obj
 0001:0001d960       ?capacity@?$vector@PADV?$allocator@PAD@std@@@std@@QBEIXZ 0041e960 f i efylw5Engine.obj
 0001:0001d990       ?capacity@?$vector@PAVSnakeBody@@V?$allocator@PAVSnakeBody@@@std@@@std@@QBEIXZ 0041e990 f i efylw5Engine.obj
 0001:0001d9c0       ?close@?$basic_filebuf@DU?$char_traits@D@std@@@std@@QAEPAV12@XZ 0041e9c0 f i efylw5Engine.obj
 0001:0001da50       ?close@?$basic_ofstream@DU?$char_traits@D@std@@@std@@QAEXXZ 0041ea50 f i efylw5Engine.obj
 0001:0001da90       ?deallocate@?$allocator@H@std@@QAEXQAHI@Z 0041ea90 f i efylw5Engine.obj
 0001:0001db30       ?deallocate@?$allocator@PAD@std@@QAEXQAPADI@Z 0041eb30 f i efylw5Engine.obj
 0001:0001dbd0       ?deallocate@?$allocator@PAVSnakeBody@@@std@@QAEXQAPAVSnakeBody@@I@Z 0041ebd0 f i efylw5Engine.obj
 0001:0001dc70       ?deallocate@?$allocator@U?$pair@V?$basic_string@DU?$char_traits@D@std@@V?$allocator@D@2@@std@@H@std@@@std@@QAEXQAU?$pair@V?$basic_string@DU?$char_traits@D@std@@V?$allocator@D@2@@std@@H@2@I@Z 0041ec70 f i efylw5Engine.obj
 0001:0001dd10       ?drawBackgroundRectangle@BaseEngine@@QAEXHHHHI@Z 0041ed10 f i efylw5Engine.obj
 0001:0001dd50       ?drawForegroundString@BaseEngine@@QAEXHHPBDIPAVFont@@@Z 0041ed50 f i efylw5Engine.obj
 0001:0001dd90       ?end@?$initializer_list@H@std@@QBEPBHXZ 0041ed90 f i efylw5Engine.obj
 0001:0001ddb0       ?end@?$initializer_list@PAD@std@@QBEPBQADXZ 0041edb0 f i efylw5Engine.obj
 0001:0001ddd0       ?end@?$vector@PAVDisplayableObject@@V?$allocator@PAVDisplayableObject@@@std@@@std@@QBE?AV?$_Vector_const_iterator@V?$_Vector_val@U?$_Simple_types@PAVDisplayableObject@@@std@@@std@@@2@XZ 0041edd0 f i efylw5Engine.obj
 0001:0001de20       ?erase@?$basic_string@DU?$char_traits@D@std@@V?$allocator@D@2@@std@@QAEAAV12@II@Z 0041ee20 f i efylw5Engine.obj
 0001:0001de60       ?front@?$basic_string@DU?$char_traits@D@std@@V?$allocator@D@2@@std@@QAEAADXZ 0041ee60 f i efylw5Engine.obj
 0001:0001df00       ?getBackgroundSurface@BaseEngine@@QAEPAVDrawingSurface@@XZ 0041ef00 f i efylw5Engine.obj
 0001:0001df20       ?getBodyCount@SnakeHead@@QAEHXZ 0041ef20 f i efylw5Engine.obj
 0001:0001df40       ?getCoordX@States@@QAE?AV?$vector@HV?$allocator@H@std@@@std@@XZ 0041ef40 f i efylw5Engine.obj
 0001:0001df80       ?getCoordY@States@@QAE?AV?$vector@HV?$allocator@H@std@@@std@@XZ 0041ef80 f i efylw5Engine.obj
 0001:0001dfc0       ?getCurrentState@efylw5Engine@@QAEPAVStates@@XZ 0041efc0 f i efylw5Engine.obj
 0001:0001dfe0       ?getImageURL@States@@QAE?AV?$basic_string@DU?$char_traits@D@std@@V?$allocator@D@2@@std@@XZ 0041efe0 f i efylw5Engine.obj
 0001:0001e020       ?getName@efylw5Engine@@QAE?AV?$basic_string@DU?$char_traits@D@std@@V?$allocator@D@2@@std@@XZ 0041f020 f i efylw5Engine.obj
 0001:0001e060       ?getSnakeBodyCoords@SnakeHead@@QAE?AV?$vector@PAVSnakeBody@@V?$allocator@PAVSnakeBody@@@std@@@std@@XZ 0041f060 f i efylw5Engine.obj
 0001:0001e0a0       ?getState@States@@QAEHXZ   0041f0a0 f i efylw5Engine.obj
 0001:0001e0c0       ?getStr@States@@QAE?AV?$vector@PADV?$allocator@PAD@std@@@std@@XZ 0041f0c0 f i efylw5Engine.obj
 0001:0001e100       ?imbue@?$basic_filebuf@DU?$char_traits@D@std@@@std@@MAEXABVlocale@2@@Z 0041f100 f i efylw5Engine.obj
 0001:0001e130       ?isPaused@BaseEngine@@QAE_NXZ 0041f130 f i efylw5Engine.obj
 0001:0001e170       ?length@?$basic_string@DU?$char_traits@D@std@@V?$allocator@D@2@@std@@QBEIXZ 0041f170 f i efylw5Engine.obj
 0001:0001e190       ?loadImage@ImageManager@@SA?AVSimpleImage@@V?$basic_string@DU?$char_traits@D@std@@V?$allocator@D@2@@std@@_N@Z 0041f190 f i efylw5Engine.obj
 0001:0001e250       ?lockAndSetupBackground@BaseEngine@@QAEXXZ 0041f250 f i efylw5Engine.obj
 0001:0001e290       ?lockBackgroundForDrawing@BaseEngine@@QAEXXZ 0041f290 f i efylw5Engine.obj
 0001:0001e2b0       ?max_size@?$_Default_allocator_traits@V?$allocator@H@std@@@std@@SAIABV?$allocator@H@2@@Z 0041f2b0 f i efylw5Engine.obj
 0001:0001e2c0       ?max_size@?$_Default_allocator_traits@V?$allocator@PAD@std@@@std@@SAIABV?$allocator@PAD@2@@Z 0041f2c0 f i efylw5Engine.obj
 0001:0001e2d0       ?max_size@?$_Default_allocator_traits@V?$allocator@PAVSnakeBody@@@std@@@std@@SAIABV?$allocator@PAVSnakeBody@@@2@@Z 0041f2d0 f i efylw5Engine.obj
 0001:0001e2e0       ?max_size@?$vector@HV?$allocator@H@std@@@std@@QBEIXZ 0041f2e0 f i efylw5Engine.obj
 0001:0001e330       ?max_size@?$vector@PADV?$allocator@PAD@std@@@std@@QBEIXZ 0041f330 f i efylw5Engine.obj
 0001:0001e380       ?max_size@?$vector@PAVSnakeBody@@V?$allocator@PAVSnakeBody@@@std@@@std@@QBEIXZ 0041f380 f i efylw5Engine.obj
 0001:0001e3d0       ?mySDLLockSurface@DrawingSurface@@QAEXXZ 0041f3d0 f i efylw5Engine.obj
 0001:0001e420       ?mySDLUnlockSurface@DrawingSurface@@QAEXXZ 0041f420 f i efylw5Engine.obj
 0001:0001e470       ?not_eof@?$_Narrow_char_traits@DH@std@@SAHABH@Z 0041f470 f i efylw5Engine.obj
 0001:0001e4d0       ?open@?$basic_filebuf@DU?$char_traits@D@std@@@std@@QAEPAV12@PBDHH@Z 0041f4d0 f i efylw5Engine.obj
 0001:0001e5c0       ?open@?$basic_ofstream@DU?$char_traits@D@std@@@std@@QAEXPBDHH@Z 0041f5c0 f i efylw5Engine.obj
 0001:0001e640       ?overflow@?$basic_filebuf@DU?$char_traits@D@std@@@std@@MAEHH@Z 0041f640 f i efylw5Engine.obj
 0001:0001e890       ?pause@BaseEngine@@QAEXXZ  0041f890 f i efylw5Engine.obj
 0001:0001e8c0       ?pbackfail@?$basic_filebuf@DU?$char_traits@D@std@@@std@@MAEHH@Z 0041f8c0 f i efylw5Engine.obj
 0001:0001ea70       ?pop_back@?$basic_string@DU?$char_traits@D@std@@V?$allocator@D@2@@std@@QAEXXZ 0041fa70 f i efylw5Engine.obj
 0001:0001eb50       ?push_back@?$basic_string@DU?$char_traits@D@std@@V?$allocator@D@2@@std@@QAEXD@Z 0041fb50 f i efylw5Engine.obj
 0001:0001ec00       ?push_back@?$vector@PAVDisplayableObject@@V?$allocator@PAVDisplayableObject@@@std@@@std@@QAEXABQAVDisplayableObject@@@Z 0041fc00 f i efylw5Engine.obj
 0001:0001ec20       ?push_back@?$vector@PAVSnakeBody@@V?$allocator@PAVSnakeBody@@@std@@@std@@QAEXABQAVSnakeBody@@@Z 0041fc20 f i efylw5Engine.obj
 0001:0001ec40       ?redrawDisplay@BaseEngine@@QAEXXZ 0041fc40 f i efylw5Engine.obj
 0001:0001ec60       ?release@?$unique_ptr@V_Facet_base@std@@U?$default_delete@V_Facet_base@std@@@2@@std@@QAEPAV_Facet_base@2@XZ 0041fc60 f i efylw5Engine.obj
 0001:0001ec90       ?seekoff@?$basic_filebuf@DU?$char_traits@D@std@@@std@@MAE?AV?$fpos@U_Mbstatet@@@2@_JHH@Z 0041fc90 f i efylw5Engine.obj
 0001:0001eda0       ?seekpos@?$basic_filebuf@DU?$char_traits@D@std@@@std@@MAE?AV?$fpos@U_Mbstatet@@@2@V32@H@Z 0041fda0 f i efylw5Engine.obj
 0001:0001ee70       ?select_on_container_copy_construction@?$_Default_allocator_traits@V?$allocator@H@std@@@std@@SA?AV?$allocator@H@2@ABV32@@Z 0041fe70 f i efylw5Engine.obj
 0001:0001ee80       ?select_on_container_copy_construction@?$_Default_allocator_traits@V?$allocator@PAD@std@@@std@@SA?AV?$allocator@PAD@2@ABV32@@Z 0041fe80 f i efylw5Engine.obj
 0001:0001ee90       ?select_on_container_copy_construction@?$_Default_allocator_traits@V?$allocator@PAVSnakeBody@@@std@@@std@@SA?AV?$allocator@PAVSnakeBody@@@2@ABV32@@Z 0041fe90 f i efylw5Engine.obj
 0001:0001eea0       ?setAllObjectsVisible@DisplayableObjectContainer@@QBEX_N@Z 0041fea0 f i efylw5Engine.obj
 0001:0001efa0       ?setBodyCount@SnakeHead@@QAEXH@Z 0041ffa0 f i efylw5Engine.obj
 0001:0001efc0       ?setCoordX@States@@QAEXV?$vector@HV?$allocator@H@std@@@std@@@Z 0041ffc0 f i efylw5Engine.obj
 0001:0001f040       ?setCoordY@States@@QAEXV?$vector@HV?$allocator@H@std@@@std@@@Z 00420040 f i efylw5Engine.obj
 0001:0001f0c0       ?setCurrentState@efylw5Engine@@QAEXPAVStates@@@Z 004200c0 f i efylw5Engine.obj
 0001:0001f0e0       ?setEngine@States@@QAEXPAVefylw5Engine@@@Z 004200e0 f i efylw5Engine.obj
 0001:0001f100       ?setImageURL@States@@QAEXV?$basic_string@DU?$char_traits@D@std@@V?$allocator@D@2@@std@@@Z 00420100 f i efylw5Engine.obj
 0001:0001f180       ?setName@efylw5Engine@@QAEXV?$basic_string@DU?$char_traits@D@std@@V?$allocator@D@2@@std@@@Z 00420180 f i efylw5Engine.obj
 0001:0001f200       ?setReturnToGame@efylw5Engine@@QAEX_N@Z 00420200 f i efylw5Engine.obj
 0001:0001f220       ?setReturnToTutorial@efylw5Engine@@QAEX_N@Z 00420220 f i efylw5Engine.obj
 0001:0001f240       ?setSnakeBodyCoords@SnakeHead@@QAEXV?$vector@PAVSnakeBody@@V?$allocator@PAVSnakeBody@@@std@@@std@@@Z 00420240 f i efylw5Engine.obj
 0001:0001f2c0       ?setSnakeHead@efylw5Engine@@QAEXPAVSnakeHead@@@Z 004202c0 f i efylw5Engine.obj
 0001:0001f2e0       ?setState@States@@QAEXH@Z  004202e0 f i efylw5Engine.obj
 0001:0001f300       ?setState@efylw5Engine@@QAEXH@Z 00420300 f i efylw5Engine.obj
 0001:0001f320       ?setStr@States@@QAEXV?$vector@PADV?$allocator@PAD@std@@@std@@@Z 00420320 f i efylw5Engine.obj
 0001:0001f3a0       ?setbuf@?$basic_filebuf@DU?$char_traits@D@std@@@std@@MAEPAV?$basic_streambuf@DU?$char_traits@D@std@@@2@PAD_J@Z 004203a0 f i efylw5Engine.obj
 0001:0001f440       ?size@?$initializer_list@H@std@@QBEIXZ 00420440 f i efylw5Engine.obj
 0001:0001f460       ?size@?$initializer_list@PAD@std@@QBEIXZ 00420460 f i efylw5Engine.obj
 0001:0001f480       ?size@?$vector@PADV?$allocator@PAD@std@@@std@@QBEIXZ 00420480 f i efylw5Engine.obj
 0001:0001f4b0       ?state@?$fpos@U_Mbstatet@@@std@@QBE?AU_Mbstatet@@XZ 004204b0 f i efylw5Engine.obj
 0001:0001f4e0       ?sync@?$basic_filebuf@DU?$char_traits@D@std@@@std@@MAEHXZ 004204e0 f i efylw5Engine.obj
 0001:0001f560       ?to_char_type@?$_Narrow_char_traits@DH@std@@SADABH@Z 00420560 f i efylw5Engine.obj
 0001:0001f570       ?to_int_type@?$_Narrow_char_traits@DH@std@@SAHABD@Z 00420570 f i efylw5Engine.obj
 0001:0001f580       ?to_string@std@@YA?AV?$basic_string@DU?$char_traits@D@std@@V?$allocator@D@2@@1@H@Z 00420580 f i efylw5Engine.obj
 0001:0001f5c0       ?uflow@?$basic_filebuf@DU?$char_traits@D@std@@@std@@MAEHXZ 004205c0 f i efylw5Engine.obj
 0001:0001f8d0       ?underflow@?$basic_filebuf@DU?$char_traits@D@std@@@std@@MAEHXZ 004208d0 f i efylw5Engine.obj
 0001:0001f990       ?unlockBackgroundForDrawing@BaseEngine@@QAEXXZ 00420990 f i efylw5Engine.obj
 0001:0001f9b0       ?unpause@BaseEngine@@QAEXXZ 004209b0 f i efylw5Engine.obj
 0001:0001fa00       ?xsgetn@?$basic_filebuf@DU?$char_traits@D@std@@@std@@MAE_JPAD_J@Z 00420a00 f i efylw5Engine.obj
 0001:0001fbc0       ?xsputn@?$basic_filebuf@DU?$char_traits@D@std@@@std@@MAE_JPBD_J@Z 00420bc0 f i efylw5Engine.obj
 0001:0001fd20       __vsnprintf_l              00420d20 f i efylw5Engine.obj
 0001:0001fd90       __vsprintf_l               00420d90 f i efylw5Engine.obj
 0001:0001fdc0       _sprintf                   00420dc0 f i efylw5Engine.obj
 0001:0001fe00       ??0FlashingDemo@@QAE@XZ    00420e00 f   FlashingDemo.obj
 0001:0001fec0       ??1FlashingDemo@@UAE@XZ    00420ec0 f   FlashingDemo.obj
 0001:0001ff10       ?virtSetupBackgroundBuffer@FlashingDemo@@UAEXXZ 00420f10 f   FlashingDemo.obj
 0001:00020390       ?virtMainLoopDoBeforeUpdate@FlashingDemo@@UAEXXZ 00421390 f   FlashingDemo.obj
 0001:00020450       ?virtCreateSurfaces@FlashingDemo@@UAEXXZ 00421450 f   FlashingDemo.obj
 0001:000204c0       ?_Tidy@?$vector@V?$basic_string@DU?$char_traits@D@std@@V?$allocator@D@2@@std@@V?$allocator@V?$basic_string@DU?$char_traits@D@std@@V?$allocator@D@2@@std@@@2@@std@@AAEXXZ 004214c0 f i MovingText.obj
 0001:00020670       ??1DrawingSurface@@QAE@XZ  00421670 f i FlashingDemo.obj
 0001:00020680       ??_EFlashingDemo@@UAEPAXI@Z 00421680 f i FlashingDemo.obj
 0001:00020680       ??_GFlashingDemo@@UAEPAXI@Z 00421680 f i FlashingDemo.obj
 0001:000206c0       ?copyAllBackgroundBuffer@BaseEngine@@UAEXXZ 004216c0 f i FlashingDemo.obj
 0001:000206f0       ?copyBackgroundPixels@BaseEngine@@UAEXHHHH@Z 004216f0 f i FlashingDemo.obj
 0001:00020740       ?createSurface@DrawingSurface@@QAEXHH@Z 00421740 f i FlashingDemo.obj
 0001:00020790       ?destroyOldObjects@DisplayableObjectContainer@@UAEX_N@Z 00421790 f i FlashingDemo.obj
 0001:00020880       ?fillBackground@BaseEngine@@UAEXI@Z 00421880 f i FlashingDemo.obj
 0001:000208b0       ?fillSurface@DrawingSurface@@QAEXI@Z 004218b0 f i FlashingDemo.obj
 0001:00020940       ?filter@BaseEngine@@UAE_NPAVDrawingSurface@@AAH1AAI@Z 00421940 f i FlashingDemo.obj
 0001:00020a00       ?filterConvertRealToVirtualXPosition@FilterPoints@@UAEHH@Z 00421a00 f i FlashingDemo.obj
 0001:00020a20       ?filterConvertRealToVirtualYPosition@FilterPoints@@UAEHH@Z 00421a20 f i FlashingDemo.obj
 0001:00020a40       ?filterConvertVirtualToRealXPosition@FilterPoints@@UAEHH@Z 00421a40 f i FlashingDemo.obj
 0001:00020a60       ?filterConvertVirtualToRealYPosition@FilterPoints@@UAEHH@Z 00421a60 f i FlashingDemo.obj
 0001:00020a80       ?getModifiedTime@BaseEngine@@UBEHXZ 00421a80 f i FlashingDemo.obj
 0001:00020ac0       ?size@?$vector@PAVDisplayableObject@@V?$allocator@PAVDisplayableObject@@@std@@@std@@QBEIXZ 00421ac0 f i FlashingDemo.obj
 0001:00020af0       ?virtBackgroundMouseDown@BaseEngine@@UAEXHHHHH@Z 00421af0 f i FlashingDemo.obj
 0001:00020b00       ?virtMainLoopDoAfterUpdate@BaseEngine@@UAEXXZ 00421b00 f i FlashingDemo.obj
 0001:00020b10       ?virtMainLoopPostUpdate@BaseEngine@@UAEXXZ 00421b10 f i FlashingDemo.obj
 0001:00020b20       ?virtMainLoopPreUpdate@BaseEngine@@UAEXXZ 00421b20 f i FlashingDemo.obj
 0001:00020b30       ?virtMainLoopStartIteration@BaseEngine@@UAEXXZ 00421b30 f i FlashingDemo.obj
 0001:00020b40       ?virtMouseWheel@BaseEngine@@UAEXHHHH@Z 00421b40 f i FlashingDemo.obj
 0001:00020b50       ?virtPostDraw@BaseEngine@@UAEXXZ 00421b50 f i FlashingDemo.obj
 0001:00020b60       ?virtPreDraw@BaseEngine@@UAEXXZ 00421b60 f i FlashingDemo.obj
 0001:00020b70       ?virtRealMouseDown@BaseEngine@@UAEXHHH@Z 00421b70 f i FlashingDemo.obj
 0001:00020b80       ?virtRealMouseUp@BaseEngine@@UAEXHHH@Z 00421b80 f i FlashingDemo.obj
 0001:00020b90       ?virtTouchEvent@BaseEngine@@UAEXHH_J0MMMMM@Z 00421b90 f i FlashingDemo.obj
 0001:00020ba0       ??0HSObjectL@@QAE@PAVefylw5Engine@@HHHHHH@Z 00421ba0 f   HSObjectL.obj
 0001:00020c80       ??1HSObjectL@@UAE@XZ       00421c80 f   HSObjectL.obj
 0001:00020ca0       ?virtDraw@HSObjectL@@UAEXXZ 00421ca0 f   HSObjectL.obj
 0001:00020cc0       ?virtDoUpdate@HSObjectL@@UAEXH@Z 00421cc0 f   HSObjectL.obj
 0001:00020d80       ?drawEffect@HSObjectL@@QAEXXZ 00421d80 f   HSObjectL.obj
 0001:00021000       ?insert@?$basic_string@DU?$char_traits@D@std@@V?$allocator@D@2@@std@@QAEAAV12@IQBDI@Z 00422000 f i MovingText.obj
 0001:00021120       ??0MovementPosition@@QAE@XZ 00422120 f i HSObjectL.obj
 0001:000211a0       ??_EHSObjectL@@UAEPAXI@Z   004221a0 f i HSObjectL.obj
 0001:000211a0       ??_GHSObjectL@@UAEPAXI@Z   004221a0 f i HSObjectL.obj
 0001:000211e0       ?calculate@MovementPosition@@QAEXH@Z 004221e0 f i HSObjectL.obj
 0001:000212d0       ?drawForegroundThickLine@BaseEngine@@QAEXHHHHIH@Z 004222d0 f i HSObjectL.obj
 0001:00021340       ?getAnimationEndX@HSObjectL@@QAEHXZ 00422340 f i HSObjectL.obj
 0001:00021360       ?getAnimationEndY@HSObjectL@@QAEHXZ 00422360 f i HSObjectL.obj
 0001:00021380       ?getAnimationStartX@HSObjectL@@QAEHXZ 00422380 f i HSObjectL.obj
 0001:000213a0       ?getAnimationStartY@HSObjectL@@QAEHXZ 004223a0 f i HSObjectL.obj
 0001:000213c0       ?getX@MovementPosition@@QBEHXZ 004223c0 f i HSObjectL.obj
 0001:000213e0       ?getY@MovementPosition@@QBEHXZ 004223e0 f i HSObjectL.obj
 0001:00021400       ?hasMovementFinished@MovementPosition@@QBE_NH@Z 00422400 f i HSObjectL.obj
 0001:00021440       ?setAnimationEndX@HSObjectL@@QAEXH@Z 00422440 f i HSObjectL.obj
 0001:00021460       ?setAnimationEndY@HSObjectL@@QAEXH@Z 00422460 f i HSObjectL.obj
 0001:00021480       ?setAnimationStartX@HSObjectL@@QAEXH@Z 00422480 f i HSObjectL.obj
 0001:000214a0       ?setAnimationStartY@HSObjectL@@QAEXH@Z 004224a0 f i HSObjectL.obj
 0001:000214c0       ?setup@MovementPosition@@QAEXHHHHHH@Z 004224c0 f i HSObjectL.obj
 0001:00021530       ??0HSObjectR@@QAE@PAVefylw5Engine@@HHHHHH@Z 00422530 f   HSObjectR.obj
 0001:00021610       ??1HSObjectR@@UAE@XZ       00422610 f   HSObjectR.obj
 0001:00021630       ?virtDraw@HSObjectR@@UAEXXZ 00422630 f   HSObjectR.obj
 0001:00021650       ?virtDoUpdate@HSObjectR@@UAEXH@Z 00422650 f   HSObjectR.obj
 0001:00021710       ?drawEffect@HSObjectR@@QAEXXZ 00422710 f   HSObjectR.obj
 0001:00021a60       ??_EHSObjectR@@UAEPAXI@Z   00422a60 f i HSObjectR.obj
 0001:00021a60       ??_GHSObjectR@@UAEPAXI@Z   00422a60 f i HSObjectR.obj
 0001:00021aa0       ?getAnimationEndX@HSObjectR@@QAEHXZ 00422aa0 f i HSObjectR.obj
 0001:00021ac0       ?getAnimationEndY@HSObjectR@@QAEHXZ 00422ac0 f i HSObjectR.obj
 0001:00021ae0       ?getAnimationStartX@HSObjectR@@QAEHXZ 00422ae0 f i HSObjectR.obj
 0001:00021b00       ?getAnimationStartY@HSObjectR@@QAEHXZ 00422b00 f i HSObjectR.obj
 0001:00021b20       ?setAnimationEndX@HSObjectR@@QAEXH@Z 00422b20 f i HSObjectR.obj
 0001:00021b40       ?setAnimationEndY@HSObjectR@@QAEXH@Z 00422b40 f i HSObjectR.obj
 0001:00021b60       ?setAnimationStartX@HSObjectR@@QAEXH@Z 00422b60 f i HSObjectR.obj
 0001:00021b80       ?setAnimationStartY@HSObjectR@@QAEXH@Z 00422b80 f i HSObjectR.obj
 0001:00021ba0       ?virtSetupBackgroundBuffer@ImageMappingDemo@@UAEXXZ 00422ba0 f   ImageMappingDemo.obj
 0001:00021ca0       ?virtInitialiseObjects@ImageMappingDemo@@UAEHXZ 00422ca0 f   ImageMappingDemo.obj
 0001:00022010       ?virtKeyDown@ImageMappingDemo@@UAEXH@Z 00423010 f   ImageMappingDemo.obj
 0001:00022040       ?virtMainLoopDoBeforeUpdate@ImageMappingDemo@@UAEXXZ 00423040 f   ImageMappingDemo.obj
 0001:000220d0       ?mapCoordinates@ImageMappingDemo@@UAE_NAAN0ABVSimpleImage@@@Z 004230d0 f   ImageMappingDemo.obj
 0001:00022540       ??0MappableImageObject@@QAE@PAVImagePixelMapping@@HHPAVBaseEngine@@V?$basic_string@DU?$char_traits@D@std@@V?$allocator@D@2@@std@@_N3@Z 00423540 f i ImageMappingDemo.obj
 0001:00022600       ??1MappableImageObject@@UAE@XZ 00423600 f i ImageMappingDemo.obj
 0001:00022620       ??_EMappableImageObject@@UAEPAXI@Z 00423620 f i ImageMappingDemo.obj
 0001:00022620       ??_GMappableImageObject@@UAEPAXI@Z 00423620 f i ImageMappingDemo.obj
 0001:00022660       ?getPixelColour@MappableImageObject@@QAEHHH@Z 00423660 f i ImageMappingDemo.obj
 0001:00022690       ?getPixelColour@SimpleImage@@QBEHHH@Z 00423690 f i ImageMappingDemo.obj
 0001:000226c0       ?getRawPixelColour@RawImageData@@QBEHHH@Z 004236c0 f i ImageMappingDemo.obj
 0001:00022710       ?getTheData@SimpleImage@@QBEABV?$shared_ptr@VRawImageData@@@std@@XZ 00423710 f i ImageMappingDemo.obj
 0001:00022730       ?setOpaque@RawImageData@@QAEXXZ 00423730 f i ImageMappingDemo.obj
 0001:000227a0       ?setRotation@ImagePixelMappingRotate@@QAEXN@Z 004237a0 f i ImageMappingDemo.obj
 0001:000227c0       ?setTransparencyColour@MappableImageObject@@QAEXH@Z 004237c0 f i ImageMappingDemo.obj
 0001:000227f0       ?setTransparencyColour@SimpleImage@@QAEXH@Z 004237f0 f i ImageMappingDemo.obj
 0001:00022860       ?setTransparentColour@RawImageData@@QAEXI@Z 00423860 f i ImageMappingDemo.obj
 0001:00022980       ?setXShift@ImagePixelMappingShiftXY@@QAEXN@Z 00423980 f i ImageMappingDemo.obj
 0001:000229a0       ?setYShift@ImagePixelMappingShiftXY@@QAEXN@Z 004239a0 f i ImageMappingDemo.obj
 0001:000229c0       ?virtDraw@MappableImageObject@@UAEXXZ 004239c0 f i ImageMappingDemo.obj
 0001:00022a50       _SDL_main                  00423a50 f   mainfunction.obj
 0001:00022ab0       ?doProgram@@YAHHQAPAD@Z    00423ab0 f   mainfunction.obj
 0001:00022bf0       ??$_Erase_head@V?$allocator@U?$_Tree_node@U?$pair@$$CBV?$basic_string@DU?$char_traits@D@std@@V?$allocator@D@2@@std@@V?$shared_ptr@VRawImageData@@@2@@std@@PAX@std@@@std@@@?$_Tree_val@U?$_Tree_simple_types@U?$pair@$$CBV?$basic_string@DU?$char_traits@D@std@@V?$allocator@D@2@@std@@V?$shared_ptr@VRawImageData@@@2@@std@@@std@@@std@@QAEXAAV?$allocator@U?$_Tree_node@U?$pair@$$CBV?$basic_string@DU?$char_traits@D@std@@V?$allocator@D@2@@std@@V?$shared_ptr@VRawImageData@@@2@@std@@PAX@std@@@1@@Z 00423bf0 f i mainfunction.obj
 0001:00022c40       ??$_Erase_tree@V?$allocator@U?$_Tree_node@U?$pair@$$CBV?$basic_string@DU?$char_traits@D@std@@V?$allocator@D@2@@std@@V?$shared_ptr@VRawImageData@@@2@@std@@PAX@std@@@std@@@?$_Tree_val@U?$_Tree_simple_types@U?$pair@$$CBV?$basic_string@DU?$char_traits@D@std@@V?$allocator@D@2@@std@@V?$shared_ptr@VRawImageData@@@2@@std@@@std@@@std@@QAEXAAV?$allocator@U?$_Tree_node@U?$pair@$$CBV?$basic_string@DU?$char_traits@D@std@@V?$allocator@D@2@@std@@V?$shared_ptr@VRawImageData@@@2@@std@@PAX@std@@@1@PAU?$_Tree_node@U?$pair@$$CBV?$basic_string@DU?$char_traits@D@std@@V?$allocator@D@2@@std@@V?$shared_ptr@VRawImageData@@@2@@std@@PAX@1@@Z 00423c40 f i mainfunction.obj
 0001:00022ca0       ??$_Freenode0@V?$allocator@U?$_Tree_node@U?$pair@$$CBV?$basic_string@DU?$char_traits@D@std@@V?$allocator@D@2@@std@@V?$shared_ptr@VRawImageData@@@2@@std@@PAX@std@@@std@@@?$_Tree_node@U?$pair@$$CBV?$basic_string@DU?$char_traits@D@std@@V?$allocator@D@2@@std@@V?$shared_ptr@VRawImageData@@@2@@std@@PAX@std@@SAXAAV?$allocator@U?$_Tree_node@U?$pair@$$CBV?$basic_string@DU?$char_traits@D@std@@V?$allocator@D@2@@std@@V?$shared_ptr@VRawImageData@@@2@@std@@PAX@std@@@1@PAU01@@Z 00423ca0 f i mainfunction.obj
 0001:00022d30       ??$_Freenode@V?$allocator@U?$_Tree_node@U?$pair@$$CBV?$basic_string@DU?$char_traits@D@std@@V?$allocator@D@2@@std@@V?$shared_ptr@VRawImageData@@@2@@std@@PAX@std@@@std@@@?$_Tree_node@U?$pair@$$CBV?$basic_string@DU?$char_traits@D@std@@V?$allocator@D@2@@std@@V?$shared_ptr@VRawImageData@@@2@@std@@PAX@std@@SAXAAV?$allocator@U?$_Tree_node@U?$pair@$$CBV?$basic_string@DU?$char_traits@D@std@@V?$allocator@D@2@@std@@V?$shared_ptr@VRawImageData@@@2@@std@@PAX@std@@@1@PAU01@@Z 00423d30 f i mainfunction.obj
 0001:00022db0       ??$exchange@PAU?$_Tree_node@U?$pair@$$CBV?$basic_string@DU?$char_traits@D@std@@V?$allocator@D@2@@std@@V?$shared_ptr@VRawImageData@@@2@@std@@PAX@std@@AAPAU12@@std@@YAPAU?$_Tree_node@U?$pair@$$CBV?$basic_string@DU?$char_traits@D@std@@V?$allocator@D@2@@std@@V?$shared_ptr@VRawImageData@@@2@@std@@PAX@0@AAPAU10@0@Z 00423db0 f i mainfunction.obj
 0001:00022de0       ??0efylw5Engine@@QAE@XZ    00423de0 f i mainfunction.obj
 0001:00022ef0       ??0highscoreState@@QAE@PAVefylw5Engine@@@Z 00423ef0 f i mainfunction.obj
 0001:00023150       ??1?$_Tree@V?$_Tmap_traits@V?$basic_string@DU?$char_traits@D@std@@V?$allocator@D@2@@std@@V?$shared_ptr@VRawImageData@@@2@U?$less@V?$basic_string@DU?$char_traits@D@std@@V?$allocator@D@2@@std@@@2@V?$allocator@U?$pair@$$CBV?$basic_string@DU?$char_traits@D@std@@V?$allocator@D@2@@std@@V?$shared_ptr@VRawImageData@@@2@@std@@@2@$0A@@std@@@std@@QAE@XZ 00424150 f i mainfunction.obj
 0001:000231c0       ??1?$map@V?$basic_string@DU?$char_traits@D@std@@V?$allocator@D@2@@std@@V?$shared_ptr@VRawImageData@@@2@U?$less@V?$basic_string@DU?$char_traits@D@std@@V?$allocator@D@2@@std@@@2@V?$allocator@U?$pair@$$CBV?$basic_string@DU?$char_traits@D@std@@V?$allocator@D@2@@std@@V?$shared_ptr@VRawImageData@@@2@@std@@@2@@std@@QAE@XZ 004241c0 f i mainfunction.obj
 0001:000231e0       ??1ImageManager@@QAE@XZ    004241e0 f i mainfunction.obj
 0001:00023210       ??1efylw5Engine@@UAE@XZ    00424210 f i mainfunction.obj
 0001:00023270       ??_GImageManager@@QAEPAXI@Z 00424270 f i mainfunction.obj
 0001:000232b0       ??_Eefylw5Engine@@UAEPAXI@Z 004242b0 f i mainfunction.obj
 0001:000232b0       ??_Gefylw5Engine@@UAEPAXI@Z 004242b0 f i mainfunction.obj
 0001:000232f0       ?deallocate@?$_Default_allocator_traits@V?$allocator@U?$_Tree_node@U?$pair@$$CBV?$basic_string@DU?$char_traits@D@std@@V?$allocator@D@2@@std@@V?$shared_ptr@VRawImageData@@@2@@std@@PAX@std@@@std@@@std@@SAXAAV?$allocator@U?$_Tree_node@U?$pair@$$CBV?$basic_string@DU?$char_traits@D@std@@V?$allocator@D@2@@std@@V?$shared_ptr@VRawImageData@@@2@@std@@PAX@std@@@2@QAU?$_Tree_node@U?$pair@$$CBV?$basic_string@DU?$char_traits@D@std@@V?$allocator@D@2@@std@@V?$shared_ptr@VRawImageData@@@2@@std@@PAX@2@I@Z 004242f0 f i mainfunction.obj
 0001:00023310       ?destroyImageManager@ImageManager@@SAXXZ 00424310 f i mainfunction.obj
 0001:00023370       ?virtMainLoopDoBeforeUpdate@BaseEngine@@UAEXXZ 00424370 f i mainfunction.obj
 0001:00023380       ??0BaseEngine@@QAE@XZ      00424380 f   BaseEngine.obj
 0001:000235c0       ??1BaseEngine@@UAE@XZ      004245c0 f   BaseEngine.obj
 0001:00023610       ?initialise@BaseEngine@@QAEHPBDHH0H@Z 00424610 f   BaseEngine.obj
 0001:00023740       ?deinitialise@BaseEngine@@QAEXXZ 00424740 f   BaseEngine.obj
 0001:00023770       ?mainLoop@BaseEngine@@QAEHXZ 00424770 f   BaseEngine.obj
 0001:000238a0       ?handleEvent@BaseEngine@@QAE_NPATSDL_Event@@@Z 004248a0 f   BaseEngine.obj
 0001:00023ee0       ?isKeyPressed@BaseEngine@@QBE_NH@Z 00424ee0 f   BaseEngine.obj
 0001:00023f10       ?virtKeyUp@BaseEngine@@UAEXH@Z 00424f10 f   BaseEngine.obj
 0001:00023f20       ?virtKeyDown@BaseEngine@@UAEXH@Z 00424f20 f   BaseEngine.obj
 0001:00023f30       ?virtMouseMoved@BaseEngine@@UAEXHH@Z 00424f30 f   BaseEngine.obj
 0001:00023f40       ?virtMouseDown@BaseEngine@@UAEXHHH@Z 00424f40 f   BaseEngine.obj
 0001:00023f50       ?virtMouseUp@BaseEngine@@UAEXHHH@Z 00424f50 f   BaseEngine.obj
 0001:00023f60       ?virtInitialise@BaseEngine@@UAEHXZ 00424f60 f   BaseEngine.obj
 0001:00023fb0       ?virtCreateWindows@BaseEngine@@UAEXPBD@Z 00424fb0 f   BaseEngine.obj
 0001:00024040       ?virtCreateSurfaces@BaseEngine@@UAEXXZ 00425040 f   BaseEngine.obj
 0001:00024090       ?virtCleanUp@BaseEngine@@UAEXXZ 00425090 f   BaseEngine.obj
 0001:000240a0       ?virtSetupBackgroundBuffer@BaseEngine@@UAEXXZ 004250a0 f   BaseEngine.obj
 0001:000240c0       ?virtDrawStringsUnderneath@BaseEngine@@UAEXXZ 004250c0 f   BaseEngine.obj
 0001:000240d0       ?virtDrawStringsOnTop@BaseEngine@@UAEXXZ 004250d0 f   BaseEngine.obj
 0001:000240e0       ?virtCheckForUpdateTime@BaseEngine@@UAE_NXZ 004250e0 f   BaseEngine.obj
 0001:00024130       ?virtRenderScreen@BaseEngine@@UAEXXZ 00425130 f   BaseEngine.obj
 0001:000242c0       ?getColour@BaseEngine@@QBEIH@Z 004252c0 f   BaseEngine.obj
 0001:00024500       ?virtInitialiseObjects@BaseEngine@@UAEHXZ 00425500 f   BaseEngine.obj
 0001:00024530       ?drawAllObjects@BaseEngine@@UAEXXZ 00425530 f   BaseEngine.obj
 0001:000246f0       ?updateAllObjects@BaseEngine@@UAEXH@Z 004256f0 f   BaseEngine.obj
 0001:000248b0       _mydebug                   004258b0 f   BaseEngine.obj
 0001:00025070       ??$?0ABV?$allocator@PAVDisplayableObject@@@std@@$$V@?$_Compressed_pair@V?$allocator@PAVDisplayableObject@@@std@@V?$_Vector_val@U?$_Simple_types@PAVDisplayableObject@@@std@@@2@$00@std@@QAE@U_One_then_variadic_args_t@1@ABV?$allocator@PAVDisplayableObject@@@1@@Z 00426070 f i BaseEngine.obj
 0001:000250a0       ??$?0PAVDisplayableObject@@@?$allocator@U_Container_proxy@std@@@std@@QAE@ABV?$allocator@PAVDisplayableObject@@@1@@Z 004260a0 f i BaseEngine.obj
 0001:000250c0       ??$_Adl_verify_range@V?$_Vector_iterator@V?$_Vector_val@U?$_Simple_types@PAVDisplayableObject@@@std@@@std@@@std@@V12@@std@@YAXABV?$_Vector_iterator@V?$_Vector_val@U?$_Simple_types@PAVDisplayableObject@@@std@@@std@@@0@0@Z 004260c0 f i BaseEngine.obj
 0001:000250e0       ??$_Construct_n@$$V@?$vector@PAVDisplayableObject@@V?$allocator@PAVDisplayableObject@@@std@@@std@@AAEXI@Z 004260e0 f i BaseEngine.obj
 0001:000251f0       ??$_Get_unwrapped@AAV?$_Vector_iterator@V?$_Vector_val@U?$_Simple_types@PAVDisplayableObject@@@std@@@std@@@std@@@std@@YA?A_TAAV?$_Vector_iterator@V?$_Vector_val@U?$_Simple_types@PAVDisplayableObject@@@std@@@std@@@0@@Z 004261f0 f i BaseEngine.obj
 0001:00025200       ??$addressof@V?$_Vector_val@U?$_Simple_types@PAVDisplayableObject@@@std@@@std@@@std@@YAPAV?$_Vector_val@U?$_Simple_types@PAVDisplayableObject@@@std@@@0@AAV10@@Z 00426200 f i BaseEngine.obj
 0001:00025690       ??$forward@ABV?$allocator@PAVDisplayableObject@@@std@@@std@@YAABV?$allocator@PAVDisplayableObject@@@0@ABV10@@Z 00426690 f i BaseEngine.obj
 0001:000256a0       ??0?$_Vector_iterator@V?$_Vector_val@U?$_Simple_types@PAVDisplayableObject@@@std@@@std@@@std@@QAE@$$QAV01@@Z 004266a0 f i BaseEngine.obj
 0001:000256d0       ??0?$_Vector_iterator@V?$_Vector_val@U?$_Simple_types@PAVDisplayableObject@@@std@@@std@@@std@@QAE@ABV01@@Z 004266d0 f i BaseEngine.obj
 0001:00025700       ??0?$_Vector_iterator@V?$_Vector_val@U?$_Simple_types@PAVDisplayableObject@@@std@@@std@@@std@@QAE@PAPAVDisplayableObject@@PBU_Container_base12@1@@Z 00426700 f i BaseEngine.obj
 0001:00025730       ??0?$_Vector_val@U?$_Simple_types@PAVDisplayableObject@@@std@@@std@@QAE@XZ 00426730 f i BaseEngine.obj
 0001:00025780       ??0?$allocator@PAVDisplayableObject@@@std@@QAE@XZ 00426780 f i BaseEngine.obj
 0001:000257a0       ??0?$vector@PAVDisplayableObject@@V?$allocator@PAVDisplayableObject@@@std@@@std@@QAE@IABV?$allocator@PAVDisplayableObject@@@1@@Z 004267a0 f i BaseEngine.obj
 0001:000257e0       ??0DisplayableObjectContainer@@QAE@H@Z 004267e0 f i BaseEngine.obj
 0001:00025840       ??0FilterPoints@@QAE@XZ    00426840 f i BaseEngine.obj
 0001:00025860       ??1?$_Tidy_guard@V?$vector@PAVDisplayableObject@@V?$allocator@PAVDisplayableObject@@@std@@@std@@@std@@QAE@XZ 00426860 f i BaseEngine.obj
 0001:00025890       ??1?$_Vector_iterator@V?$_Vector_val@U?$_Simple_types@PAVDisplayableObject@@@std@@@std@@@std@@QAE@XZ 00426890 f i BaseEngine.obj
 0001:000258b0       ??1?$vector@PAVDisplayableObject@@V?$allocator@PAVDisplayableObject@@@std@@@std@@QAE@XZ 004268b0 f i BaseEngine.obj
 0001:00025920       ??1DisplayableObjectContainer@@UAE@XZ 00426920 f i BaseEngine.obj
 0001:00025990       ??D?$_Vector_iterator@V?$_Vector_val@U?$_Simple_types@PAVDisplayableObject@@@std@@@std@@@std@@QBEAAPAVDisplayableObject@@XZ 00426990 f i BaseEngine.obj
 0001:000259b0       ??E?$_Vector_iterator@V?$_Vector_val@U?$_Simple_types@PAVDisplayableObject@@@std@@@std@@@std@@QAE?AV01@H@Z 004269b0 f i BaseEngine.obj
 0001:00025a00       ??_EBaseEngine@@UAEPAXI@Z  00426a00 f i BaseEngine.obj
 0001:00025a00       ??_GBaseEngine@@UAEPAXI@Z  00426a00 f i BaseEngine.obj
 0001:00025a40       ??_EDisplayableObjectContainer@@UAEPAXI@Z 00426a40 f i BaseEngine.obj
 0001:00025a40       ??_GDisplayableObjectContainer@@UAEPAXI@Z 00426a40 f i BaseEngine.obj
 0001:00025a80       ?_Buy_nonzero@?$vector@PAVDisplayableObject@@V?$allocator@PAVDisplayableObject@@@std@@@std@@AAEXI@Z 00426a80 f i BaseEngine.obj
 0001:00025ac0       ?_Buy_raw@?$vector@PAVDisplayableObject@@V?$allocator@PAVDisplayableObject@@@std@@@std@@AAEXI@Z 00426ac0 f i BaseEngine.obj
 0001:00025b40       ?_Tidy@?$vector@PAVDisplayableObject@@V?$allocator@PAVDisplayableObject@@@std@@@std@@AAEXXZ 00426b40 f i BaseEngine.obj
 0001:00025c40       ?_Unwrapped@?$_Vector_iterator@V?$_Vector_val@U?$_Simple_types@PAVDisplayableObject@@@std@@@std@@@std@@QBEPAPAVDisplayableObject@@XZ 00426c40 f i BaseEngine.obj
 0001:00025c60       ?_Verify_range@std@@YAXABV?$_Vector_const_iterator@V?$_Vector_val@U?$_Simple_types@PAVDisplayableObject@@@std@@@std@@@1@0@Z 00426c60 f i BaseEngine.obj
 0001:00025d60       ?begin@?$vector@PAVDisplayableObject@@V?$allocator@PAVDisplayableObject@@@std@@@std@@QAE?AV?$_Vector_iterator@V?$_Vector_val@U?$_Simple_types@PAVDisplayableObject@@@std@@@std@@@2@XZ 00426d60 f i BaseEngine.obj
 0001:00025db0       ?end@?$vector@PAVDisplayableObject@@V?$allocator@PAVDisplayableObject@@@std@@@std@@QAE?AV?$_Vector_iterator@V?$_Vector_val@U?$_Simple_types@PAVDisplayableObject@@@std@@@std@@@2@XZ 00426db0 f i BaseEngine.obj
 0001:00025e00       ?getHasActed@DisplayableObject@@QBE_NXZ 00426e00 f i BaseEngine.obj
 0001:00025e20       ?isTimeToAct@BaseEngine@@QBE_NXZ 00426e20 f i BaseEngine.obj
 0001:00025e60       ?mySDLUpdateTexture@DrawingSurface@@QAEXPAUSDL_Texture@@@Z 00426e60 f i BaseEngine.obj
 0001:00025ea0       ?setHasActed@DisplayableObject@@QAEX_N@Z 00426ea0 f i BaseEngine.obj
 0001:00025ec0       ?setTimeToAct@BaseEngine@@QAEXH@Z 00426ec0 f i BaseEngine.obj
 0001:00025ef0       ?symbolToKeycode@BaseEngine@@SAHH@Z 00426ef0 f i BaseEngine.obj
 0001:000263e0       _fprintf                   004273e0 f i BaseEngine.obj
 0001:00026420       ??0DisplayableObject@@QAE@PAVBaseEngine@@HH_N@Z 00427420 f   DisplayableObject.obj
 0001:000264e0       ??0DisplayableObject@@QAE@HHPAVBaseEngine@@HH_N@Z 004274e0 f   DisplayableObject.obj
 0001:000265a0       ??1DisplayableObject@@UAE@XZ 004275a0 f   DisplayableObject.obj
 0001:000265c0       ?virtDraw@DisplayableObject@@UAEXXZ 004275c0 f   DisplayableObject.obj
 0001:00026660       ?virtDoUpdate@DisplayableObject@@UAEXH@Z 00427660 f   DisplayableObject.obj
 0001:00026670       ?redrawDisplay@DisplayableObject@@QAEXXZ 00427670 f   DisplayableObject.obj
 0001:00026690       ?redrawRectangle@DisplayableObject@@QAEXXZ 00427690 f   DisplayableObject.obj
 0001:000266d0       ?virtIsObjectInRedrawArea@DisplayableObject@@QAE_NXZ 004276d0 f   DisplayableObject.obj
 0001:00026770       ?fixPosition@DisplayableObject@@QAEXXZ 00427770 f   DisplayableObject.obj
 0001:00026940       ??_EDisplayableObject@@UAEPAXI@Z 00427940 f i DisplayableObject.obj
 0001:00026940       ??_GDisplayableObject@@UAEPAXI@Z 00427940 f i DisplayableObject.obj
 0001:00026980       ?convertVirtualPixelToClickedXPosition@BaseEngine@@QAEHH@Z 00427980 f i DisplayableObject.obj
 0001:000269b0       ?convertVirtualPixelToClickedYPosition@BaseEngine@@QAEHH@Z 004279b0 f i DisplayableObject.obj
 0001:000269e0       ?convertVirtualToRealXPosition@DrawingSurface@@QAEHH@Z 004279e0 f i DisplayableObject.obj
 0001:00026a20       ?convertVirtualToRealYPosition@DrawingSurface@@QAEHH@Z 00427a20 f i DisplayableObject.obj
 0001:00026a60       ?redrawRectangle@BaseEngine@@QAEXHHHH@Z 00427a60 f i DisplayableObject.obj
 0001:00026bd0       ?setForegroundPixel@BaseEngine@@QAEXHHI@Z 00427bd0 f i DisplayableObject.obj
 0001:00026c00       ??0FontManager@@QAE@XZ     00427c00 f   FontManager.obj
 0001:00026c70       ??1FontManager@@QAE@XZ     00427c70 f   FontManager.obj
 0001:00026ce0       ?getFont@FontManager@@QAEPAVFont@@PBDH@Z 00427ce0 f   FontManager.obj
 0001:00026e80       ?loadFonts@FontManager@@QAEXXZ 00427e80 f   FontManager.obj
 0001:00026fb0       ??$growArrayOfObjects@PAVFont@@@@YAPAPAVFont@@PAPAV0@AAHH@Z 00427fb0 f i FontManager.obj
 0001:00027070       ??0Font@@QAE@PBDH@Z        00428070 f i FontManager.obj
 0001:000270f0       ??1Font@@QAE@XZ            004280f0 f i FontManager.obj
 0001:00027170       ??_GFont@@QAEPAXI@Z        00428170 f i FontManager.obj
 0001:000271b0       ?getName@Font@@QAEPBDXZ    004281b0 f i FontManager.obj
 0001:000271d0       ?getSize@Font@@QAEHXZ      004281d0 f i FontManager.obj
 0001:000276a0       ??$?0$$V@?$_Compressed_pair@V?$allocator@V?$basic_string@DU?$char_traits@D@std@@V?$allocator@D@2@@std@@@std@@V?$_Vector_val@U?$_Simple_types@V?$basic_string@DU?$char_traits@D@std@@V?$allocator@D@2@@std@@@std@@@2@$00@std@@QAE@U_Zero_then_variadic_args_t@1@@Z 004286a0 f i MovingText.obj
 0001:000276f0       ??$?0I@?$allocator@U_Container_proxy@std@@@std@@QAE@ABV?$allocator@I@1@@Z 004286f0 f i MovingText.obj
 0001:00027820       ??$?0V?$basic_string@DU?$char_traits@D@std@@V?$allocator@D@2@@std@@@?$allocator@U_Container_proxy@std@@@std@@QAE@ABV?$allocator@V?$basic_string@DU?$char_traits@D@std@@V?$allocator@D@2@@std@@@1@@Z 00428820 f i MovingText.obj
 0001:00027950       ??$_Copy_memmove@PBIPAI@std@@YAPAIPBI0PAI@Z 00428950 f i MovingText.obj
 0001:00027a50       ??$_Destroy_range@V?$allocator@I@std@@@std@@YAXPAIQAIAAV?$allocator@I@0@@Z 00428a50 f i MovingText.obj
 0001:00027af0       ??$_Get_unwrapped@PBI@std@@YA?A_T$$QAPBI@Z 00428af0 f i MovingText.obj
 0001:00027b00       ??$_Get_unwrapped@PBV?$basic_string@DU?$char_traits@D@std@@V?$allocator@D@2@@std@@@std@@YA?A_T$$QAPBV?$basic_string@DU?$char_traits@D@std@@V?$allocator@D@2@@0@@Z 00428b00 f i MovingText.obj
 0001:00027be0       ??$_Unfancy@I@std@@YAPAIPAI@Z 00428be0 f i MovingText.obj
 0001:00027c60       ??$_Unfancy@V?$basic_string@DU?$char_traits@D@std@@V?$allocator@D@2@@std@@@std@@YAPAV?$basic_string@DU?$char_traits@D@std@@V?$allocator@D@2@@0@PAV10@@Z 00428c60 f i MovingText.obj
 0001:00027d30       ??$_Voidify_iter@PAI@std@@YAPAXPAI@Z 00428d30 f i MovingText.obj
 0001:00027d70       ??$_Voidify_iter@PAV?$basic_string@DU?$char_traits@D@std@@V?$allocator@D@2@@std@@@std@@YAPAXPAV?$basic_string@DU?$char_traits@D@std@@V?$allocator@D@2@@0@@Z 00428d70 f i MovingText.obj
 0001:00027db0       ??$construct@IABI@?$_Default_allocator_traits@V?$allocator@I@std@@@std@@SAXAAV?$allocator@I@1@QAIABI@Z 00428db0 f i MovingText.obj
 0001:00027df0       ??$construct@V?$basic_string@DU?$char_traits@D@std@@V?$allocator@D@2@@std@@ABV12@@?$_Default_allocator_traits@V?$allocator@V?$basic_string@DU?$char_traits@D@std@@V?$allocator@D@2@@std@@@std@@@std@@SAXAAV?$allocator@V?$basic_string@DU?$char_traits@D@std@@V?$allocator@D@2@@std@@@1@QAV?$basic_string@DU?$char_traits@D@std@@V?$allocator@D@2@@1@ABV31@@Z 00428df0 f i MovingText.obj
 0001:00027e70       ??$destroy@V?$basic_string@DU?$char_traits@D@std@@V?$allocator@D@2@@std@@@?$_Default_allocator_traits@V?$allocator@V?$basic_string@DU?$char_traits@D@std@@V?$allocator@D@2@@std@@@std@@@std@@SAXAAV?$allocator@V?$basic_string@DU?$char_traits@D@std@@V?$allocator@D@2@@std@@@1@QAV?$basic_string@DU?$char_traits@D@std@@V?$allocator@D@2@@1@@Z 00428e70 f i MovingText.obj
 0001:00027e90       ??$forward@ABI@std@@YAABIABI@Z 00428e90 f i MovingText.obj
 0001:00027eb0       ??$forward@ABV?$allocator@I@std@@@std@@YAABV?$allocator@I@0@ABV10@@Z 00428eb0 f i MovingText.obj
 0001:00027ed0       ??$forward@ABV?$basic_string@DU?$char_traits@D@std@@V?$allocator@D@2@@std@@@std@@YAABV?$basic_string@DU?$char_traits@D@std@@V?$allocator@D@2@@0@ABV10@@Z 00428ed0 f i MovingText.obj
 0001:00027ef0       ??$forward@PBI@std@@YA$$QAPBIAAPBI@Z 00428ef0 f i MovingText.obj
 0001:00027f20       ??$move@AAPBI@std@@YA$$QAPBIAAPBI@Z 00428f20 f i MovingText.obj
 0001:00028080       ??0?$_Uninitialized_backout_al@V?$allocator@V?$basic_string@DU?$char_traits@D@std@@V?$allocator@D@2@@std@@@std@@@std@@QAE@PAV?$basic_string@DU?$char_traits@D@std@@V?$allocator@D@2@@1@AAV?$allocator@V?$basic_string@DU?$char_traits@D@std@@V?$allocator@D@2@@std@@@1@@Z 00429080 f i MovingText.obj
 0001:000280d0       ??0?$_Vector_val@U?$_Simple_types@V?$basic_string@DU?$char_traits@D@std@@V?$allocator@D@2@@std@@@std@@@std@@QAE@XZ 004290d0 f i MovingText.obj
 0001:00028210       ??0?$vector@IV?$allocator@I@std@@@std@@QAE@V?$initializer_list@I@1@ABV?$allocator@I@1@@Z 00429210 f i MovingText.obj
 0001:000282a0       ?changePixelColour@ImagePixelMapping@@UAE_NHHAAHPAVDrawingSurface@@@Z 004292a0 f i SimpleImage.obj
 0001:000282c0       ?mapCoordinates@CroppedImagePixelMapping@@UAE_NAAN0ABVSimpleImage@@@Z 004292c0 f i SimpleImage.obj
 0001:00028360       ??0SimpleImage@@QAE@XZ     00429360 f   SimpleImage.obj
 0001:00028390       ??0SimpleImage@@QAE@V?$shared_ptr@VRawImageData@@@std@@@Z 00429390 f   SimpleImage.obj
 0001:000283d0       ?exists@SimpleImage@@QBE_NXZ 004293d0 f   SimpleImage.obj
 0001:000283f0       ?renderImage@SimpleImage@@QBEXPAVDrawingSurface@@HHHHHH@Z 004293f0 f   SimpleImage.obj
 0001:00028500       ?renderImageWithMask@SimpleImage@@QBEXPAVDrawingSurface@@HHHHHHH@Z 00429500 f   SimpleImage.obj
 0001:00028640       ?renderImageWithMaskAndTransparency@SimpleImage@@QBEXPAVDrawingSurface@@HHHHHHHH@Z 00429640 f   SimpleImage.obj
 0001:00028810       ?renderImageBlit@SimpleImage@@QAEXPAVBaseEngine@@PAVDrawingSurface@@HHHHHHHH@Z 00429810 f   SimpleImage.obj
 0001:00028ac0       ?adjustXYWidthHeight@SimpleImage@@SA_NPAVDrawingSurface@@AAH11111@Z 00429ac0 f   SimpleImage.obj
 0001:00028cc0       ?renderImageApplyingMapping@SimpleImage@@QBEXPAVBaseEngine@@PAVDrawingSurface@@HHHHPAVImagePixelMapping@@@Z 00429cc0 f   SimpleImage.obj
 0001:000292d0       ??BDrawingSurface@@QAEPAUSDL_Surface@@XZ 0042a2d0 f i SimpleImage.obj
 0001:000292f0       ?convertClickedToVirtualPixelXPosition@BaseEngine@@QAEHH@Z 0042a2f0 f i SimpleImage.obj
 0001:00029320       ?convertClickedToVirtualPixelYPosition@BaseEngine@@QAEHH@Z 0042a320 f i SimpleImage.obj
 0001:00029350       ?getSurface@RawImageData@@QAEPAUSDL_Surface@@XZ 0042a350 f i SimpleImage.obj
 0001:00029370       ?rawGetPixel@DrawingSurface@@QBEIHH@Z 0042a370 f i SimpleImage.obj
 0001:000293e0       ?virtSetupBackgroundBuffer@SimpleDemo@@UAEXXZ 0042a3e0 f   SimpleDemo.obj
 0001:00029520       ?virtInitialiseObjects@SimpleDemo@@UAEHXZ 0042a520 f   SimpleDemo.obj
 0001:000296a0       ?virtDrawStringsUnderneath@SimpleDemo@@UAEXXZ 0042a6a0 f   SimpleDemo.obj
 0001:00029720       ?virtDrawStringsOnTop@SimpleDemo@@UAEXXZ 0042a720 f   SimpleDemo.obj
 0001:000297e0       ?virtMouseDown@SimpleDemo@@UAEXHHH@Z 0042a7e0 f   SimpleDemo.obj
 0001:00029800       ?virtKeyDown@SimpleDemo@@UAEXH@Z 0042a800 f   SimpleDemo.obj
 0001:00029970       ??0BouncingObject@@QAE@PAVBaseEngine@@HHNNNN@Z 0042a970 f i SimpleDemo.obj
 0001:00029a40       ??1BouncingObject@@UAE@XZ  0042aa40 f i SimpleDemo.obj
 0001:00029a60       ??_EBouncingObject@@UAEPAXI@Z 0042aa60 f i SimpleDemo.obj
 0001:00029a60       ??_GBouncingObject@@UAEPAXI@Z 0042aa60 f i SimpleDemo.obj
 0001:00029aa0       ?drawForegroundRectangle@BaseEngine@@QAEXHHHHI@Z 0042aaa0 f i SimpleDemo.obj
 0001:00029ae0       ?virtDoUpdate@BouncingObject@@UAEXH@Z 0042aae0 f i SimpleDemo.obj
 0001:00029ee0       ?virtDraw@BouncingObject@@UAEXXZ 0042aee0 f i SimpleDemo.obj
 0001:00029f80       ??0SnakeBody@@QAE@PAVefylw5Engine@@PAVSnakeHead@@HHHHHHH@Z 0042af80 f   SnakeObject.obj
 0001:0002a0a0       ??1SnakeBody@@UAE@XZ       0042b0a0 f   SnakeObject.obj
 0001:0002a0c0       ?virtDraw@SnakeBody@@UAEXXZ 0042b0c0 f   SnakeObject.obj
 0001:0002a330       ?virtDoUpdate@SnakeBody@@UAEXH@Z 0042b330 f   SnakeObject.obj
 0001:0002a340       ?setcurrentLocation@SnakeBody@@QAEXHHHH@Z 0042b340 f   SnakeObject.obj
 0001:0002a380       ?printCurrentLocation@SnakeBody@@QAEXXZ 0042b380 f   SnakeObject.obj
 0001:0002a390       ?setSnakeBodyMovement@SnakeBody@@QAEXHHHH@Z 0042b390 f   SnakeObject.obj
 0001:0002a500       ?getCurrentLocation@SnakeBody@@QAE?AV?$vector@HV?$allocator@H@std@@@std@@XZ 0042b500 f   SnakeObject.obj
 0001:0002a5c0       ??0FoodObject@@QAE@PAVefylw5Engine@@HHHHHH@Z 0042b5c0 f   SnakeObject.obj
 0001:0002a700       ??1FoodObject@@UAE@XZ      0042b700 f   SnakeObject.obj
 0001:0002a720       ?virtDraw@FoodObject@@UAEXXZ 0042b720 f   SnakeObject.obj
 0001:0002a840       ?virtDoUpdate@FoodObject@@UAEXH@Z 0042b840 f   SnakeObject.obj
 0001:0002a950       ??0SnakeHead@@QAE@PAVefylw5Engine@@HHHHHHPAVFoodObject@@@Z 0042b950 f   SnakeObject.obj
 0001:0002aaa0       ??1SnakeHead@@UAE@XZ       0042baa0 f   SnakeObject.obj
 0001:0002aad0       ?virtDraw@SnakeHead@@UAEXXZ 0042bad0 f   SnakeObject.obj
 0001:0002af80       ?virtDoUpdate@SnakeHead@@UAEXH@Z 0042bf80 f   SnakeObject.obj
 0001:0002b360       ?appendPointsToFile@SnakeHead@@QAEXXZ 0042c360 f   SnakeObject.obj
 0001:0002b410       ?virtKeyDown@SnakeHead@@UAEXH@Z 0042c410 f   SnakeObject.obj
 0001:0002b420       ?printCurrentLocation@SnakeHead@@QAEXXZ 0042c420 f   SnakeObject.obj
 0001:0002b4c0       ?appendNewBody@SnakeHead@@QAE?AV?$vector@HV?$allocator@H@std@@@std@@XZ 0042c4c0 f   SnakeObject.obj
 0001:0002b580       ?movementSetup@SnakeHead@@QAEXHH@Z 0042c580 f   SnakeObject.obj
 0001:0002bc60       ??$?0$$V@?$_Compressed_pair@V?$allocator@PAVSnakeBody@@@std@@V?$_Vector_val@U?$_Simple_types@PAVSnakeBody@@@std@@@2@$00@std@@QAE@U_Zero_then_variadic_args_t@1@@Z 0042cc60 f i SnakeObject.obj
 0001:0002bc90       ??$?0H$0A@@?$duration@_JU?$ratio@$00$00@std@@@chrono@std@@QAE@ABH@Z 0042cc90 f i SnakeObject.obj
 0001:0002bcc0       ??$?0V?$allocator@H@std@@PAHPAHPAH@?$_Compressed_pair@V?$allocator@H@std@@V?$_Vector_val@U?$_Simple_types@H@std@@@2@$00@std@@QAE@U_One_then_variadic_args_t@1@$$QAV?$allocator@H@1@$$QAPAH22@Z 0042ccc0 f i SnakeObject.obj
 0001:0002bd30       ??$?0_J$0A@@?$duration@_JU?$ratio@$00$00@std@@@chrono@std@@QAE@AB_J@Z 0042cd30 f i SnakeObject.obj
 0001:0002bd60       ??$?0_J$0A@@?$duration@_JU?$ratio@$00$0DLJKMKAA@@std@@@chrono@std@@QAE@AB_J@Z 0042cd60 f i SnakeObject.obj
 0001:0002bd90       ??$?0_JU?$ratio@$00$00@std@@$0A@@?$duration@_JU?$ratio@$00$0DLJKMKAA@@std@@@chrono@std@@QAE@ABV?$duration@_JU?$ratio@$00$00@std@@@12@@Z 0042cd90 f i SnakeObject.obj
 0001:0002bdd0       ??$?GUsteady_clock@chrono@std@@V?$duration@_JU?$ratio@$00$0DLJKMKAA@@std@@@12@V312@@chrono@std@@YA?AV?$duration@_JU?$ratio@$00$0DLJKMKAA@@std@@@01@ABV?$time_point@Usteady_clock@chrono@std@@V?$duration@_JU?$ratio@$00$0DLJKMKAA@@std@@@23@@01@0@Z 0042cdd0 f i SnakeObject.obj
 0001:0002be10       ??$?G_JU?$ratio@$00$0DLJKMKAA@@std@@_JU01@@chrono@std@@YA?AV?$duration@_JU?$ratio@$00$0DLJKMKAA@@std@@@01@ABV201@0@Z 0042ce10 f i SnakeObject.obj
 0001:0002be80       ??$?HUsteady_clock@chrono@std@@V?$duration@_JU?$ratio@$00$0DLJKMKAA@@std@@@12@_JU?$ratio@$00$00@2@@chrono@std@@YA?AV?$time_point@Usteady_clock@chrono@std@@V?$duration@_JU?$ratio@$00$0DLJKMKAA@@std@@@23@@01@ABV201@ABV?$duration@_JU?$ratio@$00$00@std@@@01@@Z 0042ce80 f i SnakeObject.obj
 0001:0002bec0       ??$?H_JU?$ratio@$00$0DLJKMKAA@@std@@_JU?$ratio@$00$00@1@@chrono@std@@YA?AV?$duration@_JU?$ratio@$00$0DLJKMKAA@@std@@@01@ABV201@ABV?$duration@_JU?$ratio@$00$00@std@@@01@@Z 0042cec0 f i SnakeObject.obj
 0001:0002bf30       ??$?MUsteady_clock@chrono@std@@V?$duration@_JU?$ratio@$00$0DLJKMKAA@@std@@@12@V312@@chrono@std@@YA_NABV?$time_point@Usteady_clock@chrono@std@@V?$duration@_JU?$ratio@$00$0DLJKMKAA@@std@@@23@@01@0@Z 0042cf30 f i SnakeObject.obj
 0001:0002bf70       ??$?M_JU?$ratio@$00$0DLJKMKAA@@std@@_JU01@@chrono@std@@YA_NABV?$duration@_JU?$ratio@$00$0DLJKMKAA@@std@@@01@0@Z 0042cf70 f i SnakeObject.obj
 0001:0002c000       ??$_Construct_in_place@HABH@std@@YAXAAHABH@Z 0042d000 f i SnakeObject.obj
 0001:0002c050       ??$_Emplace_back@H@?$_Uninitialized_backout_al@V?$allocator@H@std@@@std@@QAEX$$QAH@Z 0042d050 f i SnakeObject.obj
 0001:0002c0b0       ??$_Emplace_back_with_unused_capacity@ABH@?$vector@HV?$allocator@H@std@@@std@@AAEAAHABH@Z 0042d0b0 f i SnakeObject.obj
 0001:0002c130       ??$_Emplace_one_at_back@ABH@?$vector@HV?$allocator@H@std@@@std@@AAEAAHABH@Z 0042d130 f i SnakeObject.obj
 0001:0002c1b0       ??$_Emplace_reallocate@ABH@?$vector@HV?$allocator@H@std@@@std@@AAEPAHQAHABH@Z 0042d1b0 f i SnakeObject.obj
 0001:0002c410       ??$_Get_unwrapped@ABQAH@std@@YA?A_TABQAH@Z 0042d410 f i SnakeObject.obj
 0001:0002c420       ??$_Uninitialized_move@PAHV?$allocator@H@std@@@std@@YAPAHQAH0PAHAAV?$allocator@H@0@@Z 0042d420 f i SnakeObject.obj
 0001:0002c540       ??$addressof@H@std@@YAPAHAAH@Z 0042d540 f i SnakeObject.obj
 0001:0002c550       ??$construct@HH@?$_Default_allocator_traits@V?$allocator@H@std@@@std@@SAXAAV?$allocator@H@1@QAH$$QAH@Z 0042d550 f i SnakeObject.obj
 0001:0002c5a0       ??$duration_cast@V?$duration@_JU?$ratio@$00$00@std@@@chrono@std@@_JU?$ratio@$00$0DLJKMKAA@@3@$0A@@chrono@std@@YA?AV?$duration@_JU?$ratio@$00$00@std@@@01@ABV?$duration@_JU?$ratio@$00$0DLJKMKAA@@std@@@01@@Z 0042d5a0 f i SnakeObject.obj
 0001:0002c6a0       ??$duration_cast@V?$duration@_JU?$ratio@$00$0DLJKMKAA@@std@@@chrono@std@@_JU?$ratio@$00$00@3@$0A@@chrono@std@@YA?AV?$duration@_JU?$ratio@$00$0DLJKMKAA@@std@@@01@ABV?$duration@_JU?$ratio@$00$00@std@@@01@@Z 0042d6a0 f i SnakeObject.obj
 0001:0002c7a0       ??$exchange@PAH$$T@std@@YAPAHAAPAH$$QA$$T@Z 0042d7a0 f i SnakeObject.obj
 0001:0002c7d0       ??$forward@H@std@@YA$$QAHAAH@Z 0042d7d0 f i SnakeObject.obj
 0001:0002c7e0       ??$forward@PAH@std@@YA$$QAPAHAAPAH@Z 0042d7e0 f i SnakeObject.obj
 0001:0002c7f0       ??$move@AAV?$allocator@H@std@@@std@@YA$$QAV?$allocator@H@0@AAV10@@Z 0042d7f0 f i SnakeObject.obj
 0001:0002c800       ??0?$_Vector_val@U?$_Simple_types@H@std@@@std@@QAE@PAH00@Z 0042d800 f i SnakeObject.obj
 0001:0002c840       ??0?$allocator@PAVSnakeBody@@@std@@QAE@XZ 0042d840 f i SnakeObject.obj
 0001:0002c860       ??0?$time_point@Usteady_clock@chrono@std@@V?$duration@_JU?$ratio@$00$0DLJKMKAA@@std@@@23@@chrono@std@@QAE@ABV?$duration@_JU?$ratio@$00$0DLJKMKAA@@std@@@12@@Z 0042d860 f i SnakeObject.obj
 0001:0002c890       ??0?$vector@HV?$allocator@H@std@@@std@@QAE@$$QAV01@@Z 0042d890 f i SnakeObject.obj
 0001:0002c9c0       ??0?$vector@PAVSnakeBody@@V?$allocator@PAVSnakeBody@@@std@@@std@@QAE@XZ 0042d9c0 f i SnakeObject.obj
 0001:0002ca40       ??0losingState@@QAE@XZ     0042da40 f i SnakeObject.obj
 0001:0002cc60       ??A?$vector@PAVDisplayableObject@@V?$allocator@PAVDisplayableObject@@@std@@@std@@QBEABQAVDisplayableObject@@I@Z 0042dc60 f i SnakeObject.obj
 0001:0002cd10       ??_EFoodObject@@UAEPAXI@Z  0042dd10 f i SnakeObject.obj
 0001:0002cd10       ??_GFoodObject@@UAEPAXI@Z  0042dd10 f i SnakeObject.obj
 0001:0002cd50       ??_ESnakeBody@@UAEPAXI@Z   0042dd50 f i SnakeObject.obj
 0001:0002cd50       ??_GSnakeBody@@UAEPAXI@Z   0042dd50 f i SnakeObject.obj
 0001:0002cd90       ??_ESnakeHead@@UAEPAXI@Z   0042dd90 f i SnakeObject.obj
 0001:0002cd90       ??_GSnakeHead@@UAEPAXI@Z   0042dd90 f i SnakeObject.obj
 0001:0002cdd0       ?_Change_array@?$vector@HV?$allocator@H@std@@@std@@AAEXQAHII@Z 0042ddd0 f i SnakeObject.obj
 0001:0002cea0       ?_Orphan_range@?$vector@HV?$allocator@H@std@@@std@@ABEXPAH0@Z 0042dea0 f i SnakeObject.obj
 0001:0002ced0       ?_Orphan_range_locked@?$vector@HV?$allocator@H@std@@@std@@ABEXPAH0@Z 0042ded0 f i SnakeObject.obj
 0001:0002cf60       ?_Orphan_range_unlocked@?$vector@HV?$allocator@H@std@@@std@@ABEXPAH0@Z 0042df60 f i SnakeObject.obj
 0001:0002cfe0       ?checkCircles@CollisionDetection@@SA_NHHHHH@Z 0042dfe0 f i SnakeObject.obj
 0001:0002d040       ?count@?$duration@_JU?$ratio@$00$00@std@@@chrono@std@@QBE_JXZ 0042e040 f i SnakeObject.obj
 0001:0002d060       ?count@?$duration@_JU?$ratio@$00$0DLJKMKAA@@std@@@chrono@std@@QBE_JXZ 0042e060 f i SnakeObject.obj
 0001:0002d080       ?drawForegroundOval@BaseEngine@@QAEXHHHHI@Z 0042e080 f i SnakeObject.obj
 0001:0002d0c0       ?getAnimationEndY@SnakeHead@@QAEHXZ 0042e0c0 f i SnakeObject.obj
 0001:0002d0e0       ?getAnimationStartX@SnakeHead@@QAEHXZ 0042e0e0 f i SnakeObject.obj
 0001:0002d100       ?getAnimationStartY@SnakeHead@@QAEHXZ 0042e100 f i SnakeObject.obj
 0001:0002d120       ?getDisplayableObject@DisplayableObjectContainer@@QBEPAVDisplayableObject@@H@Z 0042e120 f i SnakeObject.obj
 0001:0002d160       ?getDrawingRegionBottom@DisplayableObject@@QBEHXZ 0042e160 f i SnakeObject.obj
 0001:0002d190       ?getDrawingRegionLeft@DisplayableObject@@QBEHXZ 0042e190 f i SnakeObject.obj
 0001:0002d1b0       ?getDrawingRegionRight@DisplayableObject@@QBEHXZ 0042e1b0 f i SnakeObject.obj
 0001:0002d1e0       ?getDrawingRegionTop@DisplayableObject@@QBEHXZ 0042e1e0 f i SnakeObject.obj
 0001:0002d200       ?getFoodObject@SnakeHead@@QAEPAVFoodObject@@XZ 0042e200 f i SnakeObject.obj
 0001:0002d220       ?getGameOver@SnakeHead@@QAE_NXZ 0042e220 f i SnakeObject.obj
 0001:0002d240       ?getIDir@SnakeHead@@QAEHXZ 0042e240 f i SnakeObject.obj
 0001:0002d260       ?getPoint@SnakeHead@@QAEHXZ 0042e260 f i SnakeObject.obj
 0001:0002d280       ?getX1@FoodObject@@QAEHXZ  0042e280 f i SnakeObject.obj
 0001:0002d2a0       ?getX2@FoodObject@@QAEHXZ  0042e2a0 f i SnakeObject.obj
 0001:0002d2c0       ?getXCentre@DisplayableObject@@QBEHXZ 0042e2c0 f i SnakeObject.obj
 0001:0002d2f0       ?getY1@FoodObject@@QAEHXZ  0042e2f0 f i SnakeObject.obj
 0001:0002d310       ?getY2@FoodObject@@QAEHXZ  0042e310 f i SnakeObject.obj
 0001:0002d330       ?getYCentre@DisplayableObject@@QBEHXZ 0042e330 f i SnakeObject.obj
 0001:0002d360       ?now@steady_clock@chrono@std@@SA?AV?$time_point@Usteady_clock@chrono@std@@V?$duration@_JU?$ratio@$00$0DLJKMKAA@@std@@@23@@23@XZ 0042e360 f i SnakeObject.obj
 0001:0002d4b0       ?push_back@?$vector@HV?$allocator@H@std@@@std@@QAEXABH@Z 0042e4b0 f i SnakeObject.obj
 0001:0002d4d0       ?setBodyNum@SnakeBody@@QAEXH@Z 0042e4d0 f i SnakeObject.obj
 0001:0002d4f0       ?setGameOver@SnakeHead@@QAEX_N@Z 0042e4f0 f i SnakeObject.obj
 0001:0002d510       ?setX1@FoodObject@@QAEXH@Z 0042e510 f i SnakeObject.obj
 0001:0002d530       ?setX2@FoodObject@@QAEXH@Z 0042e530 f i SnakeObject.obj
 0001:0002d550       ?setY1@FoodObject@@QAEXH@Z 0042e550 f i SnakeObject.obj
 0001:0002d570       ?setY2@FoodObject@@QAEXH@Z 0042e570 f i SnakeObject.obj
 0001:0002d590       ?size@?$vector@PAVSnakeBody@@V?$allocator@PAVSnakeBody@@@std@@@std@@QBEIXZ 0042e590 f i SnakeObject.obj
 0001:0002d5c0       ?time_since_epoch@?$time_point@Usteady_clock@chrono@std@@V?$duration@_JU?$ratio@$00$0DLJKMKAA@@std@@@23@@chrono@std@@QBE?AV?$duration@_JU?$ratio@$00$0DLJKMKAA@@std@@@23@XZ 0042e5c0 f i SnakeObject.obj
 0001:0002d5f0       ??0StarfieldDemo@@QAE@XZ   0042e5f0 f   StarfieldDemo.obj
 0001:0002d630       ??1StarfieldDemo@@UAE@XZ   0042e630 f   StarfieldDemo.obj
 0001:0002d660       ?virtSetupBackgroundBuffer@StarfieldDemo@@UAEXXZ 0042e660 f   StarfieldDemo.obj
 0001:0002d7a0       ?virtMainLoopDoBeforeUpdate@StarfieldDemo@@UAEXXZ 0042e7a0 f   StarfieldDemo.obj
 0001:0002d7e0       ?copyAllBackgroundBuffer@StarfieldDemo@@UAEXXZ 0042e7e0 f   StarfieldDemo.obj
 0001:0002d920       ??_EStarfieldDemo@@UAEPAXI@Z 0042e920 f i StarfieldDemo.obj
 0001:0002d920       ??_GStarfieldDemo@@UAEPAXI@Z 0042e920 f i StarfieldDemo.obj
 0001:0002d960       ?setBackground@States@@UAEXXZ 0042e960 f   States.obj
 0001:0002d970       ?getScores@States@@UAE?AV?$vector@U?$pair@V?$basic_string@DU?$char_traits@D@std@@V?$allocator@D@2@@std@@H@std@@V?$allocator@U?$pair@V?$basic_string@DU?$char_traits@D@std@@V?$allocator@D@2@@std@@H@std@@@2@@std@@XZ 0042e970 f   States.obj
 0001:0002d9a0       ?sortScores@States@@UAE?AV?$vector@U?$pair@V?$basic_string@DU?$char_traits@D@std@@V?$allocator@D@2@@std@@H@std@@V?$allocator@U?$pair@V?$basic_string@DU?$char_traits@D@std@@V?$allocator@D@2@@std@@H@std@@@2@@std@@V23@@Z 0042e9a0 f   States.obj
 0001:0002d9e0       ?setBackground@startingState@@UAEXXZ 0042e9e0 f   States.obj
 0001:0002dad0       ?setBackground@tutorialState@@UAEXXZ 0042ead0 f   States.obj
 0001:0002db90       ?setBackground@runningState@@UAEXXZ 0042eb90 f   States.obj
 0001:0002dc50       ?setBackground@winningState@@UAEXXZ 0042ec50 f   States.obj
 0001:0002dd10       ?setBackground@losingState@@UAEXXZ 0042ed10 f   States.obj
 0001:0002ddd0       ?getScores@highscoreState@@UAE?AV?$vector@U?$pair@V?$basic_string@DU?$char_traits@D@std@@V?$allocator@D@2@@std@@H@std@@V?$allocator@U?$pair@V?$basic_string@DU?$char_traits@D@std@@V?$allocator@D@2@@std@@H@std@@@2@@std@@XZ 0042edd0 f   States.obj
 0001:0002df90       ?sortScores@highscoreState@@UAE?AV?$vector@U?$pair@V?$basic_string@DU?$char_traits@D@std@@V?$allocator@D@2@@std@@H@std@@V?$allocator@U?$pair@V?$basic_string@DU?$char_traits@D@std@@V?$allocator@D@2@@std@@H@std@@@2@@std@@V23@@Z 0042ef90 f   States.obj
 0001:0002e1f0       ??$?0$$V@?$_Compressed_pair@V?$allocator@U?$pair@V?$basic_string@DU?$char_traits@D@std@@V?$allocator@D@2@@std@@H@std@@@std@@V?$_Vector_val@U?$_Simple_types@U?$pair@V?$basic_string@DU?$char_traits@D@std@@V?$allocator@D@2@@std@@H@std@@@std@@@2@$00@std@@QAE@U_Zero_then_variadic_args_t@1@@Z 0042f1f0 f i States.obj
 0001:0002e220       ??$?0AAPAU?$pair@V?$basic_string@DU?$char_traits@D@std@@V?$allocator@D@2@@std@@H@std@@AAPAU01@$0A@@?$pair@PAU?$pair@V?$basic_string@DU?$char_traits@D@std@@V?$allocator@D@2@@std@@H@std@@PAU12@@std@@QAE@AAPAU?$pair@V?$basic_string@DU?$char_traits@D@std@@V?$allocator@D@2@@std@@H@1@0@Z 0042f220 f i States.obj
 0001:0002e270       ??$?0AAV?$basic_string@DU?$char_traits@D@std@@V?$allocator@D@2@@std@@H$0A@@?$pair@V?$basic_string@DU?$char_traits@D@std@@V?$allocator@D@2@@std@@H@std@@QAE@AAV?$basic_string@DU?$char_traits@D@std@@V?$allocator@D@2@@1@$$QAH@Z 0042f270 f i States.obj
 0001:0002e2c0       ??$?0V?$allocator@U?$pair@V?$basic_string@DU?$char_traits@D@std@@V?$allocator@D@2@@std@@H@std@@@std@@$$V@?$_Compressed_pair@V?$allocator@U?$pair@V?$basic_string@DU?$char_traits@D@std@@V?$allocator@D@2@@std@@H@std@@@std@@V?$_Vector_val@U?$_Simple_types@U?$pair@V?$basic_string@DU?$char_traits@D@std@@V?$allocator@D@2@@std@@H@std@@@std@@@2@$00@std@@QAE@U_One_then_variadic_args_t@1@$$QAV?$allocator@U?$pair@V?$basic_string@DU?$char_traits@D@std@@V?$allocator@D@2@@std@@H@std@@@1@@Z 0042f2c0 f i States.obj
 0001:0002e2f0       ??$?0V?$allocator@U?$pair@V?$basic_string@DU?$char_traits@D@std@@V?$allocator@D@2@@std@@H@std@@@std@@PAU?$pair@V?$basic_string@DU?$char_traits@D@std@@V?$allocator@D@2@@std@@H@1@PAU21@PAU21@@?$_Compressed_pair@V?$allocator@U?$pair@V?$basic_string@DU?$char_traits@D@std@@V?$allocator@D@2@@std@@H@std@@@std@@V?$_Vector_val@U?$_Simple_types@U?$pair@V?$basic_string@DU?$char_traits@D@std@@V?$allocator@D@2@@std@@H@std@@@std@@@2@$00@std@@QAE@U_One_then_variadic_args_t@1@$$QAV?$allocator@U?$pair@V?$basic_string@DU?$char_traits@D@std@@V?$allocator@D@2@@std@@H@std@@@1@$$QAPAU?$pair@V?$basic_string@DU?$char_traits@D@std@@V?$allocator@D@2@@std@@H@1@22@Z 0042f2f0 f i States.obj
 0001:0002e360       ??$?4U?$pair@V?$basic_string@DU?$char_traits@D@std@@V?$allocator@D@2@@std@@H@std@@$0A@@?$pair@V?$basic_string@DU?$char_traits@D@std@@V?$allocator@D@2@@std@@H@std@@QAEAAU01@$$QAU01@@Z 0042f360 f i States.obj
 0001:0002e3b0       ??$?8DD@std@@YA_NABV?$allocator@D@0@0@Z 0042f3b0 f i States.obj
 0001:0002e400       ??$_Adl_verify_range@V?$_Vector_iterator@V?$_Vector_val@U?$_Simple_types@U?$pair@V?$basic_string@DU?$char_traits@D@std@@V?$allocator@D@2@@std@@H@std@@@std@@@std@@@std@@V12@@std@@YAXABV?$_Vector_iterator@V?$_Vector_val@U?$_Simple_types@U?$pair@V?$basic_string@DU?$char_traits@D@std@@V?$allocator@D@2@@std@@H@std@@@std@@@std@@@0@0@Z 0042f400 f i States.obj
 0001:0002e420       ??$_Construct_n@ABQAU?$pair@V?$basic_string@DU?$char_traits@D@std@@V?$allocator@D@2@@std@@H@std@@ABQAU12@@?$vector@U?$pair@V?$basic_string@DU?$char_traits@D@std@@V?$allocator@D@2@@std@@H@std@@V?$allocator@U?$pair@V?$basic_string@DU?$char_traits@D@std@@V?$allocator@D@2@@std@@H@std@@@2@@std@@AAEXIABQAU?$pair@V?$basic_string@DU?$char_traits@D@std@@V?$allocator@D@2@@std@@H@1@0@Z 0042f420 f i States.obj
 0001:0002e600       ??$_Emplace_back@AAU?$pair@V?$basic_string@DU?$char_traits@D@std@@V?$allocator@D@2@@std@@H@std@@@?$_Uninitialized_backout_al@V?$allocator@U?$pair@V?$basic_string@DU?$char_traits@D@std@@V?$allocator@D@2@@std@@H@std@@@std@@@std@@QAEXAAU?$pair@V?$basic_string@DU?$char_traits@D@std@@V?$allocator@D@2@@std@@H@1@@Z 0042f600 f i States.obj
 0001:0002e660       ??$_Emplace_back@U?$pair@V?$basic_string@DU?$char_traits@D@std@@V?$allocator@D@2@@std@@H@std@@@?$_Uninitialized_backout_al@V?$allocator@U?$pair@V?$basic_string@DU?$char_traits@D@std@@V?$allocator@D@2@@std@@H@std@@@std@@@std@@QAEX$$QAU?$pair@V?$basic_string@DU?$char_traits@D@std@@V?$allocator@D@2@@std@@H@1@@Z 0042f660 f i States.obj
 0001:0002e6c0       ??$_Emplace_back_with_unused_capacity@AAV?$basic_string@DU?$char_traits@D@std@@V?$allocator@D@2@@std@@H@?$vector@U?$pair@V?$basic_string@DU?$char_traits@D@std@@V?$allocator@D@2@@std@@H@std@@V?$allocator@U?$pair@V?$basic_string@DU?$char_traits@D@std@@V?$allocator@D@2@@std@@H@std@@@2@@std@@AAEAAU?$pair@V?$basic_string@DU?$char_traits@D@std@@V?$allocator@D@2@@std@@H@1@AAV?$basic_string@DU?$char_traits@D@std@@V?$allocator@D@2@@1@$$QAH@Z 0042f6c0 f i States.obj
 0001:0002e770       ??$_Emplace_one_at_back@AAV?$basic_string@DU?$char_traits@D@std@@V?$allocator@D@2@@std@@H@?$vector@U?$pair@V?$basic_string@DU?$char_traits@D@std@@V?$allocator@D@2@@std@@H@std@@V?$allocator@U?$pair@V?$basic_string@DU?$char_traits@D@std@@V?$allocator@D@2@@std@@H@std@@@2@@std@@AAEAAU?$pair@V?$basic_string@DU?$char_traits@D@std@@V?$allocator@D@2@@std@@H@1@AAV?$basic_string@DU?$char_traits@D@std@@V?$allocator@D@2@@1@$$QAH@Z 0042f770 f i States.obj
 0001:0002e810       ??$_Emplace_reallocate@AAV?$basic_string@DU?$char_traits@D@std@@V?$allocator@D@2@@std@@H@?$vector@U?$pair@V?$basic_string@DU?$char_traits@D@std@@V?$allocator@D@2@@std@@H@std@@V?$allocator@U?$pair@V?$basic_string@DU?$char_traits@D@std@@V?$allocator@D@2@@std@@H@std@@@2@@std@@AAEPAU?$pair@V?$basic_string@DU?$char_traits@D@std@@V?$allocator@D@2@@std@@H@1@QAU21@AAV?$basic_string@DU?$char_traits@D@std@@V?$allocator@D@2@@1@$$QAH@Z 0042f810 f i States.obj
 0001:0002ea80       ??$_Get_size_of_n@$0CA@@std@@YAII@Z 0042fa80 f i States.obj
 0001:0002eac0       ??$_Get_unwrapped@ABQAU?$pair@V?$basic_string@DU?$char_traits@D@std@@V?$allocator@D@2@@std@@H@std@@@std@@YA?A_TABQAU?$pair@V?$basic_string@DU?$char_traits@D@std@@V?$allocator@D@2@@std@@H@0@@Z 0042fac0 f i States.obj
 0001:0002ead0       ??$_Get_unwrapped@ABV?$_Vector_iterator@V?$_Vector_val@U?$_Simple_types@U?$pair@V?$basic_string@DU?$char_traits@D@std@@V?$allocator@D@2@@std@@H@std@@@std@@@std@@@std@@@std@@YA?A_TABV?$_Vector_iterator@V?$_Vector_val@U?$_Simple_types@U?$pair@V?$basic_string@DU?$char_traits@D@std@@V?$allocator@D@2@@std@@H@std@@@std@@@std@@@0@@Z 0042fad0 f i States.obj
 0001:0002eae0       ??$_Get_unwrapped@PAU?$pair@V?$basic_string@DU?$char_traits@D@std@@V?$allocator@D@2@@std@@H@std@@@std@@YA?A_T$$QAPAU?$pair@V?$basic_string@DU?$char_traits@D@std@@V?$allocator@D@2@@std@@H@0@@Z 0042fae0 f i States.obj
 0001:0002ef70       ??$_Move_backward_unchecked@PAU?$pair@V?$basic_string@DU?$char_traits@D@std@@V?$allocator@D@2@@std@@H@std@@PAU12@@std@@YAPAU?$pair@V?$basic_string@DU?$char_traits@D@std@@V?$allocator@D@2@@std@@H@0@PAU10@00@Z 0042ff70 f i States.obj
 0001:0002efc0       ??$_Next_iter@PAU?$pair@V?$basic_string@DU?$char_traits@D@std@@V?$allocator@D@2@@std@@H@std@@@std@@YAPAU?$pair@V?$basic_string@DU?$char_traits@D@std@@V?$allocator@D@2@@std@@H@0@PAU10@@Z 0042ffc0 f i States.obj
 0001:0002f3b0       ??$_Pocma@V?$allocator@D@std@@@std@@YAXAAV?$allocator@D@0@0@Z 004303b0 f i States.obj
 0001:0002f3d0       ??$_Pocs@V?$allocator@D@std@@@std@@YAXAAV?$allocator@D@0@0@Z 004303d0 f i States.obj
 0001:0002f6e0       ??$_Prev_iter@PAU?$pair@V?$basic_string@DU?$char_traits@D@std@@V?$allocator@D@2@@std@@H@std@@@std@@YAPAU?$pair@V?$basic_string@DU?$char_traits@D@std@@V?$allocator@D@2@@std@@H@0@PAU10@@Z 004306e0 f i States.obj
 0001:0002f930       ??$_Swap_adl@H@std@@YAXAAH0@Z 00430930 f i States.obj
 0001:0002f950       ??$_Swap_adl@PAD@std@@YAXAAPAD0@Z 00430950 f i States.obj
 0001:0002f970       ??$_Swap_adl@V?$basic_string@DU?$char_traits@D@std@@V?$allocator@D@2@@std@@@std@@YAXAAV?$basic_string@DU?$char_traits@D@std@@V?$allocator@D@2@@0@0@Z 00430970 f i States.obj
 0001:0002f990       ??$_Uninitialized_copy@PAU?$pair@V?$basic_string@DU?$char_traits@D@std@@V?$allocator@D@2@@std@@H@std@@PAU12@V?$allocator@U?$pair@V?$basic_string@DU?$char_traits@D@std@@V?$allocator@D@2@@std@@H@std@@@2@@std@@YAPAU?$pair@V?$basic_string@DU?$char_traits@D@std@@V?$allocator@D@2@@std@@H@0@PAU10@00AAV?$allocator@U?$pair@V?$basic_string@DU?$char_traits@D@std@@V?$allocator@D@2@@std@@H@std@@@0@@Z 00430990 f i States.obj
 0001:0002fa80       ??$_Uninitialized_move@PAU?$pair@V?$basic_string@DU?$char_traits@D@std@@V?$allocator@D@2@@std@@H@std@@V?$allocator@U?$pair@V?$basic_string@DU?$char_traits@D@std@@V?$allocator@D@2@@std@@H@std@@@2@@std@@YAPAU?$pair@V?$basic_string@DU?$char_traits@D@std@@V?$allocator@D@2@@std@@H@0@QAU10@0PAU10@AAV?$allocator@U?$pair@V?$basic_string@DU?$char_traits@D@std@@V?$allocator@D@2@@std@@H@std@@@0@@Z 00430a80 f i States.obj
 0001:0002fb60       ??$_Voidify_iter@PAU?$pair@V?$basic_string@DU?$char_traits@D@std@@V?$allocator@D@2@@std@@H@std@@@std@@YAPAXPAU?$pair@V?$basic_string@DU?$char_traits@D@std@@V?$allocator@D@2@@std@@H@0@@Z 00430b60 f i States.obj
 0001:0002fb70       ??$addressof@U?$pair@V?$basic_string@DU?$char_traits@D@std@@V?$allocator@D@2@@std@@H@std@@@std@@YAPAU?$pair@V?$basic_string@DU?$char_traits@D@std@@V?$allocator@D@2@@std@@H@0@AAU10@@Z 00430b70 f i States.obj
 0001:0002fb80       ??$addressof@V?$_Vector_val@U?$_Simple_types@U?$pair@V?$basic_string@DU?$char_traits@D@std@@V?$allocator@D@2@@std@@H@std@@@std@@@std@@@std@@YAPAV?$_Vector_val@U?$_Simple_types@U?$pair@V?$basic_string@DU?$char_traits@D@std@@V?$allocator@D@2@@std@@H@std@@@std@@@0@AAV10@@Z 00430b80 f i States.obj
 0001:0002fb90       ??$addressof@V?$basic_string@DU?$char_traits@D@std@@V?$allocator@D@2@@std@@@std@@YAPAV?$basic_string@DU?$char_traits@D@std@@V?$allocator@D@2@@0@AAV10@@Z 00430b90 f i States.obj
 0001:0002fba0       ??$construct@U?$pair@V?$basic_string@DU?$char_traits@D@std@@V?$allocator@D@2@@std@@H@std@@AAU12@@?$_Default_allocator_traits@V?$allocator@U?$pair@V?$basic_string@DU?$char_traits@D@std@@V?$allocator@D@2@@std@@H@std@@@std@@@std@@SAXAAV?$allocator@U?$pair@V?$basic_string@DU?$char_traits@D@std@@V?$allocator@D@2@@std@@H@std@@@1@QAU?$pair@V?$basic_string@DU?$char_traits@D@std@@V?$allocator@D@2@@std@@H@1@AAU31@@Z 00430ba0 f i States.obj
 0001:0002fbf0       ??$construct@U?$pair@V?$basic_string@DU?$char_traits@D@std@@V?$allocator@D@2@@std@@H@std@@AAV?$basic_string@DU?$char_traits@D@std@@V?$allocator@D@2@@2@H@?$_Default_allocator_traits@V?$allocator@U?$pair@V?$basic_string@DU?$char_traits@D@std@@V?$allocator@D@2@@std@@H@std@@@std@@@std@@SAXAAV?$allocator@U?$pair@V?$basic_string@DU?$char_traits@D@std@@V?$allocator@D@2@@std@@H@std@@@1@QAU?$pair@V?$basic_string@DU?$char_traits@D@std@@V?$allocator@D@2@@std@@H@1@AAV?$basic_string@DU?$char_traits@D@std@@V?$allocator@D@2@@1@$$QAH@Z 00430bf0 f i States.obj
 0001:0002fc50       ??$construct@U?$pair@V?$basic_string@DU?$char_traits@D@std@@V?$allocator@D@2@@std@@H@std@@U12@@?$_Default_allocator_traits@V?$allocator@U?$pair@V?$basic_string@DU?$char_traits@D@std@@V?$allocator@D@2@@std@@H@std@@@std@@@std@@SAXAAV?$allocator@U?$pair@V?$basic_string@DU?$char_traits@D@std@@V?$allocator@D@2@@std@@H@std@@@1@QAU?$pair@V?$basic_string@DU?$char_traits@D@std@@V?$allocator@D@2@@std@@H@1@$$QAU31@@Z 00430c50 f i States.obj
 0001:0002fca0       ??$emplace_back@AAV?$basic_string@DU?$char_traits@D@std@@V?$allocator@D@2@@std@@H@?$vector@U?$pair@V?$basic_string@DU?$char_traits@D@std@@V?$allocator@D@2@@std@@H@std@@V?$allocator@U?$pair@V?$basic_string@DU?$char_traits@D@std@@V?$allocator@D@2@@std@@H@std@@@2@@std@@QAE?A_TAAV?$basic_string@DU?$char_traits@D@std@@V?$allocator@D@2@@1@$$QAH@Z 00430ca0 f i States.obj
 0001:0002fcf0       ??$exchange@PAU?$pair@V?$basic_string@DU?$char_traits@D@std@@V?$allocator@D@2@@std@@H@std@@$$T@std@@YAPAU?$pair@V?$basic_string@DU?$char_traits@D@std@@V?$allocator@D@2@@std@@H@0@AAPAU10@$$QA$$T@Z 00430cf0 f i States.obj
 0001:0002fd20       ??$forward@AAPAU?$pair@V?$basic_string@DU?$char_traits@D@std@@V?$allocator@D@2@@std@@H@std@@@std@@YAAAPAU?$pair@V?$basic_string@DU?$char_traits@D@std@@V?$allocator@D@2@@std@@H@0@AAPAU10@@Z 00430d20 f i States.obj
 0001:0002fd30       ??$forward@AAU?$pair@V?$basic_string@DU?$char_traits@D@std@@V?$allocator@D@2@@std@@H@std@@@std@@YAAAU?$pair@V?$basic_string@DU?$char_traits@D@std@@V?$allocator@D@2@@std@@H@0@AAU10@@Z 00430d30 f i States.obj
 0001:0002fd40       ??$forward@ABQAU?$pair@V?$basic_string@DU?$char_traits@D@std@@V?$allocator@D@2@@std@@H@std@@@std@@YAABQAU?$pair@V?$basic_string@DU?$char_traits@D@std@@V?$allocator@D@2@@std@@H@0@ABQAU10@@Z 00430d40 f i States.obj
 0001:0002fd50       ??$forward@PAU?$pair@V?$basic_string@DU?$char_traits@D@std@@V?$allocator@D@2@@std@@H@std@@@std@@YA$$QAPAU?$pair@V?$basic_string@DU?$char_traits@D@std@@V?$allocator@D@2@@std@@H@0@AAPAU10@@Z 00430d50 f i States.obj
 0001:0002fd60       ??$forward@U?$pair@V?$basic_string@DU?$char_traits@D@std@@V?$allocator@D@2@@std@@H@std@@@std@@YA$$QAU?$pair@V?$basic_string@DU?$char_traits@D@std@@V?$allocator@D@2@@std@@H@0@AAU10@@Z 00430d60 f i States.obj
 0001:0002fd70       ??$forward@V?$allocator@U?$pair@V?$basic_string@DU?$char_traits@D@std@@V?$allocator@D@2@@std@@H@std@@@std@@@std@@YA$$QAV?$allocator@U?$pair@V?$basic_string@DU?$char_traits@D@std@@V?$allocator@D@2@@std@@H@std@@@0@AAV10@@Z 00430d70 f i States.obj
 0001:0002fd80       ??$getline@DU?$char_traits@D@std@@V?$allocator@D@2@@std@@YAAAV?$basic_istream@DU?$char_traits@D@std@@@0@$$QAV10@AAV?$basic_string@DU?$char_traits@D@std@@V?$allocator@D@2@@0@D@Z 00430d80 f i States.obj
 0001:00030000       ??$getline@DU?$char_traits@D@std@@V?$allocator@D@2@@std@@YAAAV?$basic_istream@DU?$char_traits@D@std@@@0@AAV10@AAV?$basic_string@DU?$char_traits@D@std@@V?$allocator@D@2@@0@@Z 00431000 f i States.obj
 0001:00030050       ??$iter_swap@PAU?$pair@V?$basic_string@DU?$char_traits@D@std@@V?$allocator@D@2@@std@@H@std@@PAU12@@std@@YAXPAU?$pair@V?$basic_string@DU?$char_traits@D@std@@V?$allocator@D@2@@std@@H@0@0@Z 00431050 f i States.obj
 0001:00030070       ??$move@AAI@std@@YA$$QAIAAI@Z 00431070 f i States.obj
 0001:00030080       ??$move@AAPAD@std@@YA$$QAPADAAPAD@Z 00431080 f i States.obj
 0001:00030090       ??$move@AAPAU?$pair@V?$basic_string@DU?$char_traits@D@std@@V?$allocator@D@2@@std@@H@std@@@std@@YA$$QAPAU?$pair@V?$basic_string@DU?$char_traits@D@std@@V?$allocator@D@2@@std@@H@0@AAPAU10@@Z 00431090 f i States.obj
 0001:000300a0       ??$move@AAU?$pair@V?$basic_string@DU?$char_traits@D@std@@V?$allocator@D@2@@std@@H@std@@@std@@YA$$QAU?$pair@V?$basic_string@DU?$char_traits@D@std@@V?$allocator@D@2@@std@@H@0@AAU10@@Z 004310a0 f i States.obj
 0001:000300b0       ??$move@AAV?$allocator@U?$pair@V?$basic_string@DU?$char_traits@D@std@@V?$allocator@D@2@@std@@H@std@@@std@@@std@@YA$$QAV?$allocator@U?$pair@V?$basic_string@DU?$char_traits@D@std@@V?$allocator@D@2@@std@@H@std@@@0@AAV10@@Z 004310b0 f i States.obj
 0001:000300c0       ??$move@AAV?$basic_istream@DU?$char_traits@D@std@@@std@@@std@@YA$$QAV?$basic_istream@DU?$char_traits@D@std@@@0@AAV10@@Z 004310c0 f i States.obj
 0001:000301c0       ??$swap@DU?$char_traits@D@std@@V?$allocator@D@2@@std@@YAXAAV?$basic_string@DU?$char_traits@D@std@@V?$allocator@D@2@@0@0@Z 004311c0 f i States.obj
 0001:000301e0       ??$swap@I$0A@@std@@YAXAAI0@Z 004311e0 f i States.obj
 0001:00030230       ??$swap@PAD$0A@@std@@YAXAAPAD0@Z 00431230 f i States.obj
 0001:00030280       ??$swap@V?$basic_string@DU?$char_traits@D@std@@V?$allocator@D@2@@std@@H$0A@@std@@YAXAAU?$pair@V?$basic_string@DU?$char_traits@D@std@@V?$allocator@D@2@@std@@H@0@0@Z 00431280 f i States.obj
 0001:000302a0       ??0?$_Uninitialized_backout_al@V?$allocator@U?$pair@V?$basic_string@DU?$char_traits@D@std@@V?$allocator@D@2@@std@@H@std@@@std@@@std@@QAE@PAU?$pair@V?$basic_string@DU?$char_traits@D@std@@V?$allocator@D@2@@std@@H@1@AAV?$allocator@U?$pair@V?$basic_string@DU?$char_traits@D@std@@V?$allocator@D@2@@std@@H@std@@@1@@Z 004312a0 f i States.obj
 0001:000302e0       ??0?$_Vector_const_iterator@V?$_Vector_val@U?$_Simple_types@U?$pair@V?$basic_string@DU?$char_traits@D@std@@V?$allocator@D@2@@std@@H@std@@@std@@@std@@@std@@QAE@PAU?$pair@V?$basic_string@DU?$char_traits@D@std@@V?$allocator@D@2@@std@@H@1@PBU_Container_base12@1@@Z 004312e0 f i States.obj
 0001:00030320       ??0?$_Vector_iterator@V?$_Vector_val@U?$_Simple_types@U?$pair@V?$basic_string@DU?$char_traits@D@std@@V?$allocator@D@2@@std@@H@std@@@std@@@std@@@std@@QAE@PAU?$pair@V?$basic_string@DU?$char_traits@D@std@@V?$allocator@D@2@@std@@H@1@PBU_Container_base12@1@@Z 00431320 f i States.obj
 0001:00030350       ??0?$_Vector_val@U?$_Simple_types@U?$pair@V?$basic_string@DU?$char_traits@D@std@@V?$allocator@D@2@@std@@H@std@@@std@@@std@@QAE@PAU?$pair@V?$basic_string@DU?$char_traits@D@std@@V?$allocator@D@2@@std@@H@1@00@Z 00431350 f i States.obj
 0001:00030390       ??0?$_Vector_val@U?$_Simple_types@U?$pair@V?$basic_string@DU?$char_traits@D@std@@V?$allocator@D@2@@std@@H@std@@@std@@@std@@QAE@XZ 00431390 f i States.obj
 0001:000303e0       ??0?$allocator@U?$pair@V?$basic_string@DU?$char_traits@D@std@@V?$allocator@D@2@@std@@H@std@@@std@@QAE@XZ 004313e0 f i States.obj
 0001:00030400       ??0?$basic_ifstream@DU?$char_traits@D@std@@@std@@QAE@PBDHH@Z 00431400 f i States.obj
 0001:00030550       ??0?$pair@V?$basic_string@DU?$char_traits@D@std@@V?$allocator@D@2@@std@@H@std@@QAE@$$QAU01@@Z 00431550 f i States.obj
 0001:00030590       ??0?$pair@V?$basic_string@DU?$char_traits@D@std@@V?$allocator@D@2@@std@@H@std@@QAE@ABU01@@Z 00431590 f i States.obj
 0001:000305d0       ??0?$vector@U?$pair@V?$basic_string@DU?$char_traits@D@std@@V?$allocator@D@2@@std@@H@std@@V?$allocator@U?$pair@V?$basic_string@DU?$char_traits@D@std@@V?$allocator@D@2@@std@@H@std@@@2@@std@@QAE@$$QAV01@@Z 004315d0 f i States.obj
 0001:00030700       ??0?$vector@U?$pair@V?$basic_string@DU?$char_traits@D@std@@V?$allocator@D@2@@std@@H@std@@V?$allocator@U?$pair@V?$basic_string@DU?$char_traits@D@std@@V?$allocator@D@2@@std@@H@std@@@2@@std@@QAE@ABV01@@Z 00431700 f i States.obj
 0001:00030780       ??0?$vector@U?$pair@V?$basic_string@DU?$char_traits@D@std@@V?$allocator@D@2@@std@@H@std@@V?$allocator@U?$pair@V?$basic_string@DU?$char_traits@D@std@@V?$allocator@D@2@@std@@H@std@@@2@@std@@QAE@XZ 00431780 f i States.obj
 0001:00030800       ??0_Sentry_base@?$basic_istream@DU?$char_traits@D@std@@@std@@QAE@AAV12@@Z 00431800 f i States.obj
 0001:00030860       ??0sentry@?$basic_istream@DU?$char_traits@D@std@@@std@@QAE@AAV12@_N@Z 00431860 f i States.obj
 0001:000308f0       ??1?$_Tidy_guard@V?$vector@U?$pair@V?$basic_string@DU?$char_traits@D@std@@V?$allocator@D@2@@std@@H@std@@V?$allocator@U?$pair@V?$basic_string@DU?$char_traits@D@std@@V?$allocator@D@2@@std@@H@std@@@2@@std@@@std@@QAE@XZ 004318f0 f i States.obj
 0001:00030920       ??1?$_Uninitialized_backout_al@V?$allocator@U?$pair@V?$basic_string@DU?$char_traits@D@std@@V?$allocator@D@2@@std@@H@std@@@std@@@std@@QAE@XZ 00431920 f i States.obj
 0001:00030950       ??1?$_Vector_const_iterator@V?$_Vector_val@U?$_Simple_types@U?$pair@V?$basic_string@DU?$char_traits@D@std@@V?$allocator@D@2@@std@@H@std@@@std@@@std@@@std@@QAE@XZ 00431950 f i States.obj
 0001:00030970       ??1?$_Vector_iterator@V?$_Vector_val@U?$_Simple_types@U?$pair@V?$basic_string@DU?$char_traits@D@std@@V?$allocator@D@2@@std@@H@std@@@std@@@std@@@std@@QAE@XZ 00431970 f i States.obj
 0001:00030990       ??1?$basic_ifstream@DU?$char_traits@D@std@@@std@@UAE@XZ 00431990 f i States.obj
 0001:00030a00       ??1_Sentry_base@?$basic_istream@DU?$char_traits@D@std@@@std@@QAE@XZ 00431a00 f i States.obj
 0001:00030a90       ??1sentry@?$basic_istream@DU?$char_traits@D@std@@@std@@QAE@XZ 00431a90 f i States.obj
 0001:00030ab0       ??4?$basic_string@DU?$char_traits@D@std@@V?$allocator@D@2@@std@@QAEAAV01@$$QAV01@@Z 00431ab0 f i States.obj
 0001:00030b40       ??Bsentry@?$basic_istream@DU?$char_traits@D@std@@@std@@QBE_NXZ 00431b40 f i States.obj
 0001:00030b60       ??Y?$basic_string@DU?$char_traits@D@std@@V?$allocator@D@2@@std@@QAEAAV01@D@Z 00431b60 f i States.obj
 0001:00030b90       ??_D?$basic_ifstream@DU?$char_traits@D@std@@@std@@QAEXXZ 00431b90 f i States.obj
 0001:00030bba       ??_E?$basic_ifstream@DU?$char_traits@D@std@@@std@@$4PPPPPPPM@A@AEPAXI@Z 00431bba f i States.obj
 0001:00030bd0       ??_E?$basic_ifstream@DU?$char_traits@D@std@@@std@@UAEPAXI@Z 00431bd0 f i States.obj
 0001:00030bd0       ??_G?$basic_ifstream@DU?$char_traits@D@std@@@std@@UAEPAXI@Z 00431bd0 f i States.obj
 0001:00030c20       ?_Buy_nonzero@?$vector@U?$pair@V?$basic_string@DU?$char_traits@D@std@@V?$allocator@D@2@@std@@H@std@@V?$allocator@U?$pair@V?$basic_string@DU?$char_traits@D@std@@V?$allocator@D@2@@std@@H@std@@@2@@std@@AAEXI@Z 00431c20 f i States.obj
 0001:00030c60       ?_Buy_raw@?$vector@U?$pair@V?$basic_string@DU?$char_traits@D@std@@V?$allocator@D@2@@std@@H@std@@V?$allocator@U?$pair@V?$basic_string@DU?$char_traits@D@std@@V?$allocator@D@2@@std@@H@std@@@2@@std@@AAEXI@Z 00431c60 f i States.obj
 0001:00030ce0       ?_Calculate_growth@?$vector@U?$pair@V?$basic_string@DU?$char_traits@D@std@@V?$allocator@D@2@@std@@H@std@@V?$allocator@U?$pair@V?$basic_string@DU?$char_traits@D@std@@V?$allocator@D@2@@std@@H@std@@@2@@std@@ABEII@Z 00431ce0 f i States.obj
 0001:00030d50       ?_Change_array@?$vector@U?$pair@V?$basic_string@DU?$char_traits@D@std@@V?$allocator@D@2@@std@@H@std@@V?$allocator@U?$pair@V?$basic_string@DU?$char_traits@D@std@@V?$allocator@D@2@@std@@H@std@@@2@@std@@AAEXQAU?$pair@V?$basic_string@DU?$char_traits@D@std@@V?$allocator@D@2@@std@@H@2@II@Z 00431d50 f i States.obj
 0001:00030e20       ?_Get_first@?$_Compressed_pair@V?$allocator@U?$pair@V?$basic_string@DU?$char_traits@D@std@@V?$allocator@D@2@@std@@H@std@@@std@@V?$_Vector_val@U?$_Simple_types@U?$pair@V?$basic_string@DU?$char_traits@D@std@@V?$allocator@D@2@@std@@H@std@@@std@@@2@$00@std@@QBEABV?$allocator@U?$pair@V?$basic_string@DU?$char_traits@D@std@@V?$allocator@D@2@@std@@H@std@@@2@XZ 00431e20 f i States.obj
 0001:00030e40       ?_Getal@?$vector@U?$pair@V?$basic_string@DU?$char_traits@D@std@@V?$allocator@D@2@@std@@H@std@@V?$allocator@U?$pair@V?$basic_string@DU?$char_traits@D@std@@V?$allocator@D@2@@std@@H@std@@@2@@std@@ABEABV?$allocator@U?$pair@V?$basic_string@DU?$char_traits@D@std@@V?$allocator@D@2@@std@@H@std@@@2@XZ 00431e40 f i States.obj
 0001:00030e60       ?_Orphan_range@?$vector@U?$pair@V?$basic_string@DU?$char_traits@D@std@@V?$allocator@D@2@@std@@H@std@@V?$allocator@U?$pair@V?$basic_string@DU?$char_traits@D@std@@V?$allocator@D@2@@std@@H@std@@@2@@std@@ABEXPAU?$pair@V?$basic_string@DU?$char_traits@D@std@@V?$allocator@D@2@@std@@H@2@0@Z 00431e60 f i States.obj
 0001:00030e90       ?_Orphan_range_locked@?$vector@U?$pair@V?$basic_string@DU?$char_traits@D@std@@V?$allocator@D@2@@std@@H@std@@V?$allocator@U?$pair@V?$basic_string@DU?$char_traits@D@std@@V?$allocator@D@2@@std@@H@std@@@2@@std@@ABEXPAU?$pair@V?$basic_string@DU?$char_traits@D@std@@V?$allocator@D@2@@std@@H@2@0@Z 00431e90 f i States.obj
 0001:00030f20       ?_Orphan_range_unlocked@?$vector@U?$pair@V?$basic_string@DU?$char_traits@D@std@@V?$allocator@D@2@@std@@H@std@@V?$allocator@U?$pair@V?$basic_string@DU?$char_traits@D@std@@V?$allocator@D@2@@std@@H@std@@@2@@std@@ABEXPAU?$pair@V?$basic_string@DU?$char_traits@D@std@@V?$allocator@D@2@@std@@H@2@0@Z 00431f20 f i States.obj
 0001:00030fa0       ?_Release@?$_Uninitialized_backout_al@V?$allocator@U?$pair@V?$basic_string@DU?$char_traits@D@std@@V?$allocator@D@2@@std@@H@std@@@std@@@std@@QAEPAU?$pair@V?$basic_string@DU?$char_traits@D@std@@V?$allocator@D@2@@std@@H@2@XZ 00431fa0 f i States.obj
 0001:00030fd0       ?_Swap_bx_large_with_small@?$basic_string@DU?$char_traits@D@std@@V?$allocator@D@2@@std@@SAXAAV?$_String_val@U?$_Simple_types@D@std@@@2@0@Z 00431fd0 f i States.obj
 0001:00031040       ?_Swap_data@?$basic_string@DU?$char_traits@D@std@@V?$allocator@D@2@@std@@QAEXAAV12@@Z 00432040 f i States.obj
 0001:00031230       ?_Unwrapped@?$_Vector_iterator@V?$_Vector_val@U?$_Simple_types@U?$pair@V?$basic_string@DU?$char_traits@D@std@@V?$allocator@D@2@@std@@H@std@@@std@@@std@@@std@@QBEPAU?$pair@V?$basic_string@DU?$char_traits@D@std@@V?$allocator@D@2@@std@@H@2@XZ 00432230 f i States.obj
 0001:00031250       ?_Verify_range@std@@YAXABV?$_Vector_const_iterator@V?$_Vector_val@U?$_Simple_types@U?$pair@V?$basic_string@DU?$char_traits@D@std@@V?$allocator@D@2@@std@@H@std@@@std@@@std@@@1@0@Z 00432250 f i States.obj
 0001:00031350       ?_Xlength@?$vector@U?$pair@V?$basic_string@DU?$char_traits@D@std@@V?$allocator@D@2@@std@@H@std@@V?$allocator@U?$pair@V?$basic_string@DU?$char_traits@D@std@@V?$allocator@D@2@@std@@H@std@@@2@@std@@CAXXZ 00432350 f i States.obj
 0001:00031370       ?allocate@?$allocator@U?$pair@V?$basic_string@DU?$char_traits@D@std@@V?$allocator@D@2@@std@@H@std@@@std@@QAEPAU?$pair@V?$basic_string@DU?$char_traits@D@std@@V?$allocator@D@2@@std@@H@2@I@Z 00432370 f i States.obj
 0001:000313a0       ?begin@?$vector@U?$pair@V?$basic_string@DU?$char_traits@D@std@@V?$allocator@D@2@@std@@H@std@@V?$allocator@U?$pair@V?$basic_string@DU?$char_traits@D@std@@V?$allocator@D@2@@std@@H@std@@@2@@std@@QAE?AV?$_Vector_iterator@V?$_Vector_val@U?$_Simple_types@U?$pair@V?$basic_string@DU?$char_traits@D@std@@V?$allocator@D@2@@std@@H@std@@@std@@@std@@@2@XZ 004323a0 f i States.obj
 0001:000313f0       ?capacity@?$vector@U?$pair@V?$basic_string@DU?$char_traits@D@std@@V?$allocator@D@2@@std@@H@std@@V?$allocator@U?$pair@V?$basic_string@DU?$char_traits@D@std@@V?$allocator@D@2@@std@@H@std@@@2@@std@@QBEIXZ 004323f0 f i States.obj
 0001:00031420       ?close@?$basic_ifstream@DU?$char_traits@D@std@@@std@@QAEXXZ 00432420 f i States.obj
 0001:00031460       ?drawBackgroundLine@BaseEngine@@QAEXHHHHI@Z 00432460 f i States.obj
 0001:000314d0       ?end@?$vector@U?$pair@V?$basic_string@DU?$char_traits@D@std@@V?$allocator@D@2@@std@@H@std@@V?$allocator@U?$pair@V?$basic_string@DU?$char_traits@D@std@@V?$allocator@D@2@@std@@H@std@@@2@@std@@QAE?AV?$_Vector_iterator@V?$_Vector_val@U?$_Simple_types@U?$pair@V?$basic_string@DU?$char_traits@D@std@@V?$allocator@D@2@@std@@H@std@@@std@@@std@@@2@XZ 004324d0 f i States.obj
 0001:00031520       ?erase@?$basic_string@DU?$char_traits@D@std@@V?$allocator@D@2@@std@@QAEAAV12@I@Z 00432520 f i States.obj
 0001:00031560       ?getEngine@States@@QAEPAVefylw5Engine@@XZ 00432560 f i States.obj
 0001:00031580       ?lockForegroundForDrawing@BaseEngine@@QAEXXZ 00432580 f i States.obj
 0001:000315a0       ?max_size@?$_Default_allocator_traits@V?$allocator@U?$pair@V?$basic_string@DU?$char_traits@D@std@@V?$allocator@D@2@@std@@H@std@@@std@@@std@@SAIABV?$allocator@U?$pair@V?$basic_string@DU?$char_traits@D@std@@V?$allocator@D@2@@std@@H@std@@@2@@Z 004325a0 f i States.obj
 0001:000315b0       ?max_size@?$vector@U?$pair@V?$basic_string@DU?$char_traits@D@std@@V?$allocator@D@2@@std@@H@std@@V?$allocator@U?$pair@V?$basic_string@DU?$char_traits@D@std@@V?$allocator@D@2@@std@@H@std@@@2@@std@@QBEIXZ 004325b0 f i States.obj
 0001:00031600       ?select_on_container_copy_construction@?$_Default_allocator_traits@V?$allocator@U?$pair@V?$basic_string@DU?$char_traits@D@std@@V?$allocator@D@2@@std@@H@std@@@std@@@std@@SA?AV?$allocator@U?$pair@V?$basic_string@DU?$char_traits@D@std@@V?$allocator@D@2@@std@@H@std@@@2@ABV32@@Z 00432600 f i States.obj
 0001:00031610       ?stoi@std@@YAHABV?$basic_string@DU?$char_traits@D@std@@V?$allocator@D@2@@1@PAIH@Z 00432610 f i States.obj
 0001:000316b0       ?swap@?$basic_string@DU?$char_traits@D@std@@V?$allocator@D@2@@std@@QAEXAAV12@@Z 004326b0 f i States.obj
 0001:000317a0       ?swap@?$pair@V?$basic_string@DU?$char_traits@D@std@@V?$allocator@D@2@@std@@H@std@@QAEXAAU12@@Z 004327a0 f i States.obj
 0001:00031800       ?unlockForegroundForDrawing@BaseEngine@@QAEXXZ 00432800 f i States.obj
 0001:00031820       ?drawAllTiles@TileManager@@QBEXPAVBaseEngine@@PAVDrawingSurface@@@Z 00432820 f   TileManager.obj
 0001:000318c0       ?drawSomeTiles@TileManager@@QBEXPAVBaseEngine@@PAVDrawingSurface@@HHHH@Z 004328c0 f   TileManager.obj
 0001:00031960       ?virtDrawTileAt@TileManager@@UBEXPAVBaseEngine@@PAVDrawingSurface@@HHHH@Z 00432960 f   TileManager.obj
 0001:00031a50       ?getMapValue@TileManager@@QBEHHH@Z 00432a50 f i TileManager.obj
 0001:00031a80       ?getTileHeight@TileManager@@QBEHXZ 00432a80 f i TileManager.obj
 0001:00031aa0       ?getTileWidth@TileManager@@QBEHXZ 00432aa0 f i TileManager.obj
 0001:00031ac0       ??0BouncingBall@@QAE@PAVBouncingBallMain@@HHHHPBDHH@Z 00432ac0 f   BouncingBall.obj
 0001:00031b90       ??1BouncingBall@@UAE@XZ    00432b90 f   BouncingBall.obj
 0001:00031bb0       ?virtDraw@BouncingBall@@UAEXXZ 00432bb0 f   BouncingBall.obj
 0001:00031e80       ?virtDoUpdate@BouncingBall@@UAEXH@Z 00432e80 f   BouncingBall.obj
 0001:00031ea0       ??0BouncingBall1@@QAE@PAVBouncingBallMain@@HHHHPBDHHPAVTileManager@@@Z 00432ea0 f   BouncingBall.obj
 0001:00031f40       ?setMovement@BouncingBall1@@QAEXHHHHHHH@Z 00432f40 f   BouncingBall.obj
 0001:00031fb0       ?virtDoUpdate@BouncingBall1@@UAEXH@Z 00432fb0 f   BouncingBall.obj
 0001:00032120       ??0BouncingBall2@@QAE@PAVBouncingBallMain@@HHHHPBDHH@Z 00433120 f   BouncingBall.obj
 0001:000321a0       ?setPosition@BouncingBall2@@QAEXNN@Z 004331a0 f   BouncingBall.obj
 0001:000321d0       ?setSpeed@BouncingBall2@@QAEXNN@Z 004331d0 f   BouncingBall.obj
 0001:00032200       ?virtDoUpdate@BouncingBall2@@UAEXH@Z 00433200 f   BouncingBall.obj
 0001:000327f0       ??1BouncingBall1@@UAE@XZ   004337f0 f i BouncingBall.obj
 0001:00032810       ??1BouncingBall2@@UAE@XZ   00433810 f i BouncingBall.obj
 0001:00032830       ??_EBouncingBall1@@UAEPAXI@Z 00433830 f i BouncingBall.obj
 0001:00032830       ??_GBouncingBall1@@UAEPAXI@Z 00433830 f i BouncingBall.obj
 0001:00032870       ??_EBouncingBall2@@UAEPAXI@Z 00433870 f i BouncingBall.obj
 0001:00032870       ??_GBouncingBall2@@UAEPAXI@Z 00433870 f i BouncingBall.obj
 0001:000328b0       ??_EBouncingBall@@UAEPAXI@Z 004338b0 f i BouncingBall.obj
 0001:000328b0       ??_GBouncingBall@@UAEPAXI@Z 004338b0 f i BouncingBall.obj
 0001:000328f0       ?getMapXForScreenX@TileManager@@QBEHH@Z 004338f0 f i BouncingBall.obj
 0001:00032920       ?getMapYForScreenY@TileManager@@QBEHH@Z 00433920 f i BouncingBall.obj
 0001:00032950       ?isValidTilePosition@TileManager@@QBE_NHH@Z 00433950 f i BouncingBall.obj
 0001:000329e0       ?reverse@MovementPosition@@QAEXXZ 004339e0 f i BouncingBall.obj
 0001:00032a70       ?setAndRedrawMapValueAt@TileManager@@QAEXHHHPAVBaseEngine@@PAVDrawingSurface@@@Z 00433a70 f i BouncingBall.obj
 0001:00032b10       ?setMapValue@TileManager@@QAEHHHH@Z 00433b10 f i BouncingBall.obj
 0001:00032b50       ?virtMouseDown@BouncingBall@@UAEXHHH@Z 00433b50 f i BouncingBall.obj
 0001:00032b90       ?virtSetupBackgroundBuffer@BouncingBallMain@@UAEXXZ 00433b90 f   BouncingBallMain.obj
 0001:000333d0       ?virtInitialiseObjects@BouncingBallMain@@UAEHXZ 004343d0 f   BouncingBallMain.obj
 0001:000336a0       ?virtDrawStringsUnderneath@BouncingBallMain@@UAEXXZ 004346a0 f   BouncingBallMain.obj
 0001:000336e0       ?virtMouseDown@BouncingBallMain@@UAEXHHH@Z 004346e0 f   BouncingBallMain.obj
 0001:00033720       ?virtKeyDown@BouncingBallMain@@UAEXH@Z 00434720 f   BouncingBallMain.obj
 0001:00033a40       ?drawBackgroundPolygon@BaseEngine@@QAEXNNNNNNNNI@Z 00434a40 f i BouncingBallMain.obj
 0001:00033b00       ?drawBackgroundPolygon@BaseEngine@@QAEXNNNNNNNNNNI@Z 00434b00 f i BouncingBallMain.obj
 0001:00033bd0       ?drawBackgroundPolygon@BaseEngine@@QAEXNNNNNNNNNNNNI@Z 00434bd0 f i BouncingBallMain.obj
 0001:00033cc0       ?drawBackgroundPolygon@BaseEngine@@QAEXNNNNNNNNNNNNNNI@Z 00434cc0 f i BouncingBallMain.obj
 0001:00033dc0       ?drawBackgroundPolygon@BaseEngine@@QAEXNNNNNNNNNNNNNNNNI@Z 00434dc0 f i BouncingBallMain.obj
 0001:00033f00       ?drawBackgroundTriangle@BaseEngine@@QAEXHHHHHHI@Z 00434f00 f i BouncingBallMain.obj
 0001:00033f90       ?drawBackgroundVerticalSidedRegion@BaseEngine@@QAEXNNNNNNI@Z 00434f90 f i BouncingBallMain.obj
 0001:00034020       ?getFont@BaseEngine@@QAEPAVFont@@PBDH@Z 00435020 f i BouncingBallMain.obj
 0001:00034050       ?setMapSize@TileManager@@QAEXHH@Z 00435050 f i BouncingBallMain.obj
 0001:00034100       ?setTopLeftPositionOnScreen@TileManager@@QAEXHH@Z 00435100 f i BouncingBallMain.obj
 0001:00034130       ?virtInitialise@ZoomingDemo@@UAEHXZ 00435130 f   ZoomingDemo.obj
 0001:00034180       ?virtSetupBackgroundBuffer@ZoomingDemo@@UAEXXZ 00435180 f   ZoomingDemo.obj
 0001:000341a0       ?virtInitialiseObjects@ZoomingDemo@@UAEHXZ 004351a0 f   ZoomingDemo.obj
 0001:00034360       ?virtDrawStringsUnderneath@ZoomingDemo@@UAEXXZ 00435360 f   ZoomingDemo.obj
 0001:00034410       ?virtDrawStringsOnTop@ZoomingDemo@@UAEXXZ 00435410 f   ZoomingDemo.obj
 0001:00034490       ?virtMouseDown@ZoomingDemo@@UAEXHHH@Z 00435490 f   ZoomingDemo.obj
 0001:000344e0       ?virtKeyDown@ZoomingDemo@@UAEXH@Z 004354e0 f   ZoomingDemo.obj
 0001:000345e0       ?virtMouseWheel@ZoomingDemo@@UAEXHHHH@Z 004355e0 f   ZoomingDemo.obj
 0001:000347e0       ??0SimpleFlashingDragableImageObject@@QAE@HHPAVBaseEngine@@V?$basic_string@DU?$char_traits@D@std@@V?$allocator@D@2@@std@@1_N2@Z 004357e0 f i ZoomingDemo.obj
 0001:000349e0       ??1SimpleFlashingDragableImageObject@@UAE@XZ 004359e0 f i ZoomingDemo.obj
 0001:00034a20       ??_ESimpleFlashingDragableImageObject@@UAEPAXI@Z 00435a20 f i ZoomingDemo.obj
 0001:00034a20       ??_GSimpleFlashingDragableImageObject@@UAEPAXI@Z 00435a20 f i ZoomingDemo.obj
 0001:00034a60       ?changeOffset@FilterPointsTranslation@@QAEXHH@Z 00435a60 f i ZoomingDemo.obj
 0001:00034aa0       ?compress@FilterPointsScaling@@QAEXXZ 00435aa0 f i ZoomingDemo.obj
 0001:00034ad0       ?compressX@FilterPointsScaling@@QAEXXZ 00435ad0 f i ZoomingDemo.obj
 0001:00034b20       ?compressY@FilterPointsScaling@@QAEXXZ 00435b20 f i ZoomingDemo.obj
 0001:00034b70       ?setOffset@FilterPointsTranslation@@QAEXHH@Z 00435b70 f i ZoomingDemo.obj
 0001:00034ba0       ?stretch@FilterPointsScaling@@QAEXXZ 00435ba0 f i ZoomingDemo.obj
 0001:00034bd0       ?stretchX@FilterPointsScaling@@QAEXXZ 00435bd0 f i ZoomingDemo.obj
 0001:00034c20       ?stretchY@FilterPointsScaling@@QAEXXZ 00435c20 f i ZoomingDemo.obj
 0001:00034c70       ?virtDoUpdate@SimpleFlashingDragableImageObject@@UAEXH@Z 00435c70 f i ZoomingDemo.obj
 0001:00034cd0       ?virtDraw@SimpleFlashingDragableImageObject@@UAEXXZ 00435cd0 f i ZoomingDemo.obj
 0001:00034dc0       ?virtMouseDown@SimpleFlashingDragableImageObject@@UAEXHHH@Z 00435dc0 f i ZoomingDemo.obj
 0001:00034e30       ?virtMouseMoved@SimpleFlashingDragableImageObject@@UAEXHH@Z 00435e30 f i ZoomingDemo.obj
 0001:00034e90       ?virtMouseUp@SimpleFlashingDragableImageObject@@UAEXHHH@Z 00435e90 f i ZoomingDemo.obj
 0001:00034eb0       ??0MazeDemoMain@@QAE@XZ    00435eb0 f   MazeDemoMain.obj
 0001:00034f30       ??1MazeDemoMain@@UAE@XZ    00435f30 f   MazeDemoMain.obj
 0001:00034f70       ?virtSetupBackgroundBuffer@MazeDemoMain@@UAEXXZ 00435f70 f   MazeDemoMain.obj
 0001:00035160       ?virtInitialiseObjects@MazeDemoMain@@UAEHXZ 00436160 f   MazeDemoMain.obj
 0001:00035360       ?virtDrawStringsUnderneath@MazeDemoMain@@UAEXXZ 00436360 f   MazeDemoMain.obj
 0001:000353f0       ?virtMouseDown@MazeDemoMain@@UAEXHHH@Z 004363f0 f   MazeDemoMain.obj
 0001:00035400       ?virtKeyDown@MazeDemoMain@@UAEXH@Z 00436400 f   MazeDemoMain.obj
 0001:00035650       ??0MazeDemoTileManager@@QAE@XZ 00436650 f i MazeDemoMain.obj
 0001:00035680       ??0TileManager@@QAE@HH@Z   00436680 f i MazeDemoMain.obj
 0001:00035700       ??1MazeDemoTileManager@@UAE@XZ 00436700 f i MazeDemoMain.obj
 0001:00035730       ??1TileManager@@UAE@XZ     00436730 f i MazeDemoMain.obj
 0001:00035780       ??_EMazeDemoMain@@UAEPAXI@Z 00436780 f i MazeDemoMain.obj
 0001:00035780       ??_GMazeDemoMain@@UAEPAXI@Z 00436780 f i MazeDemoMain.obj
 0001:000357c0       ??_EMazeDemoTileManager@@UAEPAXI@Z 004367c0 f i MazeDemoMain.obj
 0001:000357c0       ??_GMazeDemoTileManager@@UAEPAXI@Z 004367c0 f i MazeDemoMain.obj
 0001:00035800       ??_ETileManager@@UAEPAXI@Z 00436800 f i MazeDemoMain.obj
 0001:00035800       ??_GTileManager@@UAEPAXI@Z 00436800 f i MazeDemoMain.obj
 0001:00035840       ??0MazeDemoObject@@QAE@PAVMazeDemoMain@@HH@Z 00436840 f   MazeDemoObject.obj
 0001:00035920       ??1MazeDemoObject@@UAE@XZ  00436920 f   MazeDemoObject.obj
 0001:00035940       ?virtDraw@MazeDemoObject@@UAEXXZ 00436940 f   MazeDemoObject.obj
 0001:000359f0       ?virtDoUpdate@MazeDemoObject@@UAEXH@Z 004369f0 f   MazeDemoObject.obj
 0001:00036090       ??_EMazeDemoObject@@UAEPAXI@Z 00437090 f i MazeDemoObject.obj
 0001:00036090       ??_GMazeDemoObject@@UAEPAXI@Z 00437090 f i MazeDemoObject.obj
 0001:000360d0       ?GetTileManager@MazeDemoMain@@QAEAAVMazeDemoTileManager@@XZ 004370d0 f i MazeDemoObject.obj
 0001:000360f0       ?getXDiffForDirection@MazeDemoObject@@QAEHH@Z 004370f0 f i MazeDemoObject.obj
 0001:00036160       ?getYDiffForDirection@MazeDemoObject@@QAEHH@Z 00437160 f i MazeDemoObject.obj
 0001:000361d0       ?virtDrawTileAt@MazeDemoTileManager@@UBEXPAVBaseEngine@@PAVDrawingSurface@@HHHH@Z 004371d0 f   MazeDemoTileManager.obj
 0001:000363b5       _SDL_CreateRGBSurface      004373b5 f   SDL2:SDL2.dll
 0001:000363bb       _SDL_FreeSurface           004373bb f   SDL2:SDL2.dll
 0001:000363c1       _SDL_UpperBlit             004373c1 f   SDL2:SDL2.dll
 0001:000363c7       _SDL_LockSurface           004373c7 f   SDL2:SDL2.dll
 0001:000363cd       _SDL_UnlockSurface         004373cd f   SDL2:SDL2.dll
 0001:000363d3       _SDL_FillRect              004373d3 f   SDL2:SDL2.dll
 0001:000363d9       _SDL_GetError              004373d9 f   SDL2:SDL2.dll
 0001:000363df       _SDL_CreateWindow          004373df f   SDL2:SDL2.dll
 0001:000363e5       _SDL_PollEvent             004373e5 f   SDL2:SDL2.dll
 0001:000363eb       _SDL_WaitEvent             004373eb f   SDL2:SDL2.dll
 0001:000363f1       _SDL_CreateRenderer        004373f1 f   SDL2:SDL2.dll
 0001:000363f7       _SDL_CreateTexture         004373f7 f   SDL2:SDL2.dll
 0001:000363fd       _SDL_UpdateTexture         004373fd f   SDL2:SDL2.dll
 0001:00036403       _SDL_RenderCopy            00437403 f   SDL2:SDL2.dll
 0001:00036409       _SDL_RenderPresent         00437409 f   SDL2:SDL2.dll
 0001:0003640f       _SDL_GetTicks              0043740f f   SDL2:SDL2.dll
 0001:00036415       _SDL_Init                  00437415 f   SDL2:SDL2.dll
 0001:0003641b       _SDL_Quit                  0043741b f   SDL2:SDL2.dll
 0001:00036421       _SDL_SetClipRect           00437421 f   SDL2:SDL2.dll
 0001:00036427       _SDL_UpperBlitScaled       00437427 f   SDL2:SDL2.dll
 0001:0003642d       _IMG_Load                  0043742d f   SDL2_image:SDL2_image.dll
 0001:00036433       _TTF_RenderText_Solid      00437433 f   SDL2_ttf:SDL2_ttf.dll
 0001:00036439       _TTF_Init                  00437439 f   SDL2_ttf:SDL2_ttf.dll
 0001:0003643f       _TTF_Quit                  0043743f f   SDL2_ttf:SDL2_ttf.dll
 0001:00036445       _TTF_OpenFont              00437445 f   SDL2_ttf:SDL2_ttf.dll
 0001:0003644b       _TTF_CloseFont             0043744b f   SDL2_ttf:SDL2_ttf.dll
 0001:00036451       ??0_Lockit@std@@QAE@H@Z    00437451 f   msvcprtd:MSVCP140D.dll
 0001:00036457       ??1_Lockit@std@@QAE@XZ     00437457 f   msvcprtd:MSVCP140D.dll
 0001:0003645d       ?_Xlength_error@std@@YAXPBD@Z 0043745d f   msvcprtd:MSVCP140D.dll
 0001:00036463       ?uncaught_exception@std@@YA_NXZ 00437463 f   msvcprtd:MSVCP140D.dll
 0001:00036469       ?good@ios_base@std@@QBE_NXZ 00437469 f   msvcprtd:MSVCP140D.dll
 0001:0003646f       ?flags@ios_base@std@@QBEHXZ 0043746f f   msvcprtd:MSVCP140D.dll
 0001:00036475       ?width@ios_base@std@@QBE_JXZ 00437475 f   msvcprtd:MSVCP140D.dll
 0001:0003647b       ?width@ios_base@std@@QAE_J_J@Z 0043747b f   msvcprtd:MSVCP140D.dll
 0001:00036481       ?sputc@?$basic_streambuf@DU?$char_traits@D@std@@@std@@QAEHD@Z 00437481 f   msvcprtd:MSVCP140D.dll
 0001:00036487       ?sputn@?$basic_streambuf@DU?$char_traits@D@std@@@std@@QAE_JPBD_J@Z 00437487 f   msvcprtd:MSVCP140D.dll
 0001:0003648d       ?setstate@?$basic_ios@DU?$char_traits@D@std@@@std@@QAEXH_N@Z 0043748d f   msvcprtd:MSVCP140D.dll
 0001:00036493       ?tie@?$basic_ios@DU?$char_traits@D@std@@@std@@QBEPAV?$basic_ostream@DU?$char_traits@D@std@@@2@XZ 00437493 f   msvcprtd:MSVCP140D.dll
 0001:00036499       ?rdbuf@?$basic_ios@DU?$char_traits@D@std@@@std@@QBEPAV?$basic_streambuf@DU?$char_traits@D@std@@@2@XZ 00437499 f   msvcprtd:MSVCP140D.dll
 0001:0003649f       ?fill@?$basic_ios@DU?$char_traits@D@std@@@std@@QBEDXZ 0043749f f   msvcprtd:MSVCP140D.dll
 0001:000364a5       ?widen@?$basic_ios@DU?$char_traits@D@std@@@std@@QBEDD@Z 004374a5 f   msvcprtd:MSVCP140D.dll
 0001:000364ab       ?_Osfx@?$basic_ostream@DU?$char_traits@D@std@@@std@@QAEXXZ 004374ab f   msvcprtd:MSVCP140D.dll
 0001:000364b1       ??6?$basic_ostream@DU?$char_traits@D@std@@@std@@QAEAAV01@P6AAAV01@AAV01@@Z@Z 004374b1 f   msvcprtd:MSVCP140D.dll
 0001:000364b7       ?put@?$basic_ostream@DU?$char_traits@D@std@@@std@@QAEAAV12@D@Z 004374b7 f   msvcprtd:MSVCP140D.dll
 0001:000364bd       ?flush@?$basic_ostream@DU?$char_traits@D@std@@@std@@QAEAAV12@XZ 004374bd f   msvcprtd:MSVCP140D.dll
 0001:000364c3       ?_Xout_of_range@std@@YAXPBD@Z 004374c3 f   msvcprtd:MSVCP140D.dll
 0001:000364d0       ??0_Fac_node@std@@QAE@PAU01@PAV_Facet_base@1@@Z 004374d0 f i msvcprtd:locale0_implib.obj
 0001:00036500       ??1_Fac_node@std@@QAE@XZ   00437500 f i msvcprtd:locale0_implib.obj
 0001:00036580       ??1_Fac_tidy_reg_t@std@@QAE@XZ 00437580 f i msvcprtd:locale0_implib.obj
 0001:000365e0       ??2_Fac_node@std@@SAPAXI@Z 004375e0 f i msvcprtd:locale0_implib.obj
 0001:00036640       ??3_Fac_node@std@@SAXPAX@Z 00437640 f i msvcprtd:locale0_implib.obj
 0001:00036660       ??_G_Fac_node@std@@QAEPAXI@Z 00437660 f i msvcprtd:locale0_implib.obj
 0001:000366c0       ?_Facet_Register@std@@YAXPAV_Facet_base@1@@Z 004376c0 f   msvcprtd:locale0_implib.obj
 0001:00036770       ?__empty_global_delete@@YAXPAXIW4align_val_t@std@@@Z 00437770 f i msvcprtd:locale0_implib.obj
 0001:00036780       ?__empty_global_delete@@YAXPAXW4align_val_t@std@@@Z 00437780 f i msvcprtd:locale0_implib.obj
 0001:00036785       ??Bid@locale@std@@QAEIXZ   00437785 f   msvcprtd:MSVCP140D.dll
 0001:0003678b       ?_Getgloballocale@locale@std@@CAPAV_Locimp@12@XZ 0043778b f   msvcprtd:MSVCP140D.dll
 0001:00036791       ?always_noconv@codecvt_base@std@@QBE_NXZ 00437791 f   msvcprtd:MSVCP140D.dll
 0001:00036797       ?in@?$codecvt@DDU_Mbstatet@@@std@@QBEHAAU_Mbstatet@@PBD1AAPBDPAD3AAPAD@Z 00437797 f   msvcprtd:MSVCP140D.dll
 0001:0003679d       ?out@?$codecvt@DDU_Mbstatet@@@std@@QBEHAAU_Mbstatet@@PBD1AAPBDPAD3AAPAD@Z 0043779d f   msvcprtd:MSVCP140D.dll
 0001:000367a3       ?unshift@?$codecvt@DDU_Mbstatet@@@std@@QBEHAAU_Mbstatet@@PAD1AAPAD@Z 004377a3 f   msvcprtd:MSVCP140D.dll
 0001:000367a9       ?_Getcat@?$codecvt@DDU_Mbstatet@@@std@@SAIPAPBVfacet@locale@2@PBV42@@Z 004377a9 f   msvcprtd:MSVCP140D.dll
 0001:000367af       ??0?$basic_streambuf@DU?$char_traits@D@std@@@std@@IAE@XZ 004377af f   msvcprtd:MSVCP140D.dll
 0001:000367b5       ??1?$basic_streambuf@DU?$char_traits@D@std@@@std@@UAE@XZ 004377b5 f   msvcprtd:MSVCP140D.dll
 0001:000367bb       ?getloc@?$basic_streambuf@DU?$char_traits@D@std@@@std@@QBE?AVlocale@2@XZ 004377bb f   msvcprtd:MSVCP140D.dll
 0001:000367c1       ?eback@?$basic_streambuf@DU?$char_traits@D@std@@@std@@IBEPADXZ 004377c1 f   msvcprtd:MSVCP140D.dll
 0001:000367c7       ?gptr@?$basic_streambuf@DU?$char_traits@D@std@@@std@@IBEPADXZ 004377c7 f   msvcprtd:MSVCP140D.dll
 0001:000367cd       ?pptr@?$basic_streambuf@DU?$char_traits@D@std@@@std@@IBEPADXZ 004377cd f   msvcprtd:MSVCP140D.dll
 0001:000367d3       ?egptr@?$basic_streambuf@DU?$char_traits@D@std@@@std@@IBEPADXZ 004377d3 f   msvcprtd:MSVCP140D.dll
 0001:000367d9       ?gbump@?$basic_streambuf@DU?$char_traits@D@std@@@std@@IAEXH@Z 004377d9 f   msvcprtd:MSVCP140D.dll
 0001:000367df       ?setg@?$basic_streambuf@DU?$char_traits@D@std@@@std@@IAEXPAD00@Z 004377df f   msvcprtd:MSVCP140D.dll
 0001:000367e5       ?epptr@?$basic_streambuf@DU?$char_traits@D@std@@@std@@IBEPADXZ 004377e5 f   msvcprtd:MSVCP140D.dll
 0001:000367eb       ?_Gndec@?$basic_streambuf@DU?$char_traits@D@std@@@std@@IAEPADXZ 004377eb f   msvcprtd:MSVCP140D.dll
 0001:000367f1       ?_Gninc@?$basic_streambuf@DU?$char_traits@D@std@@@std@@IAEPADXZ 004377f1 f   msvcprtd:MSVCP140D.dll
 0001:000367f7       ?_Gnavail@?$basic_streambuf@DU?$char_traits@D@std@@@std@@IBE_JXZ 004377f7 f   msvcprtd:MSVCP140D.dll
 0001:000367fd       ?pbump@?$basic_streambuf@DU?$char_traits@D@std@@@std@@IAEXH@Z 004377fd f   msvcprtd:MSVCP140D.dll
 0001:00036803       ?_Pninc@?$basic_streambuf@DU?$char_traits@D@std@@@std@@IAEPADXZ 00437803 f   msvcprtd:MSVCP140D.dll
 0001:00036809       ?_Pnavail@?$basic_streambuf@DU?$char_traits@D@std@@@std@@IBE_JXZ 00437809 f   msvcprtd:MSVCP140D.dll
 0001:0003680f       ?_Init@?$basic_streambuf@DU?$char_traits@D@std@@@std@@IAEXXZ 0043780f f   msvcprtd:MSVCP140D.dll
 0001:00036815       ?_Init@?$basic_streambuf@DU?$char_traits@D@std@@@std@@IAEXPAPAD0PAH001@Z 00437815 f   msvcprtd:MSVCP140D.dll
 0001:0003681b       ?xsgetn@?$basic_streambuf@DU?$char_traits@D@std@@@std@@MAE_JPAD_J@Z 0043781b f   msvcprtd:MSVCP140D.dll
 0001:00036821       ?xsputn@?$basic_streambuf@DU?$char_traits@D@std@@@std@@MAE_JPBD_J@Z 00437821 f   msvcprtd:MSVCP140D.dll
 0001:00036827       ??1?$basic_ios@DU?$char_traits@D@std@@@std@@UAE@XZ 00437827 f   msvcprtd:MSVCP140D.dll
 0001:0003682d       ?clear@?$basic_ios@DU?$char_traits@D@std@@@std@@QAEXH_N@Z 0043782d f   msvcprtd:MSVCP140D.dll
 0001:00036833       ??0?$basic_ios@DU?$char_traits@D@std@@@std@@IAE@XZ 00437833 f   msvcprtd:MSVCP140D.dll
 0001:00036839       ??0?$basic_ostream@DU?$char_traits@D@std@@@std@@QAE@PAV?$basic_streambuf@DU?$char_traits@D@std@@@1@_N@Z 00437839 f   msvcprtd:MSVCP140D.dll
 0001:0003683f       ??1?$basic_ostream@DU?$char_traits@D@std@@@std@@UAE@XZ 0043783f f   msvcprtd:MSVCP140D.dll
 0001:00036845       ?_Fiopen@std@@YAPAU_iobuf@@PBDHH@Z 00437845 f   msvcprtd:MSVCP140D.dll
 0001:0003684b       ?showmanyc@?$basic_streambuf@DU?$char_traits@D@std@@@std@@MAE_JXZ 0043784b f   msvcprtd:MSVCP140D.dll
 0001:00036851       __Query_perf_counter       00437851 f   msvcprtd:MSVCP140D.dll
 0001:00036857       __Query_perf_frequency     00437857 f   msvcprtd:MSVCP140D.dll
 0001:0003685d       ??6?$basic_ostream@DU?$char_traits@D@std@@@std@@QAEAAV01@H@Z 0043785d f   msvcprtd:MSVCP140D.dll
 0001:00036863       ?_Xinvalid_argument@std@@YAXPBD@Z 00437863 f   msvcprtd:MSVCP140D.dll
 0001:00036869       ??Bios_base@std@@QBE_NXZ   00437869 f   msvcprtd:MSVCP140D.dll
 0001:0003686f       ?sbumpc@?$basic_streambuf@DU?$char_traits@D@std@@@std@@QAEHXZ 0043786f f   msvcprtd:MSVCP140D.dll
 0001:00036875       ?sgetc@?$basic_streambuf@DU?$char_traits@D@std@@@std@@QAEHXZ 00437875 f   msvcprtd:MSVCP140D.dll
 0001:0003687b       ?snextc@?$basic_streambuf@DU?$char_traits@D@std@@@std@@QAEHXZ 0043787b f   msvcprtd:MSVCP140D.dll
 0001:00036881       ??0?$basic_istream@DU?$char_traits@D@std@@@std@@QAE@PAV?$basic_streambuf@DU?$char_traits@D@std@@@1@_N@Z 00437881 f   msvcprtd:MSVCP140D.dll
 0001:00036887       ??1?$basic_istream@DU?$char_traits@D@std@@@std@@UAE@XZ 00437887 f   msvcprtd:MSVCP140D.dll
 0001:0003688d       ?_Ipfx@?$basic_istream@DU?$char_traits@D@std@@@std@@QAE_N_N@Z 0043788d f   msvcprtd:MSVCP140D.dll
 0001:00036893       ?_Xbad_alloc@std@@YAXXZ    00437893 f   msvcprtd:MSVCP140D.dll
 0001:00036c70       ?configure_argv@__scrt_narrow_argv_policy@@SAHXZ 00437c70 f i MSVCRTD:exe_main.obj
 0001:00036c90       ?initialize_environment@__scrt_narrow_environment_policy@@SAHXZ 00437c90 f i MSVCRTD:exe_main.obj
 0001:00036cf0       ?set_app_type@__scrt_main_policy@@SAXXZ 00437cf0 f i MSVCRTD:exe_main.obj
 0001:00036d10       ?set_commode@__scrt_file_policy@@SAXXZ 00437d10 f i MSVCRTD:exe_main.obj
 0001:00036d30       ?set_fmode@__scrt_file_policy@@SAXXZ 00437d30 f i MSVCRTD:exe_main.obj
 0001:00036d50       _mainCRTStartup            00437d50 f   MSVCRTD:exe_main.obj
 0001:00036d60       ??2@YAPAXI@Z               00437d60 f   MSVCRTD:new_scalar.obj
 0001:00036dc0       ??3@YAXPAXI@Z              00437dc0 f   MSVCRTD:delete_scalar_size.obj
 0001:00036de0       ??_V@YAXPAX@Z              00437de0 f   MSVCRTD:delete_array.obj
 0001:00036e00       @__security_check_cookie@4 00437e00 f   MSVCRTD:secchk.obj
 0001:00036e20       ??1type_info@@UAE@XZ       00437e20 f   MSVCRTD:std_type_info_static.obj
 0001:00036e40       ??_Etype_info@@UAEPAXI@Z   00437e40 f i MSVCRTD:std_type_info_static.obj
 0001:00036e40       ??_Gtype_info@@UAEPAXI@Z   00437e40 f i MSVCRTD:std_type_info_static.obj
 0001:00036e80       ??_U@YAPAXI@Z              00437e80 f   MSVCRTD:new_array.obj
 0001:00036fe0       _NtCurrentTeb              00437fe0 f i MSVCRTD:utility.obj
 0001:00036ff0       ___scrt_acquire_startup_lock 00437ff0 f   MSVCRTD:utility.obj
 0001:00037050       ___scrt_dllmain_after_initialize_c 00438050 f   MSVCRTD:utility.obj
 0001:00037090       ___scrt_dllmain_before_initialize_c 00438090 f   MSVCRTD:utility.obj
 0001:000370c0       ___scrt_dllmain_crt_thread_attach 004380c0 f   MSVCRTD:utility.obj
 0001:00037100       ___scrt_dllmain_crt_thread_detach 00438100 f   MSVCRTD:utility.obj
 0001:00037120       ___scrt_dllmain_exception_filter 00438120 f   MSVCRTD:utility.obj
 0001:00037180       ___scrt_dllmain_uninitialize_c 00438180 f   MSVCRTD:utility.obj
 0001:000371c0       ___scrt_dllmain_uninitialize_critical 004381c0 f   MSVCRTD:utility.obj
 0001:000371e0       ___scrt_initialize_crt     004381e0 f   MSVCRTD:utility.obj
 0001:00037240       ___scrt_initialize_onexit_tables 00438240 f   MSVCRTD:utility.obj
 0001:00037350       ___scrt_is_nonwritable_in_current_image 00438350 f   MSVCRTD:utility.obj
 0001:000374d0       ___scrt_release_startup_lock 004384d0 f   MSVCRTD:utility.obj
 0001:00037500       ___scrt_uninitialize_crt   00438500 f   MSVCRTD:utility.obj
 0001:00037550       __onexit                   00438550 f   MSVCRTD:utility.obj
 0001:000375d0       _at_quick_exit             004385d0 f   MSVCRTD:utility.obj
 0001:00037620       _atexit                    00438620 f   MSVCRTD:utility.obj
 0001:00037660       ??_M@YGXPAXIHP6EX0@Z@Z     00438660 f   MSVCRTD:ehvecdtr.obj
 0001:00037690       ??_M@YGXPAXIIP6EX0@Z@Z     00438690 f   MSVCRTD:ehvecdtr.obj
 0001:000377f0       ?__ArrayUnwind@@YGXPAXIIP6EX0@Z@Z 004387f0 f   MSVCRTD:ehvecdtr.obj
 0001:00037a20       __Init_thread_abort        00438a20 f   MSVCRTD:thread_safe_statics.obj
 0001:00037a50       __Init_thread_footer       00438a50 f   MSVCRTD:thread_safe_statics.obj
 0001:00037ab0       __Init_thread_header       00438ab0 f   MSVCRTD:thread_safe_statics.obj
 0001:00037b40       __Init_thread_lock         00438b40 f   MSVCRTD:thread_safe_statics.obj
 0001:00037b60       __Init_thread_notify       00438b60 f   MSVCRTD:thread_safe_statics.obj
 0001:00037bc0       __Init_thread_unlock       00438bc0 f   MSVCRTD:thread_safe_statics.obj
 0001:00037be0       __Init_thread_wait         00438be0 f   MSVCRTD:thread_safe_statics.obj
 0001:00037c90       __alldiv                   00438c90 f   MSVCRTD:lldiv.obj
 0001:00037d70       __allmul                   00438d70 f   MSVCRTD:llmul.obj
 0001:00037dc0       __allrem                   00438dc0 f   MSVCRTD:llrem.obj
 0001:00037ea0       @_guard_check_icall_nop@4  00438ea0 f i MSVCRTD:guard_support.obj
 0001:00037eb0       _ReadNoFence               00438eb0 f i MSVCRTD:guard_support.obj
 0001:00037ed0       _ReadPointerNoFence        00438ed0 f i MSVCRTD:guard_support.obj
 0001:00037ef0       ___castguard_check_failure_debugbreak 00438ef0 f i MSVCRTD:guard_support.obj
 0001:00037f10       ___castguard_check_failure_fastfail 00438f10 f i MSVCRTD:guard_support.obj
 0001:00037f40       ___castguard_check_failure_nop 00438f40 f i MSVCRTD:guard_support.obj
 0001:00037f50       ___castguard_check_failure_os_handled 00438f50 f i MSVCRTD:guard_support.obj
 0001:00038000       ___castguard_slow_path_check_debugbreak 00439000 f i MSVCRTD:guard_support.obj
 0001:00038040       ___castguard_slow_path_check_fastfail 00439040 f i MSVCRTD:guard_support.obj
 0001:00038090       ___castguard_slow_path_check_nop 00439090 f i MSVCRTD:guard_support.obj
 0001:000380a0       ___castguard_slow_path_check_os_handled 004390a0 f i MSVCRTD:guard_support.obj
 0001:00038140       __guard_icall_checks_enforced 00439140 f i MSVCRTD:guard_support.obj
 0001:00038210       ___security_init_cookie    00439210 f   MSVCRTD:gs_support.obj
 0001:000382b0       __matherr                  004392b0 f   MSVCRTD:matherr.obj
 0001:000382c0       __get_startup_argv_mode    004392c0 f   MSVCRTD:argv_mode.obj
 0001:000382d0       __get_startup_commit_mode  004392d0 f   MSVCRTD:commit_mode.obj
 0001:000382e0       __get_startup_file_mode    004392e0 f   MSVCRTD:file_mode.obj
 0001:000382f0       __get_startup_new_mode     004392f0 f   MSVCRTD:new_mode.obj
 0001:00038300       __get_startup_thread_locale_mode 00439300 f   MSVCRTD:thread_locale.obj
 0001:00038310       ?__scrt_initialize_type_info@@YAXXZ 00439310 f   MSVCRTD:tncleanup.obj
 0001:00038330       ?__scrt_uninitialize_type_info@@YAXXZ 00439330 f   MSVCRTD:tncleanup.obj
 0001:00038350       __should_initialize_environment 00439350 f   MSVCRTD:env_mode.obj
 0001:00038360       __initialize_default_precision 00439360 f   MSVCRTD:default_precision.obj
 0001:00038390       __initialize_invalid_parameter_handler 00439390 f   MSVCRTD:invalid_parameter_handler.obj
 0001:000383a0       __initialize_denormal_control 004393a0 f   MSVCRTD:denormal_control.obj
 0001:000383b0       ___local_stdio_scanf_options 004393b0 f i MSVCRTD:default_local_stdio_options.obj
 0001:000383c0       ___scrt_initialize_default_local_stdio_options 004393c0 f   MSVCRTD:default_local_stdio_options.obj
 0001:00038410       ___scrt_is_user_matherr_present 00439410 f   MSVCRTD:matherr_detection.obj
 0001:00038440       ___scrt_get_dyn_tls_init_callback 00439440 f   MSVCRTD:dyn_tls_init.obj
 0001:00038450       ___scrt_get_dyn_tls_dtor_callback 00439450 f   MSVCRTD:dyn_tls_dtor.obj
 0001:00038460       ___scrt_fastfail           00439460 f   MSVCRTD:utility_desktop.obj
 0001:000385f0       ___scrt_get_show_window_mode 004395f0 f   MSVCRTD:utility_desktop.obj
 0001:00038640       ___scrt_initialize_mta     00439640 f   MSVCRTD:utility_desktop.obj
 0001:00038650       ___scrt_initialize_winrt   00439650 f   MSVCRTD:utility_desktop.obj
 0001:00038660       ___scrt_is_managed_app     00439660 f   MSVCRTD:utility_desktop.obj
 0001:00038710       ___scrt_set_unhandled_exception_filter 00439710 f   MSVCRTD:utility_desktop.obj
 0001:00038730       ___scrt_exe_initialize_mta 00439730 f   MSVCRTD:utility_desktop.obj
 0001:00038730       ___scrt_stub_for_initialize_mta 00439730 f   MSVCRTD:utility_desktop.obj
 0001:00038740       ___scrt_unhandled_exception_filter@4 00439740 f   MSVCRTD:utility_desktop.obj
 0001:000387e0       __crt_debugger_hook        004397e0 f   MSVCRTD:utility_desktop.obj
 0001:00038800       __RTC_Initialize           00439800 f   MSVCRTD:initsect.obj
 0001:00038840       __RTC_Terminate            00439840 f   MSVCRTD:initsect.obj
 0001:00038880       __except_handler4          00439880 f   MSVCRTD:chandler4gs.obj
 0001:000388d0       ??0bad_alloc@std@@QAE@XZ   004398d0 f i MSVCRTD:throw_bad_alloc.obj
 0001:00038900       ?__scrt_throw_std_bad_alloc@@YAXXZ 00439900 f   MSVCRTD:throw_bad_alloc.obj
 0001:00038930       ?__scrt_throw_std_bad_array_new_length@@YAXXZ 00439930 f   MSVCRTD:throw_bad_alloc.obj
 0001:00038960       ??3@YAXPAX@Z               00439960 f   MSVCRTD:delete_scalar.obj
 0001:00038980       ___raise_securityfailure   00439980 f   MSVCRTD:gs_report.obj
 0001:000389c0       ___report_gsfailure        004399c0 f   MSVCRTD:gs_report.obj
 0001:00038b10       ___report_rangecheckfailure 00439b10 f   MSVCRTD:gs_report.obj
 0001:00038b20       ___report_securityfailure  00439b20 f   MSVCRTD:gs_report.obj
 0001:00038c30       ___report_securityfailureEx 00439c30 f   MSVCRTD:gs_report.obj
 0001:00038da0       ___isa_available_init      00439da0 f   MSVCRTD:cpu_disp.obj
 0001:000391a0       ___scrt_is_ucrt_dll_in_use 0043a1a0 f   MSVCRTD:ucrt_detection.obj
 0001:000391cd       _memcmp                    0043a1cd f   vcruntimed:VCRUNTIME140D.dll
 0001:000391d3       _memcpy                    0043a1d3 f   vcruntimed:VCRUNTIME140D.dll
 0001:000391d9       _memmove                   0043a1d9 f   vcruntimed:VCRUNTIME140D.dll
 0001:000391df       _memset                    0043a1df f   vcruntimed:VCRUNTIME140D.dll
 0001:000391e5       ___std_exception_copy      0043a1e5 f   vcruntimed:VCRUNTIME140D.dll
 0001:000391eb       ___std_exception_destroy   0043a1eb f   vcruntimed:VCRUNTIME140D.dll
 0001:000391f1       __CxxThrowException@8      0043a1f1 f   vcruntimed:VCRUNTIME140D.dll
 0001:000391f7       ___CxxFrameHandler3        0043a1f7 f   vcruntimed:VCRUNTIME140D.dll
 0001:000391fd       __purecall                 0043a1fd f   vcruntimed:VCRUNTIME140D.dll
 0001:00039203       ___current_exception       0043a203 f   vcruntimed:VCRUNTIME140D.dll
 0001:00039209       ___current_exception_context 0043a209 f   vcruntimed:VCRUNTIME140D.dll
 0001:0003920f       ___std_type_info_destroy_list 0043a20f f   vcruntimed:VCRUNTIME140D.dll
 0001:00039215       __except_handler4_common   0043a215 f   vcruntimed:VCRUNTIME140D.dll
 0001:0003921b       __invalid_parameter        0043a21b f   ucrtd:ucrtbased.dll
 0001:00039221       __CrtDbgReport             0043a221 f   ucrtd:ucrtbased.dll
 0001:00039227       _rand                      0043a227 f   ucrtd:ucrtbased.dll
 0001:0003922d       ___acrt_iob_func           0043a22d f   ucrtd:ucrtbased.dll
 0001:00039233       ___stdio_common_vfprintf   0043a233 f   ucrtd:ucrtbased.dll
 0001:00039239       _strlen                    0043a239 f   ucrtd:ucrtbased.dll
 0001:0003923f       _atan                      0043a23f f   ucrtd:ucrtbased.dll
 0001:00039245       _cos                       0043a245 f   ucrtd:ucrtbased.dll
 0001:0003924b       _sin                       0043a24b f   ucrtd:ucrtbased.dll
 0001:00039251       __get_stream_buffer_pointers 0043a251 f   ucrtd:ucrtbased.dll
 0001:00039257       _fclose                    0043a257 f   ucrtd:ucrtbased.dll
 0001:0003925d       _fflush                    0043a25d f   ucrtd:ucrtbased.dll
 0001:00039263       _fgetc                     0043a263 f   ucrtd:ucrtbased.dll
 0001:00039269       _fgetpos                   0043a269 f   ucrtd:ucrtbased.dll
 0001:0003926f       _fputc                     0043a26f f   ucrtd:ucrtbased.dll
 0001:00039275       _fread                     0043a275 f   ucrtd:ucrtbased.dll
 0001:0003927b       _fsetpos                   0043a27b f   ucrtd:ucrtbased.dll
 0001:00039281       __fseeki64                 0043a281 f   ucrtd:ucrtbased.dll
 0001:00039287       _fwrite                    0043a287 f   ucrtd:ucrtbased.dll
 0001:0003928d       _setvbuf                   0043a28d f   ucrtd:ucrtbased.dll
 0001:00039293       _ungetc                    0043a293 f   ucrtd:ucrtbased.dll
 0001:00039299       __lock_file                0043a299 f   ucrtd:ucrtbased.dll
 0001:0003929f       __unlock_file              0043a29f f   ucrtd:ucrtbased.dll
 0001:000392a5       ___stdio_common_vsprintf   0043a2a5 f   ucrtd:ucrtbased.dll
 0001:000392ab       _sqrt                      0043a2ab f   ucrtd:ucrtbased.dll
 0001:000392b1       __CrtDumpMemoryLeaks       0043a2b1 f   ucrtd:ucrtbased.dll
 0001:000392b7       _free                      0043a2b7 f   ucrtd:ucrtbased.dll
 0001:000392bd       _srand                     0043a2bd f   ucrtd:ucrtbased.dll
 0001:000392c3       __time64                   0043a2c3 f   ucrtd:ucrtbased.dll
 0001:000392c9       _puts                      0043a2c9 f   ucrtd:ucrtbased.dll
 0001:000392cf       _strcmp                    0043a2cf f   ucrtd:ucrtbased.dll
 0001:000392d5       _strcpy                    0043a2d5 f   ucrtd:ucrtbased.dll
 0001:000392db       __errno                    0043a2db f   ucrtd:ucrtbased.dll
 0001:000392e1       _strtol                    0043a2e1 f   ucrtd:ucrtbased.dll
 0001:000392e7       __free_dbg                 0043a2e7 f   ucrtd:ucrtbased.dll
 0001:000392ed       __malloc_dbg               0043a2ed f   ucrtd:ucrtbased.dll
 0001:000392f3       __seh_filter_exe           0043a2f3 f   ucrtd:ucrtbased.dll
 0001:000392f9       __set_app_type             0043a2f9 f   ucrtd:ucrtbased.dll
 0001:000392ff       ___setusermatherr          0043a2ff f   ucrtd:ucrtbased.dll
 0001:00039305       __configure_narrow_argv    0043a305 f   ucrtd:ucrtbased.dll
 0001:0003930b       __initialize_narrow_environment 0043a30b f   ucrtd:ucrtbased.dll
 0001:00039311       __get_initial_narrow_environment 0043a311 f   ucrtd:ucrtbased.dll
 0001:00039317       __initterm                 0043a317 f   ucrtd:ucrtbased.dll
 0001:0003931d       __initterm_e               0043a31d f   ucrtd:ucrtbased.dll
 0001:00039323       _exit                      0043a323 f   ucrtd:ucrtbased.dll
 0001:00039329       __exit                     0043a329 f   ucrtd:ucrtbased.dll
 0001:0003932f       __set_fmode                0043a32f f   ucrtd:ucrtbased.dll
 0001:00039335       ___p___argc                0043a335 f   ucrtd:ucrtbased.dll
 0001:0003933b       ___p___argv                0043a33b f   ucrtd:ucrtbased.dll
 0001:00039341       __cexit                    0043a341 f   ucrtd:ucrtbased.dll
 0001:00039347       __c_exit                   0043a347 f   ucrtd:ucrtbased.dll
 0001:0003934d       __register_thread_local_exe_atexit_callback 0043a34d f   ucrtd:ucrtbased.dll
 0001:00039353       __configthreadlocale       0043a353 f   ucrtd:ucrtbased.dll
 0001:00039359       __set_new_mode             0043a359 f   ucrtd:ucrtbased.dll
 0001:0003935f       ___p__commode              0043a35f f   ucrtd:ucrtbased.dll
 0001:00039365       __callnewh                 0043a365 f   ucrtd:ucrtbased.dll
 0001:0003936b       _malloc                    0043a36b f   ucrtd:ucrtbased.dll
 0001:00039371       __seh_filter_dll           0043a371 f   ucrtd:ucrtbased.dll
 0001:00039377       __initialize_onexit_table  0043a377 f   ucrtd:ucrtbased.dll
 0001:0003937d       __register_onexit_function 0043a37d f   ucrtd:ucrtbased.dll
 0001:00039383       __execute_onexit_table     0043a383 f   ucrtd:ucrtbased.dll
 0001:00039389       __crt_atexit               0043a389 f   ucrtd:ucrtbased.dll
 0001:0003938f       __crt_at_quick_exit        0043a38f f   ucrtd:ucrtbased.dll
 0001:00039395       _terminate                 0043a395 f   ucrtd:ucrtbased.dll
 0001:0003939b       __CrtDbgReportW            0043a39b f   ucrtd:ucrtbased.dll
 0001:000393a1       __controlfp_s              0043a3a1 f   ucrtd:ucrtbased.dll
 0001:000394f0       _WinMain@16                0043a4f0 f   SDL2main:SDL_windows_main.obj
 0001:00039500       _main                      0043a500 f   SDL2main:SDL_windows_main.obj
 0001:00039650       _wmain                     0043a650 f   SDL2main:SDL_windows_main.obj
 0001:00039655       _CloseHandle@4             0043a655 f   kernel32:KERNEL32.dll
 0001:0003965b       _EnterCriticalSection@4    0043a65b f   kernel32:KERNEL32.dll
 0001:00039661       _LeaveCriticalSection@4    0043a661 f   kernel32:KERNEL32.dll
 0001:00039667       _InitializeCriticalSectionAndSpinCount@8 0043a667 f   kernel32:KERNEL32.dll
 0001:0003966d       _DeleteCriticalSection@4   0043a66d f   kernel32:KERNEL32.dll
 0001:00039673       _SetEvent@4                0043a673 f   kernel32:KERNEL32.dll
 0001:00039679       _ResetEvent@4              0043a679 f   kernel32:KERNEL32.dll
 0001:0003967f       _WaitForSingleObjectEx@12  0043a67f f   kernel32:KERNEL32.dll
 0001:00039685       _CreateEventW@16           0043a685 f   kernel32:KERNEL32.dll
 0001:0003968b       _GetModuleHandleW@4        0043a68b f   kernel32:KERNEL32.dll
 0001:00039691       _GetProcAddress@8          0043a691 f   kernel32:KERNEL32.dll
 0001:00039697       _QueryPerformanceCounter@4 0043a697 f   kernel32:KERNEL32.dll
 0001:0003969d       _GetCurrentProcessId@0     0043a69d f   kernel32:KERNEL32.dll
 0001:000396a3       _GetCurrentThreadId@0      0043a6a3 f   kernel32:KERNEL32.dll
 0001:000396a9       _GetSystemTimeAsFileTime@4 0043a6a9 f   kernel32:KERNEL32.dll
 0001:000396af       _InitializeSListHead@4     0043a6af f   kernel32:KERNEL32.dll
 0001:000396b5       _IsDebuggerPresent@0       0043a6b5 f   kernel32:KERNEL32.dll
 0001:000396bb       _UnhandledExceptionFilter@4 0043a6bb f   kernel32:KERNEL32.dll
 0001:000396c1       _SetUnhandledExceptionFilter@4 0043a6c1 f   kernel32:KERNEL32.dll
 0001:000396c7       _GetStartupInfoW@4         0043a6c7 f   kernel32:KERNEL32.dll
 0001:000396cd       _IsProcessorFeaturePresent@4 0043a6cd f   kernel32:KERNEL32.dll
 0001:000396d3       _GetCurrentProcess@0       0043a6d3 f   kernel32:KERNEL32.dll
 0001:000396d9       _TerminateProcess@8        0043a6d9 f   kernel32:KERNEL32.dll
 0001:000396df       _GetCommandLineW@0         0043a6df f   kernel32:KERNEL32.dll
 0001:000396e5       _VirtualAlloc@16           0043a6e5 f   kernel32:KERNEL32.dll
 0001:000396eb       _VirtualFree@12            0043a6eb f   kernel32:KERNEL32.dll
 0001:000396f1       _WideCharToMultiByte@32    0043a6f1 f   kernel32:KERNEL32.dll
 0001:000396f7       _SDL_SetMainReady          0043a6f7 f   SDL2:SDL2.dll
 0001:000396fd       _SDL_ShowSimpleMessageBox  0043a6fd f   SDL2:SDL2.dll
 0001:00039710       ___acrt_initialize         0043a710 f   MSVCRTD:ucrt_stubs.obj
 0001:00039710       ___scrt_stub_for_acrt_initialize 0043a710 f   MSVCRTD:ucrt_stubs.obj
 0001:00039710       ___vcrt_initialize         0043a710 f   MSVCRTD:ucrt_stubs.obj
 0001:00039720       ___acrt_thread_attach      0043a720 f   MSVCRTD:ucrt_stubs.obj
 0001:00039720       ___scrt_stub_for_acrt_thread_attach 0043a720 f   MSVCRTD:ucrt_stubs.obj
 0001:00039720       ___vcrt_thread_attach      0043a720 f   MSVCRTD:ucrt_stubs.obj
 0001:00039730       ___acrt_thread_detach      0043a730 f   MSVCRTD:ucrt_stubs.obj
 0001:00039730       ___scrt_stub_for_acrt_thread_detach 0043a730 f   MSVCRTD:ucrt_stubs.obj
 0001:00039730       ___vcrt_thread_detach      0043a730 f   MSVCRTD:ucrt_stubs.obj
 0001:00039740       ___acrt_uninitialize       0043a740 f   MSVCRTD:ucrt_stubs.obj
 0001:00039740       ___scrt_stub_for_acrt_uninitialize 0043a740 f   MSVCRTD:ucrt_stubs.obj
 0001:00039740       ___vcrt_uninitialize       0043a740 f   MSVCRTD:ucrt_stubs.obj
 0001:00039750       ___acrt_uninitialize_critical 0043a750 f   MSVCRTD:ucrt_stubs.obj
 0001:00039750       ___scrt_stub_for_acrt_uninitialize_critical 0043a750 f   MSVCRTD:ucrt_stubs.obj
 0001:00039750       ___vcrt_uninitialize_critical 0043a750 f   MSVCRTD:ucrt_stubs.obj
 0001:00039760       ___scrt_stub_for_is_c_termination_complete 0043a760 f   MSVCRTD:ucrt_stubs.obj
 0001:00039760       __is_c_termination_complete 0043a760 f   MSVCRTD:ucrt_stubs.obj
 0001:00039770       __filter_x86_sse2_floating_point_exception 0043a770 f   MSVCRTD:x86_exception_filter.obj
 0001:00039770       __filter_x86_sse2_floating_point_exception_default 0043a770 f   MSVCRTD:x86_exception_filter.obj
 0001:000398b0       ??0MovingText@@QAE@PAVefylw5Engine@@HHHHHH@Z 0043a8b0 f   MovingText.obj
 0001:00039c50       ??1MovingText@@UAE@XZ      0043ac50 f   MovingText.obj
 0001:00039c90       ?virtDraw@MovingText@@UAEXXZ 0043ac90 f   MovingText.obj
 0001:00039e20       ?virtDoUpdate@MovingText@@UAEXH@Z 0043ae20 f   MovingText.obj
 0002:00000000       ___xc_a                    00442000     MSVCRTD:initializers.obj
 0002:0000030c       ___xc_z                    0044230c     MSVCRTD:initializers.obj
 0002:00000410       ___xi_a                    00442410     MSVCRTD:initializers.obj
 0002:00000820       ___xi_z                    00442820     MSVCRTD:initializers.obj
 0002:00000924       ___xl_a                    00442924     MSVCRTD:tlssup.obj
 0002:00000928       ___xl_z                    00442928     MSVCRTD:tlssup.obj
 0002:0000092c       ___xp_a                    0044292c     MSVCRTD:initializers.obj
 0002:00000a30       ___xp_z                    00442a30     MSVCRTD:initializers.obj
 0002:00000b34       ___xt_a                    00442b34     MSVCRTD:initializers.obj
 0002:00000c38       ___xt_z                    00442c38     MSVCRTD:initializers.obj
 0002:00001160       ??_7exception@std@@6B@     00443160     DraggingDemo.obj
 0002:0000116c       ??_C@_0BC@EOODALEL@Unknown?5exception@ 0044316c     DraggingDemo.obj
 0002:00001188       ??_7bad_alloc@std@@6B@     00443188     DraggingDemo.obj
 0002:00001198       ??_7bad_array_new_length@std@@6B@ 00443198     DraggingDemo.obj
 0002:000011a4       ??_C@_0BF@KINCDENJ@bad?5array?5new?5length@ 004431a4     DraggingDemo.obj
 0002:000011c0       ??_C@_0BB@FCMFBGOM@invalid?5argument@ 004431c0     DraggingDemo.obj
 0002:000011d4       ??_C@_02DKCKIIND@?$CFs@    004431d4     DraggingDemo.obj
 0002:000011d8       ??_C@_0GC@ONGHGEHM@C?3?2Program?5Files?2Microsoft?5Visu@ 004431d8     DraggingDemo.obj
 0002:00001250       ??_C@_1ME@DGNBIMPE@?$AAC?$AA?3?$AA?2?$AAP?$AAr?$AAo?$AAg?$AAr?$AAa?$AAm?$AA?5?$AAF?$AAi?$AAl?$AAe@ 00443250     DraggingDemo.obj
 0002:0000133c       ??_C@_11LOCGONAA@@         0044333c     DraggingDemo.obj
 0002:00001340       ??_C@_1CG@JNLFBNGN@?$AA?$CC?$AAi?$AAn?$AAv?$AAa?$AAl?$AAi?$AAd?$AA?5?$AAa?$AAr?$AAg?$AAu?$AAm?$AAe@ 00443340     DraggingDemo.obj
 0002:00001370       ??_C@_0BJ@LFDBABJJ@ITERATOR?5LIST?5CORRUPTED?$CB@ 00443370     DraggingDemo.obj
 0002:00001390       ??_C@_1DG@PLBPCAEM@?$AA?$CC?$AAI?$AAT?$AAE?$AAR?$AAA?$AAT?$AAO?$AAR?$AA?5?$AAL?$AAI?$AAS?$AAT?$AA?5@ 00443390     DraggingDemo.obj
 0002:000013d0       ??_C@_0BA@JFNIOLAK@string?5too?5long@ 004433d0     DraggingDemo.obj
 0002:000013e4       ??_C@_0CN@GHCLOPHF@Error?5in?5setting?5pixel?9?5should?5@ 004433e4     DraggingDemo.obj
 0002:00001420       ??_C@_0JM@GIEKPEHN@WARNING?3?5Attempted?5write?5to?5sur@ 00443420     DraggingDemo.obj
 0002:000014dc       ??_C@_0BB@GCADKGJO@map?1set?5too?5long@ 004434dc     DraggingDemo.obj
 0002:000014f0       ??_C@_0DC@BNOGMHFL@Error?5creating?5surface?5in?5RawIm@ 004434f0     DraggingDemo.obj
 0002:0000152c       ??_C@_0BD@IFIGDDIC@?7?7?$CL?$CL?$CL?5Load?5image?3?5@ 0044352c     DraggingDemo.obj
 0002:00001544       ??_C@_0DJ@OJEPJEDH@ImageManager?3?3getImagePtrbyURL?$CI@ 00443544     DraggingDemo.obj
 0002:00001588       ??_C@_0BJ@LOCNEGOL@Failed?5to?5load?5image?5?$CFs?6@ 00443588     DraggingDemo.obj
 0002:000015ac       ??_7DragableBaseClassObject@@6B@ 004435ac     DraggingDemo.obj
 0002:00001604       ??_7DragableObject@@6B@    00443604     DraggingDemo.obj
 0002:0000165c       ??_7DragableImageObject@@6B@ 0044365c     DraggingDemo.obj
 0002:000016b4       ??_7ImageObject@@6B@       004436b4     DraggingDemo.obj
 0002:000016f8       ??_C@_0GB@OIADIBJN@C?3?2Program?5Files?2Microsoft?5Visu@ 004436f8     DraggingDemo.obj
 0002:00001770       ??_C@_1MC@JGAHOMKA@?$AAC?$AA?3?$AA?2?$AAP?$AAr?$AAo?$AAg?$AAr?$AAa?$AAm?$AA?5?$AAF?$AAi?$AAl?$AAe@ 00443770     DraggingDemo.obj
 0002:00001858       ??_C@_0BO@PFKOHNJC@vector?5subscript?5out?5of?5range@ 00443858     DraggingDemo.obj
 0002:00001880       ??_C@_1EA@LEKOKFNB@?$AA?$CC?$AAv?$AAe?$AAc?$AAt?$AAo?$AAr?$AA?5?$AAs?$AAu?$AAb?$AAs?$AAc?$AAr?$AAi@ 00443880     DraggingDemo.obj
 0002:000018cc       ??_C@_0BP@OLDKBHLM@map?1set?5iterators?5incompatible@ 004438cc     DraggingDemo.obj
 0002:000018f8       ??_C@_0GA@GNHKHACC@C?3?2Program?5Files?2Microsoft?5Visu@ 004438f8     DraggingDemo.obj
 0002:00001970       ??_C@_1MA@LENEFKFL@?$AAC?$AA?3?$AA?2?$AAP?$AAr?$AAo?$AAg?$AAr?$AAa?$AAm?$AA?5?$AAF?$AAi?$AAl?$AAe@ 00443970     DraggingDemo.obj
 0002:00001a58       ??_C@_1EC@JLIDLCDH@?$AA?$CC?$AAm?$AAa?$AAp?$AA?1?$AAs?$AAe?$AAt?$AA?5?$AAi?$AAt?$AAe?$AAr?$AAa?$AAt@ 00443a58     DraggingDemo.obj
 0002:00001aa8       ??_C@_0DG@LCFNIIPB@cannot?5dereference?5value?9initia@ 00443aa8     DraggingDemo.obj
 0002:00001ae8       ??_C@_1HA@ILGCNILF@?$AA?$CC?$AAc?$AAa?$AAn?$AAn?$AAo?$AAt?$AA?5?$AAd?$AAe?$AAr?$AAe?$AAf?$AAe?$AAr@ 00443ae8     DraggingDemo.obj
 0002:00001b70       ??_C@_0CI@OKFEHCEB@cannot?5dereference?5end?5map?1set?5@ 00443b70     DraggingDemo.obj
 0002:00001ba0       ??_C@_1FE@NKHAAGMB@?$AA?$CC?$AAc?$AAa?$AAn?$AAn?$AAo?$AAt?$AA?5?$AAd?$AAe?$AAr?$AAe?$AAf?$AAe?$AAr@ 00443ba0     DraggingDemo.obj
 0002:00001c04       ??_C@_0DG@KGHKKGBC@null?5pointer?5cannot?5point?5to?5a?5@ 00443c04     DraggingDemo.obj
 0002:00001c48       ??_C@_1HA@FACCKGGH@?$AA?$CC?$AAn?$AAu?$AAl?$AAl?$AA?5?$AAp?$AAo?$AAi?$AAn?$AAt?$AAe?$AAr?$AA?5?$AAc@ 00443c48     DraggingDemo.obj
 0002:00001cd0       ??_C@_0DA@GGPHOHEL@map?1set?5erase?5iterator?5from?5inc@ 00443cd0     DraggingDemo.obj
 0002:00001d10       ??_C@_1GE@FENJBJJO@?$AA?$CC?$AAm?$AAa?$AAp?$AA?1?$AAs?$AAe?$AAt?$AA?5?$AAe?$AAr?$AAa?$AAs?$AAe?$AA?5@ 00443d10     DraggingDemo.obj
 0002:00001d88       ??_C@_0CE@JAJNKOFK@cannot?5erase?5map?1set?5end?$CI?$CJ?5iter@ 00443d88     DraggingDemo.obj
 0002:00001db8       ??_C@_1EM@MEAEPHLP@?$AA?$CC?$AAc?$AAa?$AAn?$AAn?$AAo?$AAt?$AA?5?$AAe?$AAr?$AAa?$AAs?$AAe?$AA?5?$AAm@ 00443db8     DraggingDemo.obj
 0002:00001e18       ??_7?$_Ref_count@VRawImageData@@@std@@6B@ 00443e18     DraggingDemo.obj
 0002:00001e2c       ??_C@_0BA@FOIKENOD@vector?5too?5long@ 00443e2c     DraggingDemo.obj
 0002:00001e40       ??_C@_0GD@JKKFFOCD@C?3?2Program?5Files?2Microsoft?5Visu@ 00443e40     DraggingDemo.obj
 0002:00001eb8       ??_C@_1MG@JJBOPAGB@?$AAC?$AA?3?$AA?2?$AAP?$AAr?$AAo?$AAg?$AAr?$AAa?$AAm?$AA?5?$AAF?$AAi?$AAl?$AAe@ 00443eb8     DraggingDemo.obj
 0002:00001fa8       ??_C@_0BD@FEEMDEPI@invalid?5comparator@ 00443fa8     DraggingDemo.obj
 0002:00001fc0       ??_C@_1CK@NDNHPKPI@?$AA?$CC?$AAi?$AAn?$AAv?$AAa?$AAl?$AAi?$AAd?$AA?5?$AAc?$AAo?$AAm?$AAp?$AAa?$AAr@ 00443fc0     DraggingDemo.obj
 0002:000021e8       ?MY_PI@DrawingSurface@@2NB 004441e8     DrawingSurface.obj
 0002:00002408       ??_C@_0LN@HOLHFHJI@WARNING?3?5Attempted?5blit?5to?5lock@ 00444408     DrawingSurface.obj
 0002:000024f0       __real@3fe0000000000000    004444f0     DrawingSurface.obj
 0002:00002500       __real@3fe0c152382d7365    00444500     DrawingSurface.obj
 0002:00002510       __real@3ff0000000000000    00444510     DrawingSurface.obj
 0002:00002520       __real@3ff8000000000000    00444520     DrawingSurface.obj
 0002:00002530       __real@3ff921fb54442d18    00444530     DrawingSurface.obj
 0002:00002540       __real@4000000000000000    00444540     DrawingSurface.obj
 0002:00002550       __real@4008000000000000    00444550     DrawingSurface.obj
 0002:00002560       __real@400921fb54442d18    00444560     DrawingSurface.obj
 0002:00002570       __real@400f6a7a2955385e    00444570     DrawingSurface.obj
 0002:00002580       __real@4010000000000000    00444580     DrawingSurface.obj
 0002:00002590       __real@401921fb54442d18    00444590     DrawingSurface.obj
 0002:00002a5c       ??_7bad_cast@std@@6B@      00444a5c     efylw5Engine.obj
 0002:00002a68       ??_C@_08EPJLHIJG@bad?5cast@ 00444a68     efylw5Engine.obj
 0002:00002a78       ??_7States@@6B@            00444a78     efylw5Engine.obj
 0002:00002a8c       ??_7startingState@@6B@     00444a8c     efylw5Engine.obj
 0002:00002a9c       ??_C@_0BH@CILLMDKE@Welcome?5to?5Snake?5Game?$CB@ 00444a9c     efylw5Engine.obj
 0002:00002ab8       ??_C@_0BG@MCCGMFAA@Press?5Enter?5to?5Start?$CB@ 00444ab8     efylw5Engine.obj
 0002:00002ad4       ??_C@_0L@MONNHOIE@Image1?4jpg@ 00444ad4     efylw5Engine.obj
 0002:00002ae8       ??_7tutorialState@@6B@     00444ae8     efylw5Engine.obj
 0002:00002af8       ??_C@_0CH@MLPMLNOF@Here?5is?5the?5tutorial?5before?5you@ 00444af8     efylw5Engine.obj
 0002:00002b28       ??_C@_0EG@OAOGCKAO@If?5you?5want?5to?5leave?5the?5game?4?5@ 00444b28     efylw5Engine.obj
 0002:00002b7c       ??_C@_0CK@BBBLKLHC@You?5will?5have?55?5minutes?5to?5play@ 00444b7c     efylw5Engine.obj
 0002:00002bb0       ??_C@_0FG@LBNAPPJD@If?5you?5can?5reach?5a?5certain?5amou@ 00444bb0     efylw5Engine.obj
 0002:00002c18       ??_C@_0BN@EGDFAJOM@Press?5the?5spacebar?5to?5begin?4@ 00444c18     efylw5Engine.obj
 0002:00002c3c       ??_C@_09JMPLPNIN@Rules?4jpg@ 00444c3c     efylw5Engine.obj
 0002:00002c4c       ??_7runningState@@6B@      00444c4c     efylw5Engine.obj
 0002:00002c5c       ??_C@_0P@JABCLMEE@Player?5Score?3?5@ 00444c5c     efylw5Engine.obj
 0002:00002c70       ??_C@_06IFHEGFDN@Timer?3@  00444c70     efylw5Engine.obj
 0002:00002c78       ??_C@_0BD@EHDLEJKH@gameBackground?4jpg@ 00444c78     efylw5Engine.obj
 0002:00002c94       ??_7winningState@@6B@      00444c94     efylw5Engine.obj
 0002:00002ca4       ??_C@_0BB@KPLECBLD@Your?5Score?5is?3?5?5@ 00444ca4     efylw5Engine.obj
 0002:00002cbc       ??_7?$basic_filebuf@DU?$char_traits@D@std@@@std@@6B@ 00444cbc     efylw5Engine.obj
 0002:00002d08       ??_7?$basic_ofstream@DU?$char_traits@D@std@@@std@@6B@ 00444d08     efylw5Engine.obj
 0002:00002d10       ??_8?$basic_ofstream@DU?$char_traits@D@std@@@std@@7B@ 00444d10     efylw5Engine.obj
 0002:00002d1c       ??_C@_0DE@CHADHGFF@can?8t?5dereference?5value?9initial@ 00444d1c     efylw5Engine.obj
 0002:00002d60       ??_C@_1GM@FNBFNBEL@?$AA?$CC?$AAc?$AAa?$AAn?$AA?8?$AAt?$AA?5?$AAd?$AAe?$AAr?$AAe?$AAf?$AAe?$AAr?$AAe@ 00444d60     efylw5Engine.obj
 0002:00002de4       ??_C@_0CP@MDHADBHN@can?8t?5dereference?5out?5of?5range?5@ 00444de4     efylw5Engine.obj
 0002:00002e20       ??_C@_1GC@JDCKOLAC@?$AA?$CC?$AAc?$AAa?$AAn?$AA?8?$AAt?$AA?5?$AAd?$AAe?$AAr?$AAe?$AAf?$AAe?$AAr?$AAe@ 00444e20     efylw5Engine.obj
 0002:00002e98       ??_C@_0GC@BEKKGIJF@C?3?2Program?5Files?2Microsoft?5Visu@ 00444e98     efylw5Engine.obj
 0002:00002f10       ??_C@_1ME@NIFNHFCF@?$AAC?$AA?3?$AA?2?$AAP?$AAr?$AAo?$AAg?$AAr?$AAa?$AAm?$AA?5?$AAF?$AAi?$AAl?$AAe@ 00444f10     efylw5Engine.obj
 0002:00002ffc       ??_C@_0CB@EJBNKHHC@invalid?5to?5pop_back?5empty?5strin@ 00444ffc     efylw5Engine.obj
 0002:00003028       ??_C@_1EG@GNALHNOG@?$AA?$CC?$AAi?$AAn?$AAv?$AAa?$AAl?$AAi?$AAd?$AA?5?$AAt?$AAo?$AA?5?$AAp?$AAo?$AAp@ 00445028     efylw5Engine.obj
 0002:0000307c       ??_C@_0DC@KEKNBAEB@can?8t?5increment?5value?9initializ@ 0044507c     efylw5Engine.obj
 0002:000030b8       ??_C@_1GI@EDCILPL@?$AA?$CC?$AAc?$AAa?$AAn?$AA?8?$AAt?$AA?5?$AAi?$AAn?$AAc?$AAr?$AAe?$AAm?$AAe?$AAn@ 004450b8     efylw5Engine.obj
 0002:00003134       ??_C@_0CJ@OAAAAGPM@can?8t?5increment?5vector?5iterator@ 00445134     efylw5Engine.obj
 0002:00003168       ??_C@_1FG@LDPPKMGP@?$AA?$CC?$AAc?$AAa?$AAn?$AA?8?$AAt?$AA?5?$AAi?$AAn?$AAc?$AAr?$AAe?$AAm?$AAe?$AAn@ 00445168     efylw5Engine.obj
 0002:000031d0       ??_C@_0BP@PFIPNLNI@front?$CI?$CJ?5called?5on?5empty?5string@ 004451d0     efylw5Engine.obj
 0002:000031f8       ??_C@_1EC@DINNLDHA@?$AA?$CC?$AAf?$AAr?$AAo?$AAn?$AAt?$AA?$CI?$AA?$CJ?$AA?5?$AAc?$AAa?$AAl?$AAl?$AAe?$AAd@ 004451f8     efylw5Engine.obj
 0002:00003248       ??_C@_0BO@CAOBBIOC@vector?5iterators?5incompatible@ 00445248     efylw5Engine.obj
 0002:00003270       ??_C@_1EA@DJDGNIII@?$AA?$CC?$AAv?$AAe?$AAc?$AAt?$AAo?$AAr?$AA?5?$AAi?$AAt?$AAe?$AAr?$AAa?$AAt?$AAo@ 00445270     efylw5Engine.obj
 0002:000032bc       ??_C@_0BI@CFPLBAOH@invalid?5string?5position@ 004452bc     efylw5Engine.obj
 0002:000032d8       ??_C@_0BJ@HAJGEHKO@transposed?5pointer?5range@ 004452d8     efylw5Engine.obj
 0002:000032f8       ??_C@_1DG@FJIKMGFD@?$AA?$CC?$AAt?$AAr?$AAa?$AAn?$AAs?$AAp?$AAo?$AAs?$AAe?$AAd?$AA?5?$AAp?$AAo?$AAi@ 004452f8     efylw5Engine.obj
 0002:00003740       ??_7FlashingDemo@@6BDisplayableObjectContainer@@@ 00445740     FlashingDemo.obj
 0002:000037ec       ??_7FlashingDemo@@6BFilterPoints@@@ 004457ec     FlashingDemo.obj
 0002:00003c10       ??_7HSObjectL@@6B@         00445c10     HSObjectL.obj
 0002:00004058       ??_7HSObjectR@@6B@         00446058     HSObjectR.obj
 0002:000044e4       ??_7MappableImageObject@@6B@ 004464e4     ImageMappingDemo.obj
 0002:00004538       __real@3f1a36e2eb1c432d    00446538     ImageMappingDemo.obj
 0002:00004548       __real@4059000000000000    00446548     ImageMappingDemo.obj
 0002:00004558       __real@c059000000000000    00446558     ImageMappingDemo.obj
 0002:000049c8       ??_7highscoreState@@6B@    004469c8     mainfunction.obj
 0002:000049d8       ??_C@_0BA@BHHMHOFD@HighScore?5Table@ 004469d8     mainfunction.obj
 0002:000049ec       ??_C@_06NPAAKFED@Player@   004469ec     mainfunction.obj
 0002:000049f4       ??_C@_05DGAPONBB@Score@    004469f4     mainfunction.obj
 0002:000049fc       ??_C@_0CE@DCHDNEJJ@Press?5R?5to?5go?5back?5to?5the?5main?5@ 004469fc     mainfunction.obj
 0002:00004a2c       ??_7efylw5Engine@@6BDisplayableObjectContainer@@@ 00446a2c     mainfunction.obj
 0002:00004ad8       ??_7efylw5Engine@@6BFilterPoints@@@ 00446ad8     mainfunction.obj
 0002:00004f50       ??_7FilterPoints@@6B@      00446f50     BaseEngine.obj
 0002:00004f6c       ??_7DisplayableObjectContainer@@6B@ 00446f6c     BaseEngine.obj
 0002:00004f7c       ??_7BaseEngine@@6BDisplayableObjectContainer@@@ 00446f7c     BaseEngine.obj
 0002:00005028       ??_7BaseEngine@@6BFilterPoints@@@ 00447028     BaseEngine.obj
 0002:00005040       ??_C@_0DI@PBEELKIF@vector?5iterators?5in?5range?5are?5f@ 00447040     BaseEngine.obj
 0002:00005088       ??_C@_1HE@KBMFDAFB@?$AA?$CC?$AAv?$AAe?$AAc?$AAt?$AAo?$AAr?$AA?5?$AAi?$AAt?$AAe?$AAr?$AAa?$AAt?$AAo@ 00447088     BaseEngine.obj
 0002:00005114       ??_C@_0CB@LIAHLBAO@vector?5iterator?5range?5transpose@ 00447114     BaseEngine.obj
 0002:00005140       ??_C@_1EG@ODKBEHFN@?$AA?$CC?$AAv?$AAe?$AAc?$AAt?$AAo?$AAr?$AA?5?$AAi?$AAt?$AAe?$AAr?$AAa?$AAt?$AAo@ 00447140     BaseEngine.obj
 0002:000055a0       ??_7DisplayableObject@@6B@ 004475a0     DisplayableObject.obj
 0002:00005848       ??_C@_0BI@GMOFELCF@Free?5font?3?5?$CFd?5point?5?$CFs?6@ 00447848     FontManager.obj
 0002:00005cc0       ??_7MovingText@@6B@        00447cc0     MovingText.obj
 0002:00006108       ??_7CroppedImagePixelMapping@@6B@ 00448108     SimpleImage.obj
 0002:000065d4       ??_7BouncingObject@@6B@    004485d4     SimpleDemo.obj
 0002:00006618       __real@0000000000000000    00448618     SimpleDemo.obj
 0002:00006628       __real@3f747ae147ae147b    00448628     SimpleDemo.obj
 0002:00006638       __real@4004000000000000    00448638     SimpleDemo.obj
 0002:00006648       __real@400c000000000000    00448648     SimpleDemo.obj
 0002:00006658       __real@4069000000000000    00448658     SimpleDemo.obj
 0002:00006668       __real@4072c00000000000    00448668     SimpleDemo.obj
 0002:00006680       __xmm@80000000000000008000000000000000 00448680     SimpleDemo.obj
 0002:00006ba0       ??_7SnakeBody@@6B@         00448ba0     SnakeObject.obj
 0002:00006be4       ??_7FoodObject@@6B@        00448be4     SnakeObject.obj
 0002:00006c28       ??_7SnakeHead@@6B@         00448c28     SnakeObject.obj
 0002:00006c6c       ??_7losingState@@6B@       00448c6c     SnakeObject.obj
 0002:00006c7c       ??_C@_0BA@IFFENPGB@Your?5Score?5is?3?5@ 00448c7c     SnakeObject.obj
 0002:00007098       ??_7StarfieldDemo@@6BDisplayableObjectContainer@@@ 00449098     StarfieldDemo.obj
 0002:00007144       ??_7StarfieldDemo@@6BFilterPoints@@@ 00449144     StarfieldDemo.obj
 0002:00007594       ??_C@_0BG@HGEDEDEC@invalid?5stoi?5argument@ 00449594     States.obj
 0002:000075b0       ??_C@_0BL@MFFNMGGC@stoi?5argument?5out?5of?5range@ 004495b0     States.obj
 0002:000075d4       ??_7?$basic_ifstream@DU?$char_traits@D@std@@@std@@6B@ 004495d4     States.obj
 0002:000075dc       ??_8?$basic_ifstream@DU?$char_traits@D@std@@@std@@7B@ 004495dc     States.obj
 0002:000075e8       ??_C@_0CB@PKNBJHCN@containers?5incompatible?5for?5swa@ 004495e8     States.obj
 0002:00007610       ??_C@_1EG@DFCHKBDO@?$AA?$CC?$AAc?$AAo?$AAn?$AAt?$AAa?$AAi?$AAn?$AAe?$AAr?$AAs?$AA?5?$AAi?$AAn?$AAc@ 00449610     States.obj
 0002:00007e78       ??_7BouncingBall@@6B@      00449e78     BouncingBall.obj
 0002:00007ebc       ??_7BouncingBall1@@6B@     00449ebc     BouncingBall.obj
 0002:00007f00       ??_7BouncingBall2@@6B@     00449f00     BouncingBall.obj
 0002:00007f40       __real@3f847ae147ae147b    00449f40     BouncingBall.obj
 0002:00008390       __real@3fe999999999999a    0044a390     BouncingBallMain.obj
 0002:000083a0       __real@3ff199999999999a    0044a3a0     BouncingBallMain.obj
 0002:000083b0       __real@3ff3333333333333    0044a3b0     BouncingBallMain.obj
 0002:000083c0       __real@4049000000000000    0044a3c0     BouncingBallMain.obj
 0002:000083d0       __real@4062c00000000000    0044a3d0     BouncingBallMain.obj
 0002:000083e0       __real@4066800000000000    0044a3e0     BouncingBallMain.obj
 0002:000083f0       __real@406f400000000000    0044a3f0     BouncingBallMain.obj
 0002:00008400       __real@4071300000000000    0044a400     BouncingBallMain.obj
 0002:00008410       __real@4074500000000000    0044a410     BouncingBallMain.obj
 0002:00008420       __real@4075e00000000000    0044a420     BouncingBallMain.obj
 0002:00008430       __real@4077700000000000    0044a430     BouncingBallMain.obj
 0002:00008440       __real@4079000000000000    0044a440     BouncingBallMain.obj
 0002:00008450       __real@4079a00000000000    0044a450     BouncingBallMain.obj
 0002:00008460       __real@407c200000000000    0044a460     BouncingBallMain.obj
 0002:00008470       __real@407f400000000000    0044a470     BouncingBallMain.obj
 0002:00008480       __real@4081300000000000    0044a480     BouncingBallMain.obj
 0002:00008490       __real@4082c00000000000    0044a490     BouncingBallMain.obj
 0002:000084a0       __real@4084500000000000    0044a4a0     BouncingBallMain.obj
 0002:000084b0       __real@4087700000000000    0044a4b0     BouncingBallMain.obj
 0002:00008964       ??_7SimpleFlashingDragableImageObject@@6B@ 0044a964     ZoomingDemo.obj
 0002:00008f48       ??_7TileManager@@6B@       0044af48     MazeDemoMain.obj
 0002:00008f58       ??_7MazeDemoTileManager@@6B@ 0044af58     MazeDemoMain.obj
 0002:00008f68       ??_7MazeDemoMain@@6BDisplayableObjectContainer@@@ 0044af68     MazeDemoMain.obj
 0002:00009014       ??_7MazeDemoMain@@6BFilterPoints@@@ 0044b014     MazeDemoMain.obj
 0002:00009438       ??_7MazeDemoObject@@6B@    0044b438     MazeDemoObject.obj
 0002:0000987c       ??_C@_0DK@PCBCHJKC@D?3?2a?2_work?21?2s?2src?2vctools?2crt?2@ 0044b87c     msvcprtd:locale0_implib.obj
 0002:000098c8       ??_7type_info@@6B@         0044b8c8     MSVCRTD:std_type_info_static.obj
 0002:000098d0       ??_C@_17CNPHIMPH@?$AA?$CF?$AAl?$AAs@ 0044b8d0     MSVCRTD:thread_safe_statics.obj
 0002:000098e0       ??_C@_1EC@JIJBPKFM@?$AAa?$AAp?$AAi?$AA?9?$AAm?$AAs?$AA?9?$AAw?$AAi?$AAn?$AA?9?$AAc?$AAo?$AAr?$AAe@ 0044b8e0     MSVCRTD:thread_safe_statics.obj
 0002:00009930       ??_C@_1BK@MGMFAEKH@?$AAk?$AAe?$AAr?$AAn?$AAe?$AAl?$AA3?$AA2?$AA?4?$AAd?$AAl?$AAl@ 0044b930     MSVCRTD:thread_safe_statics.obj
 0002:00009950       ??_C@_0BJ@JEBJOJFJ@SleepConditionVariableCS@ 0044b950     MSVCRTD:thread_safe_statics.obj
 0002:00009970       ??_C@_0BJ@PGPPEPCC@WakeAllConditionVariable@ 0044b970     MSVCRTD:thread_safe_statics.obj
 0002:00009990       ??_C@_1JE@OMOJFEE@?$AAD?$AA?3?$AA?2?$AAa?$AA?2?$AA_?$AAw?$AAo?$AAr?$AAk?$AA?2?$AA1?$AA?2?$AAs?$AA?2@ 0044b990     MSVCRTD:thread_safe_statics.obj
 0002:00009a44       ??_C@_0P@GHFPNOJB@bad?5allocation@ 0044ba44     MSVCRTD:throw_bad_alloc.obj
 0002:00009a64       ??_C@_0BJ@HFNMHALN@Out?5of?5memory?5?9?5aborting@ 0044ba64     SDL2main:SDL_windows_main.obj
 0002:00009a84       ??_C@_0M@HFFOIJBL@Fatal?5Error@ 0044ba84     SDL2main:SDL_windows_main.obj
 0002:00009a98       __load_config_used         0044ba98     MSVCRTD:loadcfg.obj
 0002:00009dc0       ___CastGuardVftablesStart  0044bdc0     MSVCRTD:guard_support.obj
 0002:00009f40       ___CastGuardVftablesEnd    0044bf40     MSVCRTD:guard_support.obj
 0002:0000a08c       __tls_used                 0044c08c     MSVCRTD:tlssup.obj
 0002:0000a1a8       ??_R4exception@std@@6B@    0044c1a8     DraggingDemo.obj
 0002:0000a1c0       ??_R3exception@std@@8      0044c1c0     DraggingDemo.obj
 0002:0000a1d4       ??_R2exception@std@@8      0044c1d4     DraggingDemo.obj
 0002:0000a1dc       ??_R1A@?0A@EA@exception@std@@8 0044c1dc     DraggingDemo.obj
 0002:0000a200       ??_R4bad_alloc@std@@6B@    0044c200     DraggingDemo.obj
 0002:0000a218       ??_R3bad_alloc@std@@8      0044c218     DraggingDemo.obj
 0002:0000a22c       ??_R2bad_alloc@std@@8      0044c22c     DraggingDemo.obj
 0002:0000a238       ??_R1A@?0A@EA@bad_alloc@std@@8 0044c238     DraggingDemo.obj
 0002:0000a25c       ??_R4bad_array_new_length@std@@6B@ 0044c25c     DraggingDemo.obj
 0002:0000a274       ??_R3bad_array_new_length@std@@8 0044c274     DraggingDemo.obj
 0002:0000a288       ??_R2bad_array_new_length@std@@8 0044c288     DraggingDemo.obj
 0002:0000a298       ??_R1A@?0A@EA@bad_array_new_length@std@@8 0044c298     DraggingDemo.obj
 0002:0000a2bc       ??_R3_Ref_count_base@std@@8 0044c2bc     DraggingDemo.obj
 0002:0000a2d0       ??_R2_Ref_count_base@std@@8 0044c2d0     DraggingDemo.obj
 0002:0000a2d8       ??_R1A@?0A@EA@_Ref_count_base@std@@8 0044c2d8     DraggingDemo.obj
 0002:0000a2fc       ??_R4DragableBaseClassObject@@6B@ 0044c2fc     DraggingDemo.obj
 0002:0000a314       ??_R3DragableBaseClassObject@@8 0044c314     DraggingDemo.obj
 0002:0000a328       ??_R2DragableBaseClassObject@@8 0044c328     DraggingDemo.obj
 0002:0000a334       ??_R1A@?0A@EA@DragableBaseClassObject@@8 0044c334     DraggingDemo.obj
 0002:0000a358       ??_R1A@?0A@EA@DisplayableObject@@8 0044c358     DraggingDemo.obj
 0002:0000a37c       ??_R3DisplayableObject@@8  0044c37c     DraggingDemo.obj
 0002:0000a390       ??_R2DisplayableObject@@8  0044c390     DraggingDemo.obj
 0002:0000a398       ??_R4DragableObject@@6B@   0044c398     DraggingDemo.obj
 0002:0000a3b0       ??_R3DragableObject@@8     0044c3b0     DraggingDemo.obj
 0002:0000a3c4       ??_R2DragableObject@@8     0044c3c4     DraggingDemo.obj
 0002:0000a3d4       ??_R1A@?0A@EA@DragableObject@@8 0044c3d4     DraggingDemo.obj
 0002:0000a3f8       ??_R4DragableImageObject@@6B@ 0044c3f8     DraggingDemo.obj
 0002:0000a410       ??_R3DragableImageObject@@8 0044c410     DraggingDemo.obj
 0002:0000a424       ??_R2DragableImageObject@@8 0044c424     DraggingDemo.obj
 0002:0000a434       ??_R1A@?0A@EA@DragableImageObject@@8 0044c434     DraggingDemo.obj
 0002:0000a458       ??_R4ImageObject@@6B@      0044c458     DraggingDemo.obj
 0002:0000a470       ??_R3ImageObject@@8        0044c470     DraggingDemo.obj
 0002:0000a484       ??_R2ImageObject@@8        0044c484     DraggingDemo.obj
 0002:0000a490       ??_R1A@?0A@EA@ImageObject@@8 0044c490     DraggingDemo.obj
 0002:0000a4b4       ??_R4?$_Ref_count@VRawImageData@@@std@@6B@ 0044c4b4     DraggingDemo.obj
 0002:0000a4cc       ??_R3?$_Ref_count@VRawImageData@@@std@@8 0044c4cc     DraggingDemo.obj
 0002:0000a4e0       ??_R2?$_Ref_count@VRawImageData@@@std@@8 0044c4e0     DraggingDemo.obj
 0002:0000a4ec       ??_R1A@?0A@EA@?$_Ref_count@VRawImageData@@@std@@8 0044c4ec     DraggingDemo.obj
 0002:0000a510       ??_R4?$basic_filebuf@DU?$char_traits@D@std@@@std@@6B@ 0044c510     efylw5Engine.obj
 0002:0000a528       ??_R3?$basic_filebuf@DU?$char_traits@D@std@@@std@@8 0044c528     efylw5Engine.obj
 0002:0000a53c       ??_R2?$basic_filebuf@DU?$char_traits@D@std@@@std@@8 0044c53c     efylw5Engine.obj
 0002:0000a548       ??_R1A@?0A@EA@?$basic_filebuf@DU?$char_traits@D@std@@@std@@8 0044c548     efylw5Engine.obj
 0002:0000a56c       ??_R1A@?0A@EA@?$basic_streambuf@DU?$char_traits@D@std@@@std@@8 0044c56c     efylw5Engine.obj
 0002:0000a590       ??_R3?$basic_streambuf@DU?$char_traits@D@std@@@std@@8 0044c590     efylw5Engine.obj
 0002:0000a5a4       ??_R2?$basic_streambuf@DU?$char_traits@D@std@@@std@@8 0044c5a4     efylw5Engine.obj
 0002:0000a5ac       ??_R4?$basic_ofstream@DU?$char_traits@D@std@@@std@@6B@ 0044c5ac     efylw5Engine.obj
 0002:0000a5c4       ??_R3?$basic_ofstream@DU?$char_traits@D@std@@@std@@8 0044c5c4     efylw5Engine.obj
 0002:0000a5d8       ??_R2?$basic_ofstream@DU?$char_traits@D@std@@@std@@8 0044c5d8     efylw5Engine.obj
 0002:0000a5f4       ??_R1A@?0A@EA@?$basic_ofstream@DU?$char_traits@D@std@@@std@@8 0044c5f4     efylw5Engine.obj
 0002:0000a618       ??_R1A@?0A@EA@?$basic_ostream@DU?$char_traits@D@std@@@std@@8 0044c618     efylw5Engine.obj
 0002:0000a63c       ??_R3?$basic_ostream@DU?$char_traits@D@std@@@std@@8 0044c63c     efylw5Engine.obj
 0002:0000a650       ??_R2?$basic_ostream@DU?$char_traits@D@std@@@std@@8 0044c650     efylw5Engine.obj
 0002:0000a664       ??_R1A@A@3FA@?$basic_ios@DU?$char_traits@D@std@@@std@@8 0044c664     efylw5Engine.obj
 0002:0000a688       ??_R3?$basic_ios@DU?$char_traits@D@std@@@std@@8 0044c688     efylw5Engine.obj
 0002:0000a69c       ??_R2?$basic_ios@DU?$char_traits@D@std@@@std@@8 0044c69c     efylw5Engine.obj
 0002:0000a6ac       ??_R1A@?0A@EA@?$basic_ios@DU?$char_traits@D@std@@@std@@8 0044c6ac     efylw5Engine.obj
 0002:0000a6d0       ??_R1A@?0A@EA@ios_base@std@@8 0044c6d0     efylw5Engine.obj
 0002:0000a6f4       ??_R3ios_base@std@@8       0044c6f4     efylw5Engine.obj
 0002:0000a708       ??_R2ios_base@std@@8       0044c708     efylw5Engine.obj
 0002:0000a714       ??_R17?0A@EA@?$_Iosb@H@std@@8 0044c714     efylw5Engine.obj
 0002:0000a738       ??_R3?$_Iosb@H@std@@8      0044c738     efylw5Engine.obj
 0002:0000a74c       ??_R2?$_Iosb@H@std@@8      0044c74c     efylw5Engine.obj
 0002:0000a754       ??_R1A@?0A@EA@?$_Iosb@H@std@@8 0044c754     efylw5Engine.obj
 0002:0000a778       ??_R1A@A@3EA@ios_base@std@@8 0044c778     efylw5Engine.obj
 0002:0000a79c       ??_R17A@3EA@?$_Iosb@H@std@@8 0044c79c     efylw5Engine.obj
 0002:0000a7c0       ??_R4bad_cast@std@@6B@     0044c7c0     efylw5Engine.obj
 0002:0000a7d8       ??_R3bad_cast@std@@8       0044c7d8     efylw5Engine.obj
 0002:0000a7ec       ??_R2bad_cast@std@@8       0044c7ec     efylw5Engine.obj
 0002:0000a7f8       ??_R1A@?0A@EA@bad_cast@std@@8 0044c7f8     efylw5Engine.obj
 0002:0000a81c       ??_R4States@@6B@           0044c81c     efylw5Engine.obj
 0002:0000a834       ??_R3States@@8             0044c834     efylw5Engine.obj
 0002:0000a848       ??_R2States@@8             0044c848     efylw5Engine.obj
 0002:0000a850       ??_R1A@?0A@EA@States@@8    0044c850     efylw5Engine.obj
 0002:0000a874       ??_R4startingState@@6B@    0044c874     efylw5Engine.obj
 0002:0000a88c       ??_R3startingState@@8      0044c88c     efylw5Engine.obj
 0002:0000a8a0       ??_R2startingState@@8      0044c8a0     efylw5Engine.obj
 0002:0000a8ac       ??_R1A@?0A@EA@startingState@@8 0044c8ac     efylw5Engine.obj
 0002:0000a8d0       ??_R4tutorialState@@6B@    0044c8d0     efylw5Engine.obj
 0002:0000a8e8       ??_R3tutorialState@@8      0044c8e8     efylw5Engine.obj
 0002:0000a8fc       ??_R2tutorialState@@8      0044c8fc     efylw5Engine.obj
 0002:0000a908       ??_R1A@?0A@EA@tutorialState@@8 0044c908     efylw5Engine.obj
 0002:0000a92c       ??_R4runningState@@6B@     0044c92c     efylw5Engine.obj
 0002:0000a944       ??_R3runningState@@8       0044c944     efylw5Engine.obj
 0002:0000a958       ??_R2runningState@@8       0044c958     efylw5Engine.obj
 0002:0000a964       ??_R1A@?0A@EA@runningState@@8 0044c964     efylw5Engine.obj
 0002:0000a988       ??_R4winningState@@6B@     0044c988     efylw5Engine.obj
 0002:0000a9a0       ??_R3winningState@@8       0044c9a0     efylw5Engine.obj
 0002:0000a9b4       ??_R2winningState@@8       0044c9b4     efylw5Engine.obj
 0002:0000a9c0       ??_R1A@?0A@EA@winningState@@8 0044c9c0     efylw5Engine.obj
 0002:0000a9e4       ??_R3DisplayableObjectContainer@@8 0044c9e4     FlashingDemo.obj
 0002:0000a9f8       ??_R2DisplayableObjectContainer@@8 0044c9f8     FlashingDemo.obj
 0002:0000aa00       ??_R1A@?0A@EA@DisplayableObjectContainer@@8 0044ca00     FlashingDemo.obj
 0002:0000aa24       ??_R4FlashingDemo@@6BDisplayableObjectContainer@@@ 0044ca24     FlashingDemo.obj
 0002:0000aa3c       ??_R3FlashingDemo@@8       0044ca3c     FlashingDemo.obj
 0002:0000aa50       ??_R2FlashingDemo@@8       0044ca50     FlashingDemo.obj
 0002:0000aa64       ??_R1A@?0A@EA@FlashingDemo@@8 0044ca64     FlashingDemo.obj
 0002:0000aa88       ??_R1A@?0A@EA@BaseEngine@@8 0044ca88     FlashingDemo.obj
 0002:0000aaac       ??_R3BaseEngine@@8         0044caac     FlashingDemo.obj
 0002:0000aac0       ??_R2BaseEngine@@8         0044cac0     FlashingDemo.obj
 0002:0000aad0       ??_R1BM@?0A@EA@FilterPoints@@8 0044cad0     FlashingDemo.obj
 0002:0000aaf4       ??_R3FilterPoints@@8       0044caf4     FlashingDemo.obj
 0002:0000ab08       ??_R2FilterPoints@@8       0044cb08     FlashingDemo.obj
 0002:0000ab10       ??_R1A@?0A@EA@FilterPoints@@8 0044cb10     FlashingDemo.obj
 0002:0000ab34       ??_R4FlashingDemo@@6BFilterPoints@@@ 0044cb34     FlashingDemo.obj
 0002:0000ab4c       ??_R4HSObjectL@@6B@        0044cb4c     HSObjectL.obj
 0002:0000ab64       ??_R3HSObjectL@@8          0044cb64     HSObjectL.obj
 0002:0000ab78       ??_R2HSObjectL@@8          0044cb78     HSObjectL.obj
 0002:0000ab84       ??_R1A@?0A@EA@HSObjectL@@8 0044cb84     HSObjectL.obj
 0002:0000aba8       ??_R4HSObjectR@@6B@        0044cba8     HSObjectR.obj
 0002:0000abc0       ??_R3HSObjectR@@8          0044cbc0     HSObjectR.obj
 0002:0000abd4       ??_R2HSObjectR@@8          0044cbd4     HSObjectR.obj
 0002:0000abe0       ??_R1A@?0A@EA@HSObjectR@@8 0044cbe0     HSObjectR.obj
 0002:0000ac04       ??_R4MappableImageObject@@6B@ 0044cc04     ImageMappingDemo.obj
 0002:0000ac1c       ??_R3MappableImageObject@@8 0044cc1c     ImageMappingDemo.obj
 0002:0000ac30       ??_R2MappableImageObject@@8 0044cc30     ImageMappingDemo.obj
 0002:0000ac44       ??_R1A@?0A@EA@MappableImageObject@@8 0044cc44     ImageMappingDemo.obj
 0002:0000ac68       ??_R4efylw5Engine@@6BDisplayableObjectContainer@@@ 0044cc68     mainfunction.obj
 0002:0000ac80       ??_R3efylw5Engine@@8       0044cc80     mainfunction.obj
 0002:0000ac94       ??_R2efylw5Engine@@8       0044cc94     mainfunction.obj
 0002:0000aca8       ??_R1A@?0A@EA@efylw5Engine@@8 0044cca8     mainfunction.obj
 0002:0000accc       ??_R4efylw5Engine@@6BFilterPoints@@@ 0044cccc     mainfunction.obj
 0002:0000ace4       ??_R4highscoreState@@6B@   0044cce4     mainfunction.obj
 0002:0000acfc       ??_R3highscoreState@@8     0044ccfc     mainfunction.obj
 0002:0000ad10       ??_R2highscoreState@@8     0044cd10     mainfunction.obj
 0002:0000ad1c       ??_R1A@?0A@EA@highscoreState@@8 0044cd1c     mainfunction.obj
 0002:0000ad40       ??_R4BaseEngine@@6BDisplayableObjectContainer@@@ 0044cd40     BaseEngine.obj
 0002:0000ad58       ??_R4BaseEngine@@6BFilterPoints@@@ 0044cd58     BaseEngine.obj
 0002:0000ad70       ??_R4FilterPoints@@6B@     0044cd70     BaseEngine.obj
 0002:0000ad88       ??_R4DisplayableObjectContainer@@6B@ 0044cd88     BaseEngine.obj
 0002:0000ada0       ??_R4DisplayableObject@@6B@ 0044cda0     DisplayableObject.obj
 0002:0000adb8       ??_R4MovingText@@6B@       0044cdb8     MovingText.obj
 0002:0000add0       ??_R3MovingText@@8         0044cdd0     MovingText.obj
 0002:0000ade4       ??_R2MovingText@@8         0044cde4     MovingText.obj
 0002:0000adf0       ??_R1A@?0A@EA@MovingText@@8 0044cdf0     MovingText.obj
 0002:0000ae14       ??_R3ImagePixelMapping@@8  0044ce14     SimpleImage.obj
 0002:0000ae28       ??_R2ImagePixelMapping@@8  0044ce28     SimpleImage.obj
 0002:0000ae30       ??_R1A@?0A@EA@ImagePixelMapping@@8 0044ce30     SimpleImage.obj
 0002:0000ae54       ??_R4CroppedImagePixelMapping@@6B@ 0044ce54     SimpleImage.obj
 0002:0000ae6c       ??_R3CroppedImagePixelMapping@@8 0044ce6c     SimpleImage.obj
 0002:0000ae80       ??_R2CroppedImagePixelMapping@@8 0044ce80     SimpleImage.obj
 0002:0000ae8c       ??_R1A@?0A@EA@CroppedImagePixelMapping@@8 0044ce8c     SimpleImage.obj
 0002:0000aeb0       ??_R4BouncingObject@@6B@   0044ceb0     SimpleDemo.obj
 0002:0000aec8       ??_R3BouncingObject@@8     0044cec8     SimpleDemo.obj
 0002:0000aedc       ??_R2BouncingObject@@8     0044cedc     SimpleDemo.obj
 0002:0000aee8       ??_R1A@?0A@EA@BouncingObject@@8 0044cee8     SimpleDemo.obj
 0002:0000af0c       ??_R4SnakeHead@@6B@        0044cf0c     SnakeObject.obj
 0002:0000af24       ??_R3SnakeHead@@8          0044cf24     SnakeObject.obj
 0002:0000af38       ??_R2SnakeHead@@8          0044cf38     SnakeObject.obj
 0002:0000af44       ??_R1A@?0A@EA@SnakeHead@@8 0044cf44     SnakeObject.obj
 0002:0000af68       ??_R4SnakeBody@@6B@        0044cf68     SnakeObject.obj
 0002:0000af80       ??_R3SnakeBody@@8          0044cf80     SnakeObject.obj
 0002:0000af94       ??_R2SnakeBody@@8          0044cf94     SnakeObject.obj
 0002:0000afa0       ??_R1A@?0A@EA@SnakeBody@@8 0044cfa0     SnakeObject.obj
 0002:0000afc4       ??_R4FoodObject@@6B@       0044cfc4     SnakeObject.obj
 0002:0000afdc       ??_R3FoodObject@@8         0044cfdc     SnakeObject.obj
 0002:0000aff0       ??_R2FoodObject@@8         0044cff0     SnakeObject.obj
 0002:0000affc       ??_R1A@?0A@EA@FoodObject@@8 0044cffc     SnakeObject.obj
 0002:0000b020       ??_R4losingState@@6B@      0044d020     SnakeObject.obj
 0002:0000b038       ??_R3losingState@@8        0044d038     SnakeObject.obj
 0002:0000b04c       ??_R2losingState@@8        0044d04c     SnakeObject.obj
 0002:0000b058       ??_R1A@?0A@EA@losingState@@8 0044d058     SnakeObject.obj
 0002:0000b07c       ??_R4StarfieldDemo@@6BDisplayableObjectContainer@@@ 0044d07c     StarfieldDemo.obj
 0002:0000b094       ??_R3StarfieldDemo@@8      0044d094     StarfieldDemo.obj
 0002:0000b0a8       ??_R2StarfieldDemo@@8      0044d0a8     StarfieldDemo.obj
 0002:0000b0bc       ??_R1A@?0A@EA@StarfieldDemo@@8 0044d0bc     StarfieldDemo.obj
 0002:0000b0e0       ??_R4StarfieldDemo@@6BFilterPoints@@@ 0044d0e0     StarfieldDemo.obj
 0002:0000b0f8       ??_R4?$basic_ifstream@DU?$char_traits@D@std@@@std@@6B@ 0044d0f8     States.obj
 0002:0000b110       ??_R3?$basic_ifstream@DU?$char_traits@D@std@@@std@@8 0044d110     States.obj
 0002:0000b124       ??_R2?$basic_ifstream@DU?$char_traits@D@std@@@std@@8 0044d124     States.obj
 0002:0000b140       ??_R1A@?0A@EA@?$basic_ifstream@DU?$char_traits@D@std@@@std@@8 0044d140     States.obj
 0002:0000b164       ??_R1A@?0A@EA@?$basic_istream@DU?$char_traits@D@std@@@std@@8 0044d164     States.obj
 0002:0000b188       ??_R3?$basic_istream@DU?$char_traits@D@std@@@std@@8 0044d188     States.obj
 0002:0000b19c       ??_R2?$basic_istream@DU?$char_traits@D@std@@@std@@8 0044d19c     States.obj
 0002:0000b1b0       ??_R4BouncingBall@@6B@     0044d1b0     BouncingBall.obj
 0002:0000b1c8       ??_R3BouncingBall@@8       0044d1c8     BouncingBall.obj
 0002:0000b1dc       ??_R2BouncingBall@@8       0044d1dc     BouncingBall.obj
 0002:0000b1e8       ??_R1A@?0A@EA@BouncingBall@@8 0044d1e8     BouncingBall.obj
 0002:0000b20c       ??_R4BouncingBall1@@6B@    0044d20c     BouncingBall.obj
 0002:0000b224       ??_R3BouncingBall1@@8      0044d224     BouncingBall.obj
 0002:0000b238       ??_R2BouncingBall1@@8      0044d238     BouncingBall.obj
 0002:0000b248       ??_R1A@?0A@EA@BouncingBall1@@8 0044d248     BouncingBall.obj
 0002:0000b26c       ??_R4BouncingBall2@@6B@    0044d26c     BouncingBall.obj
 0002:0000b284       ??_R3BouncingBall2@@8      0044d284     BouncingBall.obj
 0002:0000b298       ??_R2BouncingBall2@@8      0044d298     BouncingBall.obj
 0002:0000b2a8       ??_R1A@?0A@EA@BouncingBall2@@8 0044d2a8     BouncingBall.obj
 0002:0000b2cc       ??_R4SimpleFlashingDragableImageObject@@6B@ 0044d2cc     ZoomingDemo.obj
 0002:0000b2e4       ??_R3SimpleFlashingDragableImageObject@@8 0044d2e4     ZoomingDemo.obj
 0002:0000b2f8       ??_R2SimpleFlashingDragableImageObject@@8 0044d2f8     ZoomingDemo.obj
 0002:0000b304       ??_R1A@?0A@EA@SimpleFlashingDragableImageObject@@8 0044d304     ZoomingDemo.obj
 0002:0000b328       ??_R4MazeDemoMain@@6BDisplayableObjectContainer@@@ 0044d328     MazeDemoMain.obj
 0002:0000b340       ??_R3MazeDemoMain@@8       0044d340     MazeDemoMain.obj
 0002:0000b354       ??_R2MazeDemoMain@@8       0044d354     MazeDemoMain.obj
 0002:0000b368       ??_R1A@?0A@EA@MazeDemoMain@@8 0044d368     MazeDemoMain.obj
 0002:0000b38c       ??_R4MazeDemoMain@@6BFilterPoints@@@ 0044d38c     MazeDemoMain.obj
 0002:0000b3a4       ??_R4TileManager@@6B@      0044d3a4     MazeDemoMain.obj
 0002:0000b3bc       ??_R3TileManager@@8        0044d3bc     MazeDemoMain.obj
 0002:0000b3d0       ??_R2TileManager@@8        0044d3d0     MazeDemoMain.obj
 0002:0000b3d8       ??_R1A@?0A@EA@TileManager@@8 0044d3d8     MazeDemoMain.obj
 0002:0000b3fc       ??_R4MazeDemoTileManager@@6B@ 0044d3fc     MazeDemoMain.obj
 0002:0000b414       ??_R3MazeDemoTileManager@@8 0044d414     MazeDemoMain.obj
 0002:0000b428       ??_R2MazeDemoTileManager@@8 0044d428     MazeDemoMain.obj
 0002:0000b434       ??_R1A@?0A@EA@MazeDemoTileManager@@8 0044d434     MazeDemoMain.obj
 0002:0000b458       ??_R4MazeDemoObject@@6B@   0044d458     MazeDemoObject.obj
 0002:0000b470       ??_R3MazeDemoObject@@8     0044d470     MazeDemoObject.obj
 0002:0000b484       ??_R2MazeDemoObject@@8     0044d484     MazeDemoObject.obj
 0002:0000b490       ??_R1A@?0A@EA@MazeDemoObject@@8 0044d490     MazeDemoObject.obj
 0002:0000b4b4       ??_R4type_info@@6B@        0044d4b4     MSVCRTD:std_type_info_static.obj
 0002:0000b4cc       ??_R3type_info@@8          0044d4cc     MSVCRTD:std_type_info_static.obj
 0002:0000b4e0       ??_R2type_info@@8          0044d4e0     MSVCRTD:std_type_info_static.obj
 0002:0000b4e8       ??_R1A@?0A@EA@type_info@@8 0044d4e8     MSVCRTD:std_type_info_static.obj
 0002:0000b690       ___safe_se_handler_table   0044d690     <linker-defined>
 0002:0000bc74       ___rtc_iaa                 0044dc74     MSVCRTD:initsect.obj
 0002:0000bd78       ___rtc_izz                 0044dd78     MSVCRTD:initsect.obj
 0002:0000be7c       ___rtc_taa                 0044de7c     MSVCRTD:initsect.obj
 0002:0000bf80       ___rtc_tzz                 0044df80     MSVCRTD:initsect.obj
 0002:0000c9a0       __TI3?AVbad_array_new_length@std@@ 0044e9a0     DraggingDemo.obj
 0002:0000c9b4       __CTA3?AVbad_array_new_length@std@@ 0044e9b4     DraggingDemo.obj
 0002:0000c9c8       __CT??_R0?AVbad_array_new_length@std@@@8??0bad_array_new_length@std@@QAE@ABV01@@Z12 0044e9c8     DraggingDemo.obj
 0002:0000c9e8       __CT??_R0?AVbad_alloc@std@@@8??0bad_alloc@std@@QAE@ABV01@@Z12 0044e9e8     DraggingDemo.obj
 0002:0000ca08       __CT??_R0?AVexception@std@@@8??0exception@std@@QAE@ABV01@@Z12 0044ea08     DraggingDemo.obj
 0002:0000d560       __TI2?AVbad_cast@std@@     0044f560     efylw5Engine.obj
 0002:0000d574       __CTA2?AVbad_cast@std@@    0044f574     efylw5Engine.obj
 0002:0000d584       __CT??_R0?AVbad_cast@std@@@8??0bad_cast@std@@QAE@ABV01@@Z12 0044f584     efylw5Engine.obj
 0002:0000e718       __TI2?AVbad_alloc@std@@    00450718     MSVCRTD:throw_bad_alloc.obj
 0002:0000e72c       __CTA2?AVbad_alloc@std@@   0045072c     MSVCRTD:throw_bad_alloc.obj
 0003:00000008       ___security_cookie         00451008     MSVCRTD:gs_cookie.obj
 0003:0000000c       ___security_cookie_complement 0045100c     MSVCRTD:gs_cookie.obj
 0003:00000014       __fltused                  00451014     MSVCRTD:fltused.obj
 0003:00000018       ___scrt_native_dllmain_reason 00451018     MSVCRTD:utility.obj
 0003:0000001c       __Init_global_epoch        0045101c     MSVCRTD:thread_safe_statics.obj
 0003:00000020       ___scrt_default_matherr    00451020     MSVCRTD:matherr.obj
 0003:00000024       ___isa_enabled             00451024     MSVCRTD:cpu_disp.obj
 0003:00000028       ___scrt_ucrt_dll_is_in_use 00451028     MSVCRTD:ucrt_stubs.obj
 0003:00000134       ??_R0?AVbad_array_new_length@std@@@8 00451134     DraggingDemo.obj
 0003:00000164       ??_R0?AVbad_alloc@std@@@8  00451164     DraggingDemo.obj
 0003:00000188       ??_R0?AVexception@std@@@8  00451188     DraggingDemo.obj
 0003:000001ac       ??_R0?AVbad_cast@std@@@8   004511ac     efylw5Engine.obj
 0003:000002d0       ??_R0?AV_Ref_count_base@std@@@8 004512d0     DraggingDemo.obj
 0003:000002f8       ??_R0?AVDragableBaseClassObject@@@8 004512f8     DraggingDemo.obj
 0003:00000328       ??_R0?AVDisplayableObject@@@8 00451328     DraggingDemo.obj
 0003:00000350       ??_R0?AVDragableObject@@@8 00451350     DraggingDemo.obj
 0003:00000374       ??_R0?AVDragableImageObject@@@8 00451374     DraggingDemo.obj
 0003:0000039c       ??_R0?AVImageObject@@@8    0045139c     DraggingDemo.obj
 0003:000003bc       ??_R0?AV?$_Ref_count@VRawImageData@@@std@@@8 004513bc     DraggingDemo.obj
 0003:000003f4       ??_R0?AV?$basic_filebuf@DU?$char_traits@D@std@@@std@@@8 004513f4     efylw5Engine.obj
 0003:0000043c       ??_R0?AV?$basic_streambuf@DU?$char_traits@D@std@@@std@@@8 0045143c     efylw5Engine.obj
 0003:00000484       ??_R0?AV?$basic_ofstream@DU?$char_traits@D@std@@@std@@@8 00451484     efylw5Engine.obj
 0003:000004cc       ??_R0?AV?$basic_ostream@DU?$char_traits@D@std@@@std@@@8 004514cc     efylw5Engine.obj
 0003:00000514       ??_R0?AV?$basic_ios@DU?$char_traits@D@std@@@std@@@8 00451514     efylw5Engine.obj
 0003:00000554       ??_R0?AVios_base@std@@@8   00451554     efylw5Engine.obj
 0003:00000574       ??_R0?AV?$_Iosb@H@std@@@8  00451574     efylw5Engine.obj
 0003:00000598       ??_R0?AVStates@@@8         00451598     efylw5Engine.obj
 0003:000005b4       ??_R0?AVstartingState@@@8  004515b4     efylw5Engine.obj
 0003:000005d8       ??_R0?AVtutorialState@@@8  004515d8     efylw5Engine.obj
 0003:000005fc       ??_R0?AVrunningState@@@8   004515fc     efylw5Engine.obj
 0003:0000061c       ??_R0?AVwinningState@@@8   0045161c     efylw5Engine.obj
 0003:0000063c       ??_R0?AVDisplayableObjectContainer@@@8 0045163c     FlashingDemo.obj
 0003:00000670       ??_R0?AVFlashingDemo@@@8   00451670     FlashingDemo.obj
 0003:00000690       ??_R0?AVBaseEngine@@@8     00451690     FlashingDemo.obj
 0003:000006b0       ??_R0?AVFilterPoints@@@8   004516b0     FlashingDemo.obj
 0003:000006d0       ??_R0?AVHSObjectL@@@8      004516d0     HSObjectL.obj
 0003:000006ec       ??_R0?AVHSObjectR@@@8      004516ec     HSObjectR.obj
 0003:00000708       ??_R0?AVMappableImageObject@@@8 00451708     ImageMappingDemo.obj
 0003:00000730       ??_R0?AVefylw5Engine@@@8   00451730     mainfunction.obj
 0003:00000750       ??_R0?AVhighscoreState@@@8 00451750     mainfunction.obj
 0003:00000774       ??_R0?AVMovingText@@@8     00451774     MovingText.obj
 0003:00000794       ??_R0?AVImagePixelMapping@@@8 00451794     SimpleImage.obj
 0003:000007bc       ??_R0?AVCroppedImagePixelMapping@@@8 004517bc     SimpleImage.obj
 0003:000007ec       ??_R0?AVBouncingObject@@@8 004517ec     SimpleDemo.obj
 0003:00000810       ??_R0?AVSnakeHead@@@8      00451810     SnakeObject.obj
 0003:0000082c       ??_R0?AVSnakeBody@@@8      0045182c     SnakeObject.obj
 0003:00000848       ??_R0?AVFoodObject@@@8     00451848     SnakeObject.obj
 0003:00000868       ??_R0?AVlosingState@@@8    00451868     SnakeObject.obj
 0003:00000888       ??_R0?AVStarfieldDemo@@@8  00451888     StarfieldDemo.obj
 0003:000008ac       ??_R0?AV?$basic_ifstream@DU?$char_traits@D@std@@@std@@@8 004518ac     States.obj
 0003:000008f4       ??_R0?AV?$basic_istream@DU?$char_traits@D@std@@@std@@@8 004518f4     States.obj
 0003:0000093c       ??_R0?AVBouncingBall@@@8   0045193c     BouncingBall.obj
 0003:0000095c       ??_R0?AVBouncingBall1@@@8  0045195c     BouncingBall.obj
 0003:00000980       ??_R0?AVBouncingBall2@@@8  00451980     BouncingBall.obj
 0003:000009a4       ??_R0?AVSimpleFlashingDragableImageObject@@@8 004519a4     ZoomingDemo.obj
 0003:000009e0       ??_R0?AVMazeDemoMain@@@8   004519e0     MazeDemoMain.obj
 0003:00000a00       ??_R0?AVTileManager@@@8    00451a00     MazeDemoMain.obj
 0003:00000a20       ??_R0?AVMazeDemoTileManager@@@8 00451a20     MazeDemoMain.obj
 0003:00000a48       ??_R0?AVMazeDemoObject@@@8 00451a48     MazeDemoObject.obj
 0003:00000a6c       ??_R0?AVtype_info@@@8      00451a6c     MSVCRTD:std_type_info_static.obj
 0003:00000bb0       ?_OptionsStorage@?1??__local_stdio_printf_options@@9@4_KA 00451bb0     DraggingDemo.obj
 0003:00000bbc       ?_Stinit@?1??_Init@?$basic_filebuf@DU?$char_traits@D@std@@@std@@IAEXPAU_iobuf@@W4_Initfl@23@@Z@4U_Mbstatet@@A 00451bbc     efylw5Engine.obj
 0003:00000bc8       ?_Psave@?$_Facetptr@V?$codecvt@DDU_Mbstatet@@@std@@@std@@2PBVfacet@locale@2@B 00451bc8     efylw5Engine.obj
 0003:00000bcc       ?g_pManager@ImageManager@@0PAV1@A 00451bcc     SimpleImage.obj
 0003:00000bf8       ___scrt_current_native_startup_state 00451bf8     MSVCRTD:utility.obj
 0003:00000bfc       ___scrt_native_startup_lock 00451bfc     MSVCRTD:utility.obj
 0003:00000c54       __tls_index                00451c54     MSVCRTD:tlssup.obj
 0003:00000c58       ?__type_info_root_node@@3U__type_info_node@@A 00451c58     MSVCRTD:tncleanup.obj
 0003:00000c68       ?_OptionsStorage@?1??__local_stdio_scanf_options@@9@4_KA 00451c68     MSVCRTD:default_local_stdio_options.obj
 0003:00000c74       ___scrt_debugger_hook_flag 00451c74     MSVCRTD:utility_desktop.obj
 0003:00001034       ___isa_available           00452034     MSVCRTD:cpu_disp.obj
 0003:00001038       ___favor                   00452038     MSVCRTD:cpu_disp.obj
 0003:00001040       ___dyn_tls_dtor_callback   00452040     <common>
 0003:0000104c       ___dyn_tls_init_callback   0045204c     <common>
 0004:00000000       __imp__CloseHandle@4       00453000     kernel32:KERNEL32.dll
 0004:00000004       __imp__EnterCriticalSection@4 00453004     kernel32:KERNEL32.dll
 0004:00000008       __imp__LeaveCriticalSection@4 00453008     kernel32:KERNEL32.dll
 0004:0000000c       __imp__InitializeCriticalSectionAndSpinCount@8 0045300c     kernel32:KERNEL32.dll
 0004:00000010       __imp__DeleteCriticalSection@4 00453010     kernel32:KERNEL32.dll
 0004:00000014       __imp__SetEvent@4          00453014     kernel32:KERNEL32.dll
 0004:00000018       __imp__ResetEvent@4        00453018     kernel32:KERNEL32.dll
 0004:0000001c       __imp__WaitForSingleObjectEx@12 0045301c     kernel32:KERNEL32.dll
 0004:00000020       __imp__CreateEventW@16     00453020     kernel32:KERNEL32.dll
 0004:00000024       __imp__GetModuleHandleW@4  00453024     kernel32:KERNEL32.dll
 0004:00000028       __imp__GetProcAddress@8    00453028     kernel32:KERNEL32.dll
 0004:0000002c       __imp__QueryPerformanceCounter@4 0045302c     kernel32:KERNEL32.dll
 0004:00000030       __imp__GetCurrentProcessId@0 00453030     kernel32:KERNEL32.dll
 0004:00000034       __imp__GetCurrentThreadId@0 00453034     kernel32:KERNEL32.dll
 0004:00000038       __imp__GetSystemTimeAsFileTime@4 00453038     kernel32:KERNEL32.dll
 0004:0000003c       __imp__InitializeSListHead@4 0045303c     kernel32:KERNEL32.dll
 0004:00000040       __imp__IsDebuggerPresent@0 00453040     kernel32:KERNEL32.dll
 0004:00000044       __imp__UnhandledExceptionFilter@4 00453044     kernel32:KERNEL32.dll
 0004:00000048       __imp__SetUnhandledExceptionFilter@4 00453048     kernel32:KERNEL32.dll
 0004:0000004c       __imp__GetStartupInfoW@4   0045304c     kernel32:KERNEL32.dll
 0004:00000050       __imp__GetCurrentProcess@0 00453050     kernel32:KERNEL32.dll
 0004:00000054       __imp__TerminateProcess@8  00453054     kernel32:KERNEL32.dll
 0004:00000058       __imp__WideCharToMultiByte@32 00453058     kernel32:KERNEL32.dll
 0004:0000005c       __imp__VirtualFree@12      0045305c     kernel32:KERNEL32.dll
 0004:00000060       __imp__VirtualAlloc@16     00453060     kernel32:KERNEL32.dll
 0004:00000064       __imp__GetCommandLineW@0   00453064     kernel32:KERNEL32.dll
 0004:00000068       __imp__IsProcessorFeaturePresent@4 00453068     kernel32:KERNEL32.dll
 0004:0000006c       \177KERNEL32_NULL_THUNK_DATA 0045306c     kernel32:KERNEL32.dll
 0004:000000ac       __imp_?_Xbad_alloc@std@@YAXXZ 004530ac     msvcprtd:MSVCP140D.dll
 0004:000000b0       __imp_??0_Lockit@std@@QAE@H@Z 004530b0     msvcprtd:MSVCP140D.dll
 0004:000000b4       __imp_??1_Lockit@std@@QAE@XZ 004530b4     msvcprtd:MSVCP140D.dll
 0004:000000b8       __imp_?_Xlength_error@std@@YAXPBD@Z 004530b8     msvcprtd:MSVCP140D.dll
 0004:000000bc       __imp_?uncaught_exception@std@@YA_NXZ 004530bc     msvcprtd:MSVCP140D.dll
 0004:000000c0       __imp_?good@ios_base@std@@QBE_NXZ 004530c0     msvcprtd:MSVCP140D.dll
 0004:000000c4       __imp_?flags@ios_base@std@@QBEHXZ 004530c4     msvcprtd:MSVCP140D.dll
 0004:000000c8       __imp_?width@ios_base@std@@QBE_JXZ 004530c8     msvcprtd:MSVCP140D.dll
 0004:000000cc       __imp_?width@ios_base@std@@QAE_J_J@Z 004530cc     msvcprtd:MSVCP140D.dll
 0004:000000d0       __imp_?sputc@?$basic_streambuf@DU?$char_traits@D@std@@@std@@QAEHD@Z 004530d0     msvcprtd:MSVCP140D.dll
 0004:000000d4       __imp_?sputn@?$basic_streambuf@DU?$char_traits@D@std@@@std@@QAE_JPBD_J@Z 004530d4     msvcprtd:MSVCP140D.dll
 0004:000000d8       __imp_?setstate@?$basic_ios@DU?$char_traits@D@std@@@std@@QAEXH_N@Z 004530d8     msvcprtd:MSVCP140D.dll
 0004:000000dc       __imp_?tie@?$basic_ios@DU?$char_traits@D@std@@@std@@QBEPAV?$basic_ostream@DU?$char_traits@D@std@@@2@XZ 004530dc     msvcprtd:MSVCP140D.dll
 0004:000000e0       __imp_?rdbuf@?$basic_ios@DU?$char_traits@D@std@@@std@@QBEPAV?$basic_streambuf@DU?$char_traits@D@std@@@2@XZ 004530e0     msvcprtd:MSVCP140D.dll
 0004:000000e4       __imp_?fill@?$basic_ios@DU?$char_traits@D@std@@@std@@QBEDXZ 004530e4     msvcprtd:MSVCP140D.dll
 0004:000000e8       __imp_?widen@?$basic_ios@DU?$char_traits@D@std@@@std@@QBEDD@Z 004530e8     msvcprtd:MSVCP140D.dll
 0004:000000ec       __imp_?_Osfx@?$basic_ostream@DU?$char_traits@D@std@@@std@@QAEXXZ 004530ec     msvcprtd:MSVCP140D.dll
 0004:000000f0       __imp_??6?$basic_ostream@DU?$char_traits@D@std@@@std@@QAEAAV01@P6AAAV01@AAV01@@Z@Z 004530f0     msvcprtd:MSVCP140D.dll
 0004:000000f4       __imp_?put@?$basic_ostream@DU?$char_traits@D@std@@@std@@QAEAAV12@D@Z 004530f4     msvcprtd:MSVCP140D.dll
 0004:000000f8       __imp_?flush@?$basic_ostream@DU?$char_traits@D@std@@@std@@QAEAAV12@XZ 004530f8     msvcprtd:MSVCP140D.dll
 0004:000000fc       __imp_?cout@std@@3V?$basic_ostream@DU?$char_traits@D@std@@@1@A 004530fc     msvcprtd:MSVCP140D.dll
 0004:00000100       __imp_?_Xout_of_range@std@@YAXPBD@Z 00453100     msvcprtd:MSVCP140D.dll
 0004:00000104       __imp_??Bid@locale@std@@QAEIXZ 00453104     msvcprtd:MSVCP140D.dll
 0004:00000108       __imp_?_Getgloballocale@locale@std@@CAPAV_Locimp@12@XZ 00453108     msvcprtd:MSVCP140D.dll
 0004:0000010c       __imp_?always_noconv@codecvt_base@std@@QBE_NXZ 0045310c     msvcprtd:MSVCP140D.dll
 0004:00000110       __imp_?in@?$codecvt@DDU_Mbstatet@@@std@@QBEHAAU_Mbstatet@@PBD1AAPBDPAD3AAPAD@Z 00453110     msvcprtd:MSVCP140D.dll
 0004:00000114       __imp_?out@?$codecvt@DDU_Mbstatet@@@std@@QBEHAAU_Mbstatet@@PBD1AAPBDPAD3AAPAD@Z 00453114     msvcprtd:MSVCP140D.dll
 0004:00000118       __imp_?unshift@?$codecvt@DDU_Mbstatet@@@std@@QBEHAAU_Mbstatet@@PAD1AAPAD@Z 00453118     msvcprtd:MSVCP140D.dll
 0004:0000011c       __imp_?_Getcat@?$codecvt@DDU_Mbstatet@@@std@@SAIPAPBVfacet@locale@2@PBV42@@Z 0045311c     msvcprtd:MSVCP140D.dll
 0004:00000120       __imp_??0?$basic_streambuf@DU?$char_traits@D@std@@@std@@IAE@XZ 00453120     msvcprtd:MSVCP140D.dll
 0004:00000124       __imp_??1?$basic_streambuf@DU?$char_traits@D@std@@@std@@UAE@XZ 00453124     msvcprtd:MSVCP140D.dll
 0004:00000128       __imp_?getloc@?$basic_streambuf@DU?$char_traits@D@std@@@std@@QBE?AVlocale@2@XZ 00453128     msvcprtd:MSVCP140D.dll
 0004:0000012c       __imp_?eback@?$basic_streambuf@DU?$char_traits@D@std@@@std@@IBEPADXZ 0045312c     msvcprtd:MSVCP140D.dll
 0004:00000130       __imp_?gptr@?$basic_streambuf@DU?$char_traits@D@std@@@std@@IBEPADXZ 00453130     msvcprtd:MSVCP140D.dll
 0004:00000134       __imp_?pptr@?$basic_streambuf@DU?$char_traits@D@std@@@std@@IBEPADXZ 00453134     msvcprtd:MSVCP140D.dll
 0004:00000138       __imp_?egptr@?$basic_streambuf@DU?$char_traits@D@std@@@std@@IBEPADXZ 00453138     msvcprtd:MSVCP140D.dll
 0004:0000013c       __imp_?gbump@?$basic_streambuf@DU?$char_traits@D@std@@@std@@IAEXH@Z 0045313c     msvcprtd:MSVCP140D.dll
 0004:00000140       __imp_?setg@?$basic_streambuf@DU?$char_traits@D@std@@@std@@IAEXPAD00@Z 00453140     msvcprtd:MSVCP140D.dll
 0004:00000144       __imp_?epptr@?$basic_streambuf@DU?$char_traits@D@std@@@std@@IBEPADXZ 00453144     msvcprtd:MSVCP140D.dll
 0004:00000148       __imp_?_Gndec@?$basic_streambuf@DU?$char_traits@D@std@@@std@@IAEPADXZ 00453148     msvcprtd:MSVCP140D.dll
 0004:0000014c       __imp_?_Gninc@?$basic_streambuf@DU?$char_traits@D@std@@@std@@IAEPADXZ 0045314c     msvcprtd:MSVCP140D.dll
 0004:00000150       __imp_?_Gnavail@?$basic_streambuf@DU?$char_traits@D@std@@@std@@IBE_JXZ 00453150     msvcprtd:MSVCP140D.dll
 0004:00000154       __imp_?pbump@?$basic_streambuf@DU?$char_traits@D@std@@@std@@IAEXH@Z 00453154     msvcprtd:MSVCP140D.dll
 0004:00000158       __imp_?_Pninc@?$basic_streambuf@DU?$char_traits@D@std@@@std@@IAEPADXZ 00453158     msvcprtd:MSVCP140D.dll
 0004:0000015c       __imp_?_Pnavail@?$basic_streambuf@DU?$char_traits@D@std@@@std@@IBE_JXZ 0045315c     msvcprtd:MSVCP140D.dll
 0004:00000160       __imp_?_Init@?$basic_streambuf@DU?$char_traits@D@std@@@std@@IAEXXZ 00453160     msvcprtd:MSVCP140D.dll
 0004:00000164       __imp_?_Init@?$basic_streambuf@DU?$char_traits@D@std@@@std@@IAEXPAPAD0PAH001@Z 00453164     msvcprtd:MSVCP140D.dll
 0004:00000168       __imp_?xsgetn@?$basic_streambuf@DU?$char_traits@D@std@@@std@@MAE_JPAD_J@Z 00453168     msvcprtd:MSVCP140D.dll
 0004:0000016c       __imp_?xsputn@?$basic_streambuf@DU?$char_traits@D@std@@@std@@MAE_JPBD_J@Z 0045316c     msvcprtd:MSVCP140D.dll
 0004:00000170       __imp_??1?$basic_ios@DU?$char_traits@D@std@@@std@@UAE@XZ 00453170     msvcprtd:MSVCP140D.dll
 0004:00000174       __imp_?clear@?$basic_ios@DU?$char_traits@D@std@@@std@@QAEXH_N@Z 00453174     msvcprtd:MSVCP140D.dll
 0004:00000178       __imp_??0?$basic_ios@DU?$char_traits@D@std@@@std@@IAE@XZ 00453178     msvcprtd:MSVCP140D.dll
 0004:0000017c       __imp_??0?$basic_ostream@DU?$char_traits@D@std@@@std@@QAE@PAV?$basic_streambuf@DU?$char_traits@D@std@@@1@_N@Z 0045317c     msvcprtd:MSVCP140D.dll
 0004:00000180       __imp_??1?$basic_ostream@DU?$char_traits@D@std@@@std@@UAE@XZ 00453180     msvcprtd:MSVCP140D.dll
 0004:00000184       __imp_?_Fiopen@std@@YAPAU_iobuf@@PBDHH@Z 00453184     msvcprtd:MSVCP140D.dll
 0004:00000188       __imp_?showmanyc@?$basic_streambuf@DU?$char_traits@D@std@@@std@@MAE_JXZ 00453188     msvcprtd:MSVCP140D.dll
 0004:0000018c       __imp_?id@?$codecvt@DDU_Mbstatet@@@std@@2V0locale@2@A 0045318c     msvcprtd:MSVCP140D.dll
 0004:00000190       __imp___Query_perf_counter 00453190     msvcprtd:MSVCP140D.dll
 0004:00000194       __imp___Query_perf_frequency 00453194     msvcprtd:MSVCP140D.dll
 0004:00000198       __imp_??6?$basic_ostream@DU?$char_traits@D@std@@@std@@QAEAAV01@H@Z 00453198     msvcprtd:MSVCP140D.dll
 0004:0000019c       __imp_?_Xinvalid_argument@std@@YAXPBD@Z 0045319c     msvcprtd:MSVCP140D.dll
 0004:000001a0       __imp_??Bios_base@std@@QBE_NXZ 004531a0     msvcprtd:MSVCP140D.dll
 0004:000001a4       __imp_?sbumpc@?$basic_streambuf@DU?$char_traits@D@std@@@std@@QAEHXZ 004531a4     msvcprtd:MSVCP140D.dll
 0004:000001a8       __imp_?sgetc@?$basic_streambuf@DU?$char_traits@D@std@@@std@@QAEHXZ 004531a8     msvcprtd:MSVCP140D.dll
 0004:000001ac       __imp_?snextc@?$basic_streambuf@DU?$char_traits@D@std@@@std@@QAEHXZ 004531ac     msvcprtd:MSVCP140D.dll
 0004:000001b0       __imp_??0?$basic_istream@DU?$char_traits@D@std@@@std@@QAE@PAV?$basic_streambuf@DU?$char_traits@D@std@@@1@_N@Z 004531b0     msvcprtd:MSVCP140D.dll
 0004:000001b4       __imp_??1?$basic_istream@DU?$char_traits@D@std@@@std@@UAE@XZ 004531b4     msvcprtd:MSVCP140D.dll
 0004:000001b8       __imp_?_Ipfx@?$basic_istream@DU?$char_traits@D@std@@@std@@QAE_N_N@Z 004531b8     msvcprtd:MSVCP140D.dll
 0004:000001bc       \177MSVCP140D_NULL_THUNK_DATA 004531bc     msvcprtd:MSVCP140D.dll
 0004:0000021c       __imp__SDL_SetMainReady    0045321c     SDL2:SDL2.dll
 0004:00000220       __imp__SDL_UpperBlitScaled 00453220     SDL2:SDL2.dll
 0004:00000224       __imp__SDL_SetClipRect     00453224     SDL2:SDL2.dll
 0004:00000228       __imp__SDL_Quit            00453228     SDL2:SDL2.dll
 0004:0000022c       __imp__SDL_Init            0045322c     SDL2:SDL2.dll
 0004:00000230       __imp__SDL_GetTicks        00453230     SDL2:SDL2.dll
 0004:00000234       __imp__SDL_RenderPresent   00453234     SDL2:SDL2.dll
 0004:00000238       __imp__SDL_ShowSimpleMessageBox 00453238     SDL2:SDL2.dll
 0004:0000023c       __imp__SDL_RenderCopy      0045323c     SDL2:SDL2.dll
 0004:00000240       __imp__SDL_UpdateTexture   00453240     SDL2:SDL2.dll
 0004:00000244       __imp__SDL_CreateTexture   00453244     SDL2:SDL2.dll
 0004:00000248       __imp__SDL_CreateRenderer  00453248     SDL2:SDL2.dll
 0004:0000024c       __imp__SDL_WaitEvent       0045324c     SDL2:SDL2.dll
 0004:00000250       __imp__SDL_PollEvent       00453250     SDL2:SDL2.dll
 0004:00000254       __imp__SDL_CreateWindow    00453254     SDL2:SDL2.dll
 0004:00000258       __imp__SDL_GetError        00453258     SDL2:SDL2.dll
 0004:0000025c       __imp__SDL_FillRect        0045325c     SDL2:SDL2.dll
 0004:00000260       __imp__SDL_UnlockSurface   00453260     SDL2:SDL2.dll
 0004:00000264       __imp__SDL_LockSurface     00453264     SDL2:SDL2.dll
 0004:00000268       __imp__SDL_UpperBlit       00453268     SDL2:SDL2.dll
 0004:0000026c       __imp__SDL_FreeSurface     0045326c     SDL2:SDL2.dll
 0004:00000270       __imp__SDL_CreateRGBSurface 00453270     SDL2:SDL2.dll
 0004:00000274       \177SDL2_NULL_THUNK_DATA   00453274     SDL2:SDL2.dll
 0004:000002b0       __imp__IMG_Load            004532b0     SDL2_image:SDL2_image.dll
 0004:000002b4       \177SDL2_image_NULL_THUNK_DATA 004532b4     SDL2_image:SDL2_image.dll
 0004:000002e0       __imp__TTF_Init            004532e0     SDL2_ttf:SDL2_ttf.dll
 0004:000002e4       __imp__TTF_Quit            004532e4     SDL2_ttf:SDL2_ttf.dll
 0004:000002e8       __imp__TTF_OpenFont        004532e8     SDL2_ttf:SDL2_ttf.dll
 0004:000002ec       __imp__TTF_CloseFont       004532ec     SDL2_ttf:SDL2_ttf.dll
 0004:000002f0       __imp__TTF_RenderText_Solid 004532f0     SDL2_ttf:SDL2_ttf.dll
 0004:000002f4       \177SDL2_ttf_NULL_THUNK_DATA 004532f4     SDL2_ttf:SDL2_ttf.dll
 0004:00000324       __imp__memcpy              00453324     vcruntimed:VCRUNTIME140D.dll
 0004:00000328       __imp__memcmp              00453328     vcruntimed:VCRUNTIME140D.dll
 0004:0000032c       __imp__memset              0045332c     vcruntimed:VCRUNTIME140D.dll
 0004:00000330       __imp____std_exception_copy 00453330     vcruntimed:VCRUNTIME140D.dll
 0004:00000334       __imp____std_exception_destroy 00453334     vcruntimed:VCRUNTIME140D.dll
 0004:00000338       __imp____CxxFrameHandler3  00453338     vcruntimed:VCRUNTIME140D.dll
 0004:0000033c       __imp___purecall           0045333c     vcruntimed:VCRUNTIME140D.dll
 0004:00000340       __imp____current_exception 00453340     vcruntimed:VCRUNTIME140D.dll
 0004:00000344       __imp____current_exception_context 00453344     vcruntimed:VCRUNTIME140D.dll
 0004:00000348       __imp____std_type_info_destroy_list 00453348     vcruntimed:VCRUNTIME140D.dll
 0004:0000034c       __imp___except_handler4_common 0045334c     vcruntimed:VCRUNTIME140D.dll
 0004:00000350       __imp__memmove             00453350     vcruntimed:VCRUNTIME140D.dll
 0004:00000354       __imp___CxxThrowException@8 00453354     vcruntimed:VCRUNTIME140D.dll
 0004:00000358       \177VCRUNTIME140D_NULL_THUNK_DATA 00453358     vcruntimed:VCRUNTIME140D.dll
 0004:0000038c       __imp__strcmp              0045338c     ucrtd:ucrtbased.dll
 0004:00000390       __imp__strcpy              00453390     ucrtd:ucrtbased.dll
 0004:00000394       __imp___errno              00453394     ucrtd:ucrtbased.dll
 0004:00000398       __imp__strtol              00453398     ucrtd:ucrtbased.dll
 0004:0000039c       __imp___free_dbg           0045339c     ucrtd:ucrtbased.dll
 0004:000003a0       __imp___malloc_dbg         004533a0     ucrtd:ucrtbased.dll
 0004:000003a4       __imp___seh_filter_exe     004533a4     ucrtd:ucrtbased.dll
 0004:000003a8       __imp___set_app_type       004533a8     ucrtd:ucrtbased.dll
 0004:000003ac       __imp____setusermatherr    004533ac     ucrtd:ucrtbased.dll
 0004:000003b0       __imp___configure_narrow_argv 004533b0     ucrtd:ucrtbased.dll
 0004:000003b4       __imp___initialize_narrow_environment 004533b4     ucrtd:ucrtbased.dll
 0004:000003b8       __imp___get_initial_narrow_environment 004533b8     ucrtd:ucrtbased.dll
 0004:000003bc       __imp___initterm           004533bc     ucrtd:ucrtbased.dll
 0004:000003c0       __imp___initterm_e         004533c0     ucrtd:ucrtbased.dll
 0004:000003c4       __imp__exit                004533c4     ucrtd:ucrtbased.dll
 0004:000003c8       __imp___exit               004533c8     ucrtd:ucrtbased.dll
 0004:000003cc       __imp___set_fmode          004533cc     ucrtd:ucrtbased.dll
 0004:000003d0       __imp____p___argc          004533d0     ucrtd:ucrtbased.dll
 0004:000003d4       __imp____p___argv          004533d4     ucrtd:ucrtbased.dll
 0004:000003d8       __imp___cexit              004533d8     ucrtd:ucrtbased.dll
 0004:000003dc       __imp___c_exit             004533dc     ucrtd:ucrtbased.dll
 0004:000003e0       __imp___time64             004533e0     ucrtd:ucrtbased.dll
 0004:000003e4       __imp___configthreadlocale 004533e4     ucrtd:ucrtbased.dll
 0004:000003e8       __imp___set_new_mode       004533e8     ucrtd:ucrtbased.dll
 0004:000003ec       __imp____p__commode        004533ec     ucrtd:ucrtbased.dll
 0004:000003f0       __imp___callnewh           004533f0     ucrtd:ucrtbased.dll
 0004:000003f4       __imp__malloc              004533f4     ucrtd:ucrtbased.dll
 0004:000003f8       __imp___seh_filter_dll     004533f8     ucrtd:ucrtbased.dll
 0004:000003fc       __imp___initialize_onexit_table 004533fc     ucrtd:ucrtbased.dll
 0004:00000400       __imp___register_onexit_function 00453400     ucrtd:ucrtbased.dll
 0004:00000404       __imp___execute_onexit_table 00453404     ucrtd:ucrtbased.dll
 0004:00000408       __imp___crt_atexit         00453408     ucrtd:ucrtbased.dll
 0004:0000040c       __imp___crt_at_quick_exit  0045340c     ucrtd:ucrtbased.dll
 0004:00000410       __imp__terminate           00453410     ucrtd:ucrtbased.dll
 0004:00000414       __imp___CrtDbgReportW      00453414     ucrtd:ucrtbased.dll
 0004:00000418       __imp___controlfp_s        00453418     ucrtd:ucrtbased.dll
 0004:0000041c       __imp__srand               0045341c     ucrtd:ucrtbased.dll
 0004:00000420       __imp__atan                00453420     ucrtd:ucrtbased.dll
 0004:00000424       __imp__strlen              00453424     ucrtd:ucrtbased.dll
 0004:00000428       __imp____stdio_common_vfprintf 00453428     ucrtd:ucrtbased.dll
 0004:0000042c       __imp____acrt_iob_func     0045342c     ucrtd:ucrtbased.dll
 0004:00000430       __imp__rand                00453430     ucrtd:ucrtbased.dll
 0004:00000434       __imp___CrtDbgReport       00453434     ucrtd:ucrtbased.dll
 0004:00000438       __imp___invalid_parameter  00453438     ucrtd:ucrtbased.dll
 0004:0000043c       __imp__puts                0045343c     ucrtd:ucrtbased.dll
 0004:00000440       __imp__free                00453440     ucrtd:ucrtbased.dll
 0004:00000444       __imp___CrtDumpMemoryLeaks 00453444     ucrtd:ucrtbased.dll
 0004:00000448       __imp__sqrt                00453448     ucrtd:ucrtbased.dll
 0004:0000044c       __imp____stdio_common_vsprintf 0045344c     ucrtd:ucrtbased.dll
 0004:00000450       __imp___unlock_file        00453450     ucrtd:ucrtbased.dll
 0004:00000454       __imp___lock_file          00453454     ucrtd:ucrtbased.dll
 0004:00000458       __imp__ungetc              00453458     ucrtd:ucrtbased.dll
 0004:0000045c       __imp__setvbuf             0045345c     ucrtd:ucrtbased.dll
 0004:00000460       __imp__fwrite              00453460     ucrtd:ucrtbased.dll
 0004:00000464       __imp___fseeki64           00453464     ucrtd:ucrtbased.dll
 0004:00000468       __imp__fsetpos             00453468     ucrtd:ucrtbased.dll
 0004:0000046c       __imp__fread               0045346c     ucrtd:ucrtbased.dll
 0004:00000470       __imp__fputc               00453470     ucrtd:ucrtbased.dll
 0004:00000474       __imp__fgetpos             00453474     ucrtd:ucrtbased.dll
 0004:00000478       __imp__fgetc               00453478     ucrtd:ucrtbased.dll
 0004:0000047c       __imp__fflush              0045347c     ucrtd:ucrtbased.dll
 0004:00000480       __imp__fclose              00453480     ucrtd:ucrtbased.dll
 0004:00000484       __imp___get_stream_buffer_pointers 00453484     ucrtd:ucrtbased.dll
 0004:00000488       __imp__sin                 00453488     ucrtd:ucrtbased.dll
 0004:0000048c       __imp___register_thread_local_exe_atexit_callback 0045348c     ucrtd:ucrtbased.dll
 0004:00000490       __imp__cos                 00453490     ucrtd:ucrtbased.dll
 0004:00000494       \177ucrtbased_NULL_THUNK_DATA 00453494     ucrtd:ucrtbased.dll
 0004:000004f4       __IMPORT_DESCRIPTOR_SDL2   004534f4     SDL2:SDL2.dll
 0004:00000508       __IMPORT_DESCRIPTOR_SDL2_image 00453508     SDL2_image:SDL2_image.dll
 0004:0000051c       __IMPORT_DESCRIPTOR_SDL2_ttf 0045351c     SDL2_ttf:SDL2_ttf.dll
 0004:00000530       __IMPORT_DESCRIPTOR_MSVCP140D 00453530     msvcprtd:MSVCP140D.dll
 0004:00000544       __IMPORT_DESCRIPTOR_VCRUNTIME140D 00453544     vcruntimed:VCRUNTIME140D.dll
 0004:00000558       __IMPORT_DESCRIPTOR_ucrtbased 00453558     ucrtd:ucrtbased.dll
 0004:0000056c       __IMPORT_DESCRIPTOR_KERNEL32 0045356c     kernel32:KERNEL32.dll
 0004:00000580       __NULL_IMPORT_DESCRIPTOR   00453580     SDL2:SDL2.dll
 0005:00000000       __tls_start                00456000     MSVCRTD:tlssup.obj
 0005:00000104       __Init_thread_epoch        00456104     MSVCRTD:thread_safe_statics.obj
 0005:00000208       __tls_end                  00456208     MSVCRTD:tlssup.obj
 0006:00000000       ___guard_check_icall_fptr  00457000     MSVCRTD:guard_support.obj
 0006:00000004       ___guard_xfg_check_icall_fptr 00457004     MSVCRTD:guard_support.obj
 0006:00000008       ___castguard_check_failure_os_handled_fptr 00457008     MSVCRTD:guard_support.obj

 entry point at        0001:000000b4

 Static symbols

 0002:fffbe000       __ehfuncinfo$??$_Deallocate@$07$0A@@std@@YAXPAXI@Z 00400000     BaseEngine.obj
 0002:fffbe000       __ehfuncinfo$??$_Deallocate_plain@V?$allocator@U_Container_proxy@std@@@std@@@std@@YAXAAV?$allocator@U_Container_proxy@std@@@0@QAU_Container_proxy@0@@Z 00400000     BaseEngine.obj
 0001:fffff000       __ehhandler$??$_Deallocate@$07$0A@@std@@YAXPAXI@Z 00400000 f   BaseEngine.obj
 0001:fffff000       __ehhandler$??$_Deallocate_plain@V?$allocator@U_Container_proxy@std@@@std@@@std@@YAXAAV?$allocator@U_Container_proxy@std@@@0@QAU_Container_proxy@0@@Z 00400000 f   BaseEngine.obj
 0001:fffff000       __unwindfunclet$??$_Uninitialized_value_construct_n@V?$allocator@PAVDisplayableObject@@@std@@@std@@YAPAPAVDisplayableObject@@PAPAV1@IAAV?$allocator@PAVDisplayableObject@@@0@@Z$0 00400000 f   BaseEngine.obj
 0002:fffbe000       __unwindtable$??$_Uninitialized_value_construct_n@V?$allocator@PAVDisplayableObject@@@std@@@std@@YAPAPAVDisplayableObject@@PAPAV1@IAAV?$allocator@PAVDisplayableObject@@@0@@Z 00400000     BaseEngine.obj
 0000:00000000       _volmd                     00400000     BaseEngine.obj
 0000:00000000       _volmd                     00400000     BaseEngine.obj
 0000:00000000       _volmd                     00400000     BaseEngine.obj
 0000:00000000       _volmd                     00400000     BaseEngine.obj
 0000:00000000       _volmd                     00400000     BaseEngine.obj
 0000:00000000       _volmd                     00400000     BaseEngine.obj
 0000:00000000       _volmd                     00400000     BaseEngine.obj
 0000:00000000       _volmd                     00400000     BaseEngine.obj
 0000:00000000       _volmd                     00400000     BaseEngine.obj
 0000:00000000       _volmd                     00400000     BaseEngine.obj
 0000:00000000       _volmd                     00400000     BaseEngine.obj
 0000:00000000       _volmd                     00400000     BaseEngine.obj
 0000:00000000       _volmd                     00400000     BaseEngine.obj
 0002:fffbe000       __catchsym$??$?6U?$char_traits@D@std@@@std@@YAAAV?$basic_ostream@DU?$char_traits@D@std@@@0@AAV10@PBD@Z$3 00400000     BouncingBall.obj
 0002:fffbe000       __ehfuncinfo$??1_Sentry_base@?$basic_ostream@DU?$char_traits@D@std@@@std@@QAE@XZ 00400000     BouncingBall.obj
 0002:fffbe000       __ehfuncinfo$??1sentry@?$basic_ostream@DU?$char_traits@D@std@@@std@@QAE@XZ 00400000     BouncingBall.obj
 0001:fffff000       __ehhandler$??1_Sentry_base@?$basic_ostream@DU?$char_traits@D@std@@@std@@QAE@XZ 00400000 f   BouncingBall.obj
 0001:fffff000       __ehhandler$??1sentry@?$basic_ostream@DU?$char_traits@D@std@@@std@@QAE@XZ 00400000 f   BouncingBall.obj
 0001:fffff000       __unwindfunclet$??$?6U?$char_traits@D@std@@@std@@YAAAV?$basic_ostream@DU?$char_traits@D@std@@@0@AAV10@PBD@Z$2 00400000 f   BouncingBall.obj
 0001:fffff000       __unwindfunclet$??0sentry@?$basic_ostream@DU?$char_traits@D@std@@@std@@QAE@AAV12@@Z$0 00400000 f   BouncingBall.obj
 0002:fffbe000       __unwindtable$??0sentry@?$basic_ostream@DU?$char_traits@D@std@@@std@@QAE@AAV12@@Z 00400000     BouncingBall.obj
 0000:00000000       _volmd                     00400000     BouncingBall.obj
 0000:00000000       _volmd                     00400000     BouncingBall.obj
 0000:00000000       _volmd                     00400000     BouncingBall.obj
 0000:00000000       _volmd                     00400000     BouncingBall.obj
 0000:00000000       _volmd                     00400000     BouncingBall.obj
 0002:fffbe000       __catchsym$??$?6U?$char_traits@D@std@@@std@@YAAAV?$basic_ostream@DU?$char_traits@D@std@@@0@AAV10@PBD@Z$3 00400000     BouncingBallMain.obj
 0002:fffbe000       __catchsym$??$_Resize_reallocate@U_Value_init_tag@std@@@?$vector@PAVDisplayableObject@@V?$allocator@PAVDisplayableObject@@@std@@@std@@AAEXIABU_Value_init_tag@1@@Z$2 00400000     BouncingBallMain.obj
 0002:fffbe000       __ehfuncinfo$??$_Deallocate@$07$0A@@std@@YAXPAXI@Z 00400000     BouncingBallMain.obj
 0002:fffbe000       __ehfuncinfo$??1_Sentry_base@?$basic_ostream@DU?$char_traits@D@std@@@std@@QAE@XZ 00400000     BouncingBallMain.obj
 0002:fffbe000       __ehfuncinfo$??1sentry@?$basic_ostream@DU?$char_traits@D@std@@@std@@QAE@XZ 00400000     BouncingBallMain.obj
 0001:fffff000       __ehhandler$??$_Deallocate@$07$0A@@std@@YAXPAXI@Z 00400000 f   BouncingBallMain.obj
 0001:fffff000       __ehhandler$??$_Resize_reallocate@U_Value_init_tag@std@@@?$vector@PAVDisplayableObject@@V?$allocator@PAVDisplayableObject@@@std@@@std@@AAEXIABU_Value_init_tag@1@@Z 00400000 f   BouncingBallMain.obj
 0001:fffff000       __ehhandler$??1_Sentry_base@?$basic_ostream@DU?$char_traits@D@std@@@std@@QAE@XZ 00400000 f   BouncingBallMain.obj
 0001:fffff000       __ehhandler$??1sentry@?$basic_ostream@DU?$char_traits@D@std@@@std@@QAE@XZ 00400000 f   BouncingBallMain.obj
 0001:fffff000       __unwindfunclet$??$?6U?$char_traits@D@std@@@std@@YAAAV?$basic_ostream@DU?$char_traits@D@std@@@0@AAV10@PBD@Z$2 00400000 f   BouncingBallMain.obj
 0001:fffff000       __unwindfunclet$??$_Uninitialized_move@PAPAVDisplayableObject@@V?$allocator@PAVDisplayableObject@@@std@@@std@@YAPAPAVDisplayableObject@@QAPAV1@0PAPAV1@AAV?$allocator@PAVDisplayableObject@@@0@@Z$0 00400000 f   BouncingBallMain.obj
 0001:fffff000       __unwindfunclet$??$_Uninitialized_value_construct_n@V?$allocator@PAVDisplayableObject@@@std@@@std@@YAPAPAVDisplayableObject@@PAPAV1@IAAV?$allocator@PAVDisplayableObject@@@0@@Z$0 00400000 f   BouncingBallMain.obj
 0001:fffff000       __unwindfunclet$??0sentry@?$basic_ostream@DU?$char_traits@D@std@@@std@@QAE@AAV12@@Z$0 00400000 f   BouncingBallMain.obj
 0001:fffff000       __unwindfunclet$?_Orphan_range_locked@?$vector@PAVDisplayableObject@@V?$allocator@PAVDisplayableObject@@@std@@@std@@ABEXPAPAVDisplayableObject@@0@Z$0 00400000 f   BouncingBallMain.obj
 0002:fffbe000       __unwindtable$??$_Uninitialized_move@PAPAVDisplayableObject@@V?$allocator@PAVDisplayableObject@@@std@@@std@@YAPAPAVDisplayableObject@@QAPAV1@0PAPAV1@AAV?$allocator@PAVDisplayableObject@@@0@@Z 00400000     BouncingBallMain.obj
 0002:fffbe000       __unwindtable$??$_Uninitialized_value_construct_n@V?$allocator@PAVDisplayableObject@@@std@@@std@@YAPAPAVDisplayableObject@@PAPAV1@IAAV?$allocator@PAVDisplayableObject@@@0@@Z 00400000     BouncingBallMain.obj
 0002:fffbe000       __unwindtable$??0sentry@?$basic_ostream@DU?$char_traits@D@std@@@std@@QAE@AAV12@@Z 00400000     BouncingBallMain.obj
 0002:fffbe000       __unwindtable$?_Orphan_range_locked@?$vector@PAVDisplayableObject@@V?$allocator@PAVDisplayableObject@@@std@@@std@@ABEXPAPAVDisplayableObject@@0@Z 00400000     BouncingBallMain.obj
 0000:00000000       _volmd                     00400000     BouncingBallMain.obj
 0000:00000000       _volmd                     00400000     BouncingBallMain.obj
 0000:00000000       _volmd                     00400000     BouncingBallMain.obj
 0000:00000000       _volmd                     00400000     BouncingBallMain.obj
 0000:00000000       _volmd                     00400000     BouncingBallMain.obj
 0000:00000000       _volmd                     00400000     BouncingBallMain.obj
 0000:00000000       _volmd                     00400000     BouncingBallMain.obj
 0000:00000000       _volmd                     00400000     BouncingBallMain.obj
 0000:00000000       _volmd                     00400000     BouncingBallMain.obj
 0000:00000000       _volmd                     00400000     BouncingBallMain.obj
 0000:00000000       _volmd                     00400000     BouncingBallMain.obj
 0000:00000000       _volmd                     00400000     BouncingBallMain.obj
 0000:00000000       _volmd                     00400000     BouncingBallMain.obj
 0000:00000000       _volmd                     00400000     BouncingBallMain.obj
 0000:00000000       _volmd                     00400000     BouncingBallMain.obj
 0002:fffbe000       __catchsym$??$?6U?$char_traits@D@std@@@std@@YAAAV?$basic_ostream@DU?$char_traits@D@std@@@0@AAV10@PBD@Z$3 00400000     DisplayableObject.obj
 0002:fffbe000       __ehfuncinfo$??1_Sentry_base@?$basic_ostream@DU?$char_traits@D@std@@@std@@QAE@XZ 00400000     DisplayableObject.obj
 0002:fffbe000       __ehfuncinfo$??1sentry@?$basic_ostream@DU?$char_traits@D@std@@@std@@QAE@XZ 00400000     DisplayableObject.obj
 0001:fffff000       __ehhandler$??1_Sentry_base@?$basic_ostream@DU?$char_traits@D@std@@@std@@QAE@XZ 00400000 f   DisplayableObject.obj
 0001:fffff000       __ehhandler$??1sentry@?$basic_ostream@DU?$char_traits@D@std@@@std@@QAE@XZ 00400000 f   DisplayableObject.obj
 0001:fffff000       __unwindfunclet$??$?6U?$char_traits@D@std@@@std@@YAAAV?$basic_ostream@DU?$char_traits@D@std@@@0@AAV10@PBD@Z$2 00400000 f   DisplayableObject.obj
 0001:fffff000       __unwindfunclet$??0sentry@?$basic_ostream@DU?$char_traits@D@std@@@std@@QAE@AAV12@@Z$0 00400000 f   DisplayableObject.obj
 0002:fffbe000       __unwindtable$??0sentry@?$basic_ostream@DU?$char_traits@D@std@@@std@@QAE@AAV12@@Z 00400000     DisplayableObject.obj
 0000:00000000       _volmd                     00400000     DisplayableObject.obj
 0000:00000000       _volmd                     00400000     DisplayableObject.obj
 0000:00000000       _volmd                     00400000     DisplayableObject.obj
 0000:00000000       _volmd                     00400000     DisplayableObject.obj
 0000:00000000       _volmd                     00400000     DraggingDemo.obj
 0000:00000000       _volmd                     00400000     DraggingDemo.obj
 0000:00000000       _volmd                     00400000     DraggingDemo.obj
 0000:00000000       _volmd                     00400000     DraggingDemo.obj
 0000:00000000       _volmd                     00400000     DraggingDemo.obj
 0000:00000000       _volmd                     00400000     DraggingDemo.obj
 0000:00000000       _volmd                     00400000     DraggingDemo.obj
 0000:00000000       _volmd                     00400000     DraggingDemo.obj
 0000:00000000       _volmd                     00400000     DraggingDemo.obj
 0000:00000000       _volmd                     00400000     DraggingDemo.obj
 0000:00000000       _volmd                     00400000     DraggingDemo.obj
 0000:00000000       _volmd                     00400000     DraggingDemo.obj
 0000:00000000       _volmd                     00400000     DraggingDemo.obj
 0000:00000000       _volmd                     00400000     DraggingDemo.obj
 0000:00000000       _volmd                     00400000     DraggingDemo.obj
 0000:00000000       _volmd                     00400000     DraggingDemo.obj
 0000:00000000       _volmd                     00400000     DraggingDemo.obj
 0000:00000000       _volmd                     00400000     DraggingDemo.obj
 0000:00000000       _volmd                     00400000     DraggingDemo.obj
 0000:00000000       _volmd                     00400000     DraggingDemo.obj
 0000:00000000       _volmd                     00400000     DraggingDemo.obj
 0000:00000000       _volmd                     00400000     DraggingDemo.obj
 0000:00000000       _volmd                     00400000     DraggingDemo.obj
 0000:00000000       _volmd                     00400000     DraggingDemo.obj
 0000:00000000       _volmd                     00400000     DraggingDemo.obj
 0000:00000000       _volmd                     00400000     DraggingDemo.obj
 0000:00000000       _volmd                     00400000     DraggingDemo.obj
 0000:00000000       _volmd                     00400000     DraggingDemo.obj
 0000:00000000       _volmd                     00400000     DraggingDemo.obj
 0000:00000000       _volmd                     00400000     DraggingDemo.obj
 0000:00000000       _volmd                     00400000     DraggingDemo.obj
 0000:00000000       _volmd                     00400000     DraggingDemo.obj
 0000:00000000       _volmd                     00400000     DraggingDemo.obj
 0000:00000000       _volmd                     00400000     DraggingDemo.obj
 0000:00000000       _volmd                     00400000     DraggingDemo.obj
 0000:00000000       _volmd                     00400000     DraggingDemo.obj
 0000:00000000       _volmd                     00400000     DraggingDemo.obj
 0000:00000000       _volmd                     00400000     DraggingDemo.obj
 0000:00000000       _volmd                     00400000     DraggingDemo.obj
 0000:00000000       _volmd                     00400000     DraggingDemo.obj
 0000:00000000       _volmd                     00400000     DraggingDemo.obj
 0000:00000000       _volmd                     00400000     DraggingDemo.obj
 0000:00000000       _volmd                     00400000     DraggingDemo.obj
 0000:00000000       _volmd                     00400000     DraggingDemo.obj
 0000:00000000       _volmd                     00400000     DraggingDemo.obj
 0000:00000000       _volmd                     00400000     DraggingDemo.obj
 0002:fffbe000       __catchsym$??$?6U?$char_traits@D@std@@@std@@YAAAV?$basic_ostream@DU?$char_traits@D@std@@@0@AAV10@PBD@Z$3 00400000     DrawingSurface.obj
 0002:fffbe000       __ehfuncinfo$??1_Sentry_base@?$basic_ostream@DU?$char_traits@D@std@@@std@@QAE@XZ 00400000     DrawingSurface.obj
 0002:fffbe000       __ehfuncinfo$??1sentry@?$basic_ostream@DU?$char_traits@D@std@@@std@@QAE@XZ 00400000     DrawingSurface.obj
 0001:fffff000       __ehhandler$??1_Sentry_base@?$basic_ostream@DU?$char_traits@D@std@@@std@@QAE@XZ 00400000 f   DrawingSurface.obj
 0001:fffff000       __ehhandler$??1sentry@?$basic_ostream@DU?$char_traits@D@std@@@std@@QAE@XZ 00400000 f   DrawingSurface.obj
 0001:fffff000       __unwindfunclet$??$?6U?$char_traits@D@std@@@std@@YAAAV?$basic_ostream@DU?$char_traits@D@std@@@0@AAV10@PBD@Z$2 00400000 f   DrawingSurface.obj
 0001:fffff000       __unwindfunclet$??0sentry@?$basic_ostream@DU?$char_traits@D@std@@@std@@QAE@AAV12@@Z$0 00400000 f   DrawingSurface.obj
 0002:fffbe000       __unwindtable$??0sentry@?$basic_ostream@DU?$char_traits@D@std@@@std@@QAE@AAV12@@Z 00400000     DrawingSurface.obj
 0000:00000000       _volmd                     00400000     DrawingSurface.obj
 0000:00000000       _volmd                     00400000     DrawingSurface.obj
 0000:00000000       _volmd                     00400000     DrawingSurface.obj
 0000:00000000       _volmd                     00400000     DrawingSurface.obj
 0000:00000000       _volmd                     00400000     DrawingSurface.obj
 0002:fffbe000       __catchsym$??$?6U?$char_traits@D@std@@@std@@YAAAV?$basic_ostream@DU?$char_traits@D@std@@@0@AAV10@PBD@Z$3 00400000     FlashingDemo.obj
 0002:fffbe000       __ehfuncinfo$??1_Sentry_base@?$basic_ostream@DU?$char_traits@D@std@@@std@@QAE@XZ 00400000     FlashingDemo.obj
 0002:fffbe000       __ehfuncinfo$??1sentry@?$basic_ostream@DU?$char_traits@D@std@@@std@@QAE@XZ 00400000     FlashingDemo.obj
 0001:fffff000       __ehhandler$??1_Sentry_base@?$basic_ostream@DU?$char_traits@D@std@@@std@@QAE@XZ 00400000 f   FlashingDemo.obj
 0001:fffff000       __ehhandler$??1sentry@?$basic_ostream@DU?$char_traits@D@std@@@std@@QAE@XZ 00400000 f   FlashingDemo.obj
 0001:fffff000       __unwindfunclet$??$?6U?$char_traits@D@std@@@std@@YAAAV?$basic_ostream@DU?$char_traits@D@std@@@0@AAV10@PBD@Z$2 00400000 f   FlashingDemo.obj
 0001:fffff000       __unwindfunclet$??0sentry@?$basic_ostream@DU?$char_traits@D@std@@@std@@QAE@AAV12@@Z$0 00400000 f   FlashingDemo.obj
 0002:fffbe000       __unwindtable$??0sentry@?$basic_ostream@DU?$char_traits@D@std@@@std@@QAE@AAV12@@Z 00400000     FlashingDemo.obj
 0000:00000000       _volmd                     00400000     FlashingDemo.obj
 0000:00000000       _volmd                     00400000     FlashingDemo.obj
 0000:00000000       _volmd                     00400000     FlashingDemo.obj
 0000:00000000       _volmd                     00400000     FlashingDemo.obj
 0000:00000000       _volmd                     00400000     FlashingDemo.obj
 0000:00000000       _volmd                     00400000     FlashingDemo.obj
 0000:00000000       _volmd                     00400000     FontManager.obj
 0000:00000000       _volmd                     00400000     HSObjectL.obj
 0000:00000000       _volmd                     00400000     HSObjectR.obj
 0002:fffbe000       __catchsym$??$?6U?$char_traits@D@std@@@std@@YAAAV?$basic_ostream@DU?$char_traits@D@std@@@0@AAV10@PBD@Z$3 00400000     ImageMappingDemo.obj
 0002:fffbe000       __catchsym$??$_Insert_string@DU?$char_traits@D@std@@I@std@@YAAAV?$basic_ostream@DU?$char_traits@D@std@@@0@AAV10@QBDI@Z$3 00400000     ImageMappingDemo.obj
 0002:fffbe000       __catchsym$??$_Resize_reallocate@U_Value_init_tag@std@@@?$vector@PAVDisplayableObject@@V?$allocator@PAVDisplayableObject@@@std@@@std@@AAEXIABU_Value_init_tag@1@@Z$2 00400000     ImageMappingDemo.obj
 0002:fffbe000       __ehfuncinfo$??$_Deallocate@$07$0A@@std@@YAXPAXI@Z 00400000     ImageMappingDemo.obj
 0002:fffbe000       __ehfuncinfo$??$_Deallocate_plain@V?$allocator@U_Container_proxy@std@@@std@@@std@@YAXAAV?$allocator@U_Container_proxy@std@@@0@QAU_Container_proxy@0@@Z 00400000     ImageMappingDemo.obj
 0002:fffbe000       __ehfuncinfo$??$_Freenode0@V?$allocator@U?$_Tree_node@U?$pair@$$CBV?$basic_string@DU?$char_traits@D@std@@V?$allocator@D@2@@std@@V?$weak_ptr@VRawImageData@@@2@@std@@PAX@std@@@std@@@?$_Tree_node@U?$pair@$$CBV?$basic_string@DU?$char_traits@D@std@@V?$allocator@D@2@@std@@V?$weak_ptr@VRawImageData@@@2@@std@@PAX@std@@SAXAAV?$allocator@U?$_Tree_node@U?$pair@$$CBV?$basic_string@DU?$char_traits@D@std@@V?$allocator@D@2@@std@@V?$weak_ptr@VRawImageData@@@2@@std@@PAX@std@@@1@PAU01@@Z 00400000     ImageMappingDemo.obj
 0002:fffbe000       __ehfuncinfo$??$_Freenode@V?$allocator@U?$_Tree_node@U?$pair@$$CBV?$basic_string@DU?$char_traits@D@std@@V?$allocator@D@2@@std@@V?$weak_ptr@VRawImageData@@@2@@std@@PAX@std@@@std@@@?$_Tree_node@U?$pair@$$CBV?$basic_string@DU?$char_traits@D@std@@V?$allocator@D@2@@std@@V?$weak_ptr@VRawImageData@@@2@@std@@PAX@std@@SAXAAV?$allocator@U?$_Tree_node@U?$pair@$$CBV?$basic_string@DU?$char_traits@D@std@@V?$allocator@D@2@@std@@V?$weak_ptr@VRawImageData@@@2@@std@@PAX@std@@@1@PAU01@@Z 00400000     ImageMappingDemo.obj
 0002:fffbe000       __ehfuncinfo$??0?$basic_string@DU?$char_traits@D@std@@V?$allocator@D@2@@std@@QAE@$$QAV01@@Z 00400000     ImageMappingDemo.obj
 0002:fffbe000       __ehfuncinfo$??1?$_Alloc_construct_ptr@V?$allocator@U?$_Tree_node@U?$pair@$$CBV?$basic_string@DU?$char_traits@D@std@@V?$allocator@D@2@@std@@V?$shared_ptr@VRawImageData@@@2@@std@@PAX@std@@@std@@@std@@QAE@XZ 00400000     ImageMappingDemo.obj
 0002:fffbe000       __ehfuncinfo$??1?$_Alloc_construct_ptr@V?$allocator@U?$_Tree_node@U?$pair@$$CBV?$basic_string@DU?$char_traits@D@std@@V?$allocator@D@2@@std@@V?$weak_ptr@VRawImageData@@@2@@std@@PAX@std@@@std@@@std@@QAE@XZ 00400000     ImageMappingDemo.obj
 0002:fffbe000       __ehfuncinfo$??1?$_Tree_temp_node@V?$allocator@U?$_Tree_node@U?$pair@$$CBV?$basic_string@DU?$char_traits@D@std@@V?$allocator@D@2@@std@@V?$shared_ptr@VRawImageData@@@2@@std@@PAX@std@@@std@@@std@@QAE@XZ 00400000     ImageMappingDemo.obj
 0002:fffbe000       __ehfuncinfo$??1?$_Tree_temp_node@V?$allocator@U?$_Tree_node@U?$pair@$$CBV?$basic_string@DU?$char_traits@D@std@@V?$allocator@D@2@@std@@V?$weak_ptr@VRawImageData@@@2@@std@@PAX@std@@@std@@@std@@QAE@XZ 00400000     ImageMappingDemo.obj
 0002:fffbe000       __ehfuncinfo$??1RawImageData@@QAE@XZ 00400000     ImageMappingDemo.obj
 0002:fffbe000       __ehfuncinfo$??1_Sentry_base@?$basic_ostream@DU?$char_traits@D@std@@@std@@QAE@XZ 00400000     ImageMappingDemo.obj
 0002:fffbe000       __ehfuncinfo$??1sentry@?$basic_ostream@DU?$char_traits@D@std@@@std@@QAE@XZ 00400000     ImageMappingDemo.obj
 0002:fffbe000       __ehfuncinfo$?_Take_contents@?$basic_string@DU?$char_traits@D@std@@V?$allocator@D@2@@std@@AAEXAAV12@@Z 00400000     ImageMappingDemo.obj
 0002:fffbe000       __ehfuncinfo$?_Tidy_deallocate@?$basic_string@DU?$char_traits@D@std@@V?$allocator@D@2@@std@@AAEXXZ 00400000     ImageMappingDemo.obj
 0002:fffbe000       __ehfuncinfo$?getImagePtrbyURL@ImageManager@@QAE?AV?$shared_ptr@VRawImageData@@@std@@V?$basic_string@DU?$char_traits@D@std@@V?$allocator@D@2@@3@_N1@Z 00400000     ImageMappingDemo.obj
 0001:fffff000       __ehhandler$??$_Deallocate@$07$0A@@std@@YAXPAXI@Z 00400000 f   ImageMappingDemo.obj
 0001:fffff000       __ehhandler$??$_Deallocate_plain@V?$allocator@U_Container_proxy@std@@@std@@@std@@YAXAAV?$allocator@U_Container_proxy@std@@@0@QAU_Container_proxy@0@@Z 00400000 f   ImageMappingDemo.obj
 0001:fffff000       __ehhandler$??$_Freenode0@V?$allocator@U?$_Tree_node@U?$pair@$$CBV?$basic_string@DU?$char_traits@D@std@@V?$allocator@D@2@@std@@V?$weak_ptr@VRawImageData@@@2@@std@@PAX@std@@@std@@@?$_Tree_node@U?$pair@$$CBV?$basic_string@DU?$char_traits@D@std@@V?$allocator@D@2@@std@@V?$weak_ptr@VRawImageData@@@2@@std@@PAX@std@@SAXAAV?$allocator@U?$_Tree_node@U?$pair@$$CBV?$basic_string@DU?$char_traits@D@std@@V?$allocator@D@2@@std@@V?$weak_ptr@VRawImageData@@@2@@std@@PAX@std@@@1@PAU01@@Z 00400000 f   ImageMappingDemo.obj
 0001:fffff000       __ehhandler$??$_Freenode@V?$allocator@U?$_Tree_node@U?$pair@$$CBV?$basic_string@DU?$char_traits@D@std@@V?$allocator@D@2@@std@@V?$weak_ptr@VRawImageData@@@2@@std@@PAX@std@@@std@@@?$_Tree_node@U?$pair@$$CBV?$basic_string@DU?$char_traits@D@std@@V?$allocator@D@2@@std@@V?$weak_ptr@VRawImageData@@@2@@std@@PAX@std@@SAXAAV?$allocator@U?$_Tree_node@U?$pair@$$CBV?$basic_string@DU?$char_traits@D@std@@V?$allocator@D@2@@std@@V?$weak_ptr@VRawImageData@@@2@@std@@PAX@std@@@1@PAU01@@Z 00400000 f   ImageMappingDemo.obj
 0001:fffff000       __ehhandler$??$_Resize_reallocate@U_Value_init_tag@std@@@?$vector@PAVDisplayableObject@@V?$allocator@PAVDisplayableObject@@@std@@@std@@AAEXIABU_Value_init_tag@1@@Z 00400000 f   ImageMappingDemo.obj
 0001:fffff000       __ehhandler$??0?$basic_string@DU?$char_traits@D@std@@V?$allocator@D@2@@std@@QAE@$$QAV01@@Z 00400000 f   ImageMappingDemo.obj
 0001:fffff000       __ehhandler$??1?$_Alloc_construct_ptr@V?$allocator@U?$_Tree_node@U?$pair@$$CBV?$basic_string@DU?$char_traits@D@std@@V?$allocator@D@2@@std@@V?$shared_ptr@VRawImageData@@@2@@std@@PAX@std@@@std@@@std@@QAE@XZ 00400000 f   ImageMappingDemo.obj
 0001:fffff000       __ehhandler$??1?$_Alloc_construct_ptr@V?$allocator@U?$_Tree_node@U?$pair@$$CBV?$basic_string@DU?$char_traits@D@std@@V?$allocator@D@2@@std@@V?$weak_ptr@VRawImageData@@@2@@std@@PAX@std@@@std@@@std@@QAE@XZ 00400000 f   ImageMappingDemo.obj
 0001:fffff000       __ehhandler$??1?$_Tree_temp_node@V?$allocator@U?$_Tree_node@U?$pair@$$CBV?$basic_string@DU?$char_traits@D@std@@V?$allocator@D@2@@std@@V?$shared_ptr@VRawImageData@@@2@@std@@PAX@std@@@std@@@std@@QAE@XZ 00400000 f   ImageMappingDemo.obj
 0001:fffff000       __ehhandler$??1?$_Tree_temp_node@V?$allocator@U?$_Tree_node@U?$pair@$$CBV?$basic_string@DU?$char_traits@D@std@@V?$allocator@D@2@@std@@V?$weak_ptr@VRawImageData@@@2@@std@@PAX@std@@@std@@@std@@QAE@XZ 00400000 f   ImageMappingDemo.obj
 0001:fffff000       __ehhandler$??1RawImageData@@QAE@XZ 00400000 f   ImageMappingDemo.obj
 0001:fffff000       __ehhandler$??1_Sentry_base@?$basic_ostream@DU?$char_traits@D@std@@@std@@QAE@XZ 00400000 f   ImageMappingDemo.obj
 0001:fffff000       __ehhandler$??1sentry@?$basic_ostream@DU?$char_traits@D@std@@@std@@QAE@XZ 00400000 f   ImageMappingDemo.obj
 0001:fffff000       __ehhandler$?_Take_contents@?$basic_string@DU?$char_traits@D@std@@V?$allocator@D@2@@std@@AAEXAAV12@@Z 00400000 f   ImageMappingDemo.obj
 0001:fffff000       __ehhandler$?_Tidy_deallocate@?$basic_string@DU?$char_traits@D@std@@V?$allocator@D@2@@std@@AAEXXZ 00400000 f   ImageMappingDemo.obj
 0001:fffff000       __unwindfunclet$??$?0U?$pair@V?$basic_string@DU?$char_traits@D@std@@V?$allocator@D@2@@std@@V?$shared_ptr@VRawImageData@@@2@@std@@@?$_Tree_temp_node@V?$allocator@U?$_Tree_node@U?$pair@$$CBV?$basic_string@DU?$char_traits@D@std@@V?$allocator@D@2@@std@@V?$shared_ptr@VRawImageData@@@2@@std@@PAX@std@@@std@@@std@@QAE@AAV?$allocator@U?$_Tree_node@U?$pair@$$CBV?$basic_string@DU?$char_traits@D@std@@V?$allocator@D@2@@std@@V?$shared_ptr@VRawImageData@@@2@@std@@PAX@std@@@1@PAU?$_Tree_node@U?$pair@$$CBV?$basic_string@DU?$char_traits@D@std@@V?$allocator@D@2@@std@@V?$shared_ptr@VRawImageData@@@2@@std@@PAX@1@$$QAU?$pair@V?$basic_string@DU?$char_traits@D@std@@V?$allocator@D@2@@std@@V?$shared_ptr@VRawImageData@@@2@@1@@Z$0 00400000 f   ImageMappingDemo.obj
 0001:fffff000       __unwindfunclet$??$?0U?$pair@V?$basic_string@DU?$char_traits@D@std@@V?$allocator@D@2@@std@@V?$weak_ptr@VRawImageData@@@2@@std@@@?$_Tree_temp_node@V?$allocator@U?$_Tree_node@U?$pair@$$CBV?$basic_string@DU?$char_traits@D@std@@V?$allocator@D@2@@std@@V?$weak_ptr@VRawImageData@@@2@@std@@PAX@std@@@std@@@std@@QAE@AAV?$allocator@U?$_Tree_node@U?$pair@$$CBV?$basic_string@DU?$char_traits@D@std@@V?$allocator@D@2@@std@@V?$weak_ptr@VRawImageData@@@2@@std@@PAX@std@@@1@PAU?$_Tree_node@U?$pair@$$CBV?$basic_string@DU?$char_traits@D@std@@V?$allocator@D@2@@std@@V?$weak_ptr@VRawImageData@@@2@@std@@PAX@1@$$QAU?$pair@V?$basic_string@DU?$char_traits@D@std@@V?$allocator@D@2@@std@@V?$weak_ptr@VRawImageData@@@2@@1@@Z$0 00400000 f   ImageMappingDemo.obj
 0001:fffff000       __unwindfunclet$??$?0VRawImageData@@$0A@@?$shared_ptr@VRawImageData@@@std@@QAE@PAVRawImageData@@@Z$0 00400000 f   ImageMappingDemo.obj
 0001:fffff000       __unwindfunclet$??$?6U?$char_traits@D@std@@@std@@YAAAV?$basic_ostream@DU?$char_traits@D@std@@@0@AAV10@PBD@Z$2 00400000 f   ImageMappingDemo.obj
 0001:fffff000       __unwindfunclet$??$_Construct@$00PBD@?$basic_string@DU?$char_traits@D@std@@V?$allocator@D@2@@std@@AAEXQBDI@Z$0 00400000 f   ImageMappingDemo.obj
 0001:fffff000       __unwindfunclet$??$_Construct@$01PBD@?$basic_string@DU?$char_traits@D@std@@V?$allocator@D@2@@std@@AAEXQBDI@Z$0 00400000 f   ImageMappingDemo.obj
 0001:fffff000       __unwindfunclet$??$_Insert_string@DU?$char_traits@D@std@@I@std@@YAAAV?$basic_ostream@DU?$char_traits@D@std@@@0@AAV10@QBDI@Z$2 00400000 f   ImageMappingDemo.obj
 0001:fffff000       __unwindfunclet$??$_Uninitialized_move@PAPAVDisplayableObject@@V?$allocator@PAVDisplayableObject@@@std@@@std@@YAPAPAVDisplayableObject@@QAPAV1@0PAPAV1@AAV?$allocator@PAVDisplayableObject@@@0@@Z$0 00400000 f   ImageMappingDemo.obj
 0001:fffff000       __unwindfunclet$??$_Uninitialized_value_construct_n@V?$allocator@PAVDisplayableObject@@@std@@@std@@YAPAPAVDisplayableObject@@PAPAV1@IAAV?$allocator@PAVDisplayableObject@@@0@@Z$0 00400000 f   ImageMappingDemo.obj
 0001:fffff000       __unwindfunclet$??0?$_Tree_temp_node_alloc@V?$allocator@U?$_Tree_node@U?$pair@$$CBV?$basic_string@DU?$char_traits@D@std@@V?$allocator@D@2@@std@@V?$shared_ptr@VRawImageData@@@2@@std@@PAX@std@@@std@@@std@@QAE@AAV?$allocator@U?$_Tree_node@U?$pair@$$CBV?$basic_string@DU?$char_traits@D@std@@V?$allocator@D@2@@std@@V?$shared_ptr@VRawImageData@@@2@@std@@PAX@std@@@1@@Z$0 00400000 f   ImageMappingDemo.obj
 0001:fffff000       __unwindfunclet$??0?$_Tree_temp_node_alloc@V?$allocator@U?$_Tree_node@U?$pair@$$CBV?$basic_string@DU?$char_traits@D@std@@V?$allocator@D@2@@std@@V?$weak_ptr@VRawImageData@@@2@@std@@PAX@std@@@std@@@std@@QAE@AAV?$allocator@U?$_Tree_node@U?$pair@$$CBV?$basic_string@DU?$char_traits@D@std@@V?$allocator@D@2@@std@@V?$weak_ptr@VRawImageData@@@2@@std@@PAX@std@@@1@@Z$0 00400000 f   ImageMappingDemo.obj
 0001:fffff000       __unwindfunclet$??0?$basic_string@DU?$char_traits@D@std@@V?$allocator@D@2@@std@@QAE@ABV01@@Z$0 00400000 f   ImageMappingDemo.obj
 0001:fffff000       __unwindfunclet$??0?$basic_string@DU?$char_traits@D@std@@V?$allocator@D@2@@std@@QAE@QBD@Z$0 00400000 f   ImageMappingDemo.obj
 0001:fffff000       __unwindfunclet$??0DragableImageObject@@QAE@HHPAVBaseEngine@@V?$basic_string@DU?$char_traits@D@std@@V?$allocator@D@2@@std@@_N2@Z$0 00400000 f   ImageMappingDemo.obj
 0001:fffff000       __unwindfunclet$??0ImageManager@@QAE@XZ$0 00400000 f   ImageMappingDemo.obj
 0001:fffff000       __unwindfunclet$??0RawImageData@@QAE@V?$basic_string@DU?$char_traits@D@std@@V?$allocator@D@2@@std@@@Z$0 00400000 f   ImageMappingDemo.obj
 0001:fffff000       __unwindfunclet$??0sentry@?$basic_ostream@DU?$char_traits@D@std@@@std@@QAE@AAV12@@Z$0 00400000 f   ImageMappingDemo.obj
 0001:fffff000       __unwindfunclet$?_Alloc_sentinel_and_proxy@?$_Tree@V?$_Tmap_traits@V?$basic_string@DU?$char_traits@D@std@@V?$allocator@D@2@@std@@V?$shared_ptr@VRawImageData@@@2@U?$less@V?$basic_string@DU?$char_traits@D@std@@V?$allocator@D@2@@std@@@2@V?$allocator@U?$pair@$$CBV?$basic_string@DU?$char_traits@D@std@@V?$allocator@D@2@@std@@V?$shared_ptr@VRawImageData@@@2@@std@@@2@$0A@@std@@@std@@IAEXXZ$0 00400000 f   ImageMappingDemo.obj
 0001:fffff000       __unwindfunclet$?_Alloc_sentinel_and_proxy@?$_Tree@V?$_Tmap_traits@V?$basic_string@DU?$char_traits@D@std@@V?$allocator@D@2@@std@@V?$weak_ptr@VRawImageData@@@2@U?$less@V?$basic_string@DU?$char_traits@D@std@@V?$allocator@D@2@@std@@@2@V?$allocator@U?$pair@$$CBV?$basic_string@DU?$char_traits@D@std@@V?$allocator@D@2@@std@@V?$weak_ptr@VRawImageData@@@2@@std@@@2@$0A@@std@@@std@@IAEXXZ$0 00400000 f   ImageMappingDemo.obj
 0001:fffff000       __unwindfunclet$?_Orphan_range_locked@?$vector@PAVDisplayableObject@@V?$allocator@PAVDisplayableObject@@@std@@@std@@ABEXPAPAVDisplayableObject@@0@Z$0 00400000 f   ImageMappingDemo.obj
 0001:fffff000       __unwindfunclet$?get@ImageManager@@SAPAV1@XZ$0 00400000 f   ImageMappingDemo.obj
 0001:fffff000       __unwindfunclet$?getImagePtrbyURL@ImageManager@@QAE?AV?$shared_ptr@VRawImageData@@@std@@V?$basic_string@DU?$char_traits@D@std@@V?$allocator@D@2@@3@_N1@Z$0 00400000 f   ImageMappingDemo.obj
 0001:fffff000       __unwindfunclet$?getImagebyURL@ImageManager@@QAE?AVSimpleImage@@V?$basic_string@DU?$char_traits@D@std@@V?$allocator@D@2@@std@@_N1@Z$0 00400000 f   ImageMappingDemo.obj
 0001:fffff000       __unwindfunclet$?loadAsNew@ImageManager@@QAE?AV?$shared_ptr@VRawImageData@@@std@@V?$basic_string@DU?$char_traits@D@std@@V?$allocator@D@2@@3@@Z$0 00400000 f   ImageMappingDemo.obj
 0001:fffff000       __unwindfunclet$?loadImage@RawImageData@@QAE_NV?$basic_string@DU?$char_traits@D@std@@V?$allocator@D@2@@std@@HHHHH_N@Z$0 00400000 f   ImageMappingDemo.obj
 0002:fffbe000       __unwindtable$??$?0U?$pair@V?$basic_string@DU?$char_traits@D@std@@V?$allocator@D@2@@std@@V?$shared_ptr@VRawImageData@@@2@@std@@@?$_Tree_temp_node@V?$allocator@U?$_Tree_node@U?$pair@$$CBV?$basic_string@DU?$char_traits@D@std@@V?$allocator@D@2@@std@@V?$shared_ptr@VRawImageData@@@2@@std@@PAX@std@@@std@@@std@@QAE@AAV?$allocator@U?$_Tree_node@U?$pair@$$CBV?$basic_string@DU?$char_traits@D@std@@V?$allocator@D@2@@std@@V?$shared_ptr@VRawImageData@@@2@@std@@PAX@std@@@1@PAU?$_Tree_node@U?$pair@$$CBV?$basic_string@DU?$char_traits@D@std@@V?$allocator@D@2@@std@@V?$shared_ptr@VRawImageData@@@2@@std@@PAX@1@$$QAU?$pair@V?$basic_string@DU?$char_traits@D@std@@V?$allocator@D@2@@std@@V?$shared_ptr@VRawImageData@@@2@@1@@Z 00400000     ImageMappingDemo.obj
 0002:fffbe000       __unwindtable$??$?0U?$pair@V?$basic_string@DU?$char_traits@D@std@@V?$allocator@D@2@@std@@V?$weak_ptr@VRawImageData@@@2@@std@@@?$_Tree_temp_node@V?$allocator@U?$_Tree_node@U?$pair@$$CBV?$basic_string@DU?$char_traits@D@std@@V?$allocator@D@2@@std@@V?$weak_ptr@VRawImageData@@@2@@std@@PAX@std@@@std@@@std@@QAE@AAV?$allocator@U?$_Tree_node@U?$pair@$$CBV?$basic_string@DU?$char_traits@D@std@@V?$allocator@D@2@@std@@V?$weak_ptr@VRawImageData@@@2@@std@@PAX@std@@@1@PAU?$_Tree_node@U?$pair@$$CBV?$basic_string@DU?$char_traits@D@std@@V?$allocator@D@2@@std@@V?$weak_ptr@VRawImageData@@@2@@std@@PAX@1@$$QAU?$pair@V?$basic_string@DU?$char_traits@D@std@@V?$allocator@D@2@@std@@V?$weak_ptr@VRawImageData@@@2@@1@@Z 00400000     ImageMappingDemo.obj
 0002:fffbe000       __unwindtable$??$?0VRawImageData@@$0A@@?$shared_ptr@VRawImageData@@@std@@QAE@PAVRawImageData@@@Z 00400000     ImageMappingDemo.obj
 0002:fffbe000       __unwindtable$??$_Construct@$00PBD@?$basic_string@DU?$char_traits@D@std@@V?$allocator@D@2@@std@@AAEXQBDI@Z 00400000     ImageMappingDemo.obj
 0002:fffbe000       __unwindtable$??$_Construct@$01PBD@?$basic_string@DU?$char_traits@D@std@@V?$allocator@D@2@@std@@AAEXQBDI@Z 00400000     ImageMappingDemo.obj
 0002:fffbe000       __unwindtable$??$_Uninitialized_move@PAPAVDisplayableObject@@V?$allocator@PAVDisplayableObject@@@std@@@std@@YAPAPAVDisplayableObject@@QAPAV1@0PAPAV1@AAV?$allocator@PAVDisplayableObject@@@0@@Z 00400000     ImageMappingDemo.obj
 0002:fffbe000       __unwindtable$??$_Uninitialized_value_construct_n@V?$allocator@PAVDisplayableObject@@@std@@@std@@YAPAPAVDisplayableObject@@PAPAV1@IAAV?$allocator@PAVDisplayableObject@@@0@@Z 00400000     ImageMappingDemo.obj
 0002:fffbe000       __unwindtable$??0?$_Tree_temp_node_alloc@V?$allocator@U?$_Tree_node@U?$pair@$$CBV?$basic_string@DU?$char_traits@D@std@@V?$allocator@D@2@@std@@V?$shared_ptr@VRawImageData@@@2@@std@@PAX@std@@@std@@@std@@QAE@AAV?$allocator@U?$_Tree_node@U?$pair@$$CBV?$basic_string@DU?$char_traits@D@std@@V?$allocator@D@2@@std@@V?$shared_ptr@VRawImageData@@@2@@std@@PAX@std@@@1@@Z 00400000     ImageMappingDemo.obj
 0002:fffbe000       __unwindtable$??0?$_Tree_temp_node_alloc@V?$allocator@U?$_Tree_node@U?$pair@$$CBV?$basic_string@DU?$char_traits@D@std@@V?$allocator@D@2@@std@@V?$weak_ptr@VRawImageData@@@2@@std@@PAX@std@@@std@@@std@@QAE@AAV?$allocator@U?$_Tree_node@U?$pair@$$CBV?$basic_string@DU?$char_traits@D@std@@V?$allocator@D@2@@std@@V?$weak_ptr@VRawImageData@@@2@@std@@PAX@std@@@1@@Z 00400000     ImageMappingDemo.obj
 0002:fffbe000       __unwindtable$??0?$basic_string@DU?$char_traits@D@std@@V?$allocator@D@2@@std@@QAE@ABV01@@Z 00400000     ImageMappingDemo.obj
 0002:fffbe000       __unwindtable$??0?$basic_string@DU?$char_traits@D@std@@V?$allocator@D@2@@std@@QAE@QBD@Z 00400000     ImageMappingDemo.obj
 0002:fffbe000       __unwindtable$??0DragableImageObject@@QAE@HHPAVBaseEngine@@V?$basic_string@DU?$char_traits@D@std@@V?$allocator@D@2@@std@@_N2@Z 00400000     ImageMappingDemo.obj
 0002:fffbe000       __unwindtable$??0ImageManager@@QAE@XZ 00400000     ImageMappingDemo.obj
 0002:fffbe000       __unwindtable$??0RawImageData@@QAE@V?$basic_string@DU?$char_traits@D@std@@V?$allocator@D@2@@std@@@Z 00400000     ImageMappingDemo.obj
 0002:fffbe000       __unwindtable$??0sentry@?$basic_ostream@DU?$char_traits@D@std@@@std@@QAE@AAV12@@Z 00400000     ImageMappingDemo.obj
 0002:fffbe000       __unwindtable$?_Alloc_sentinel_and_proxy@?$_Tree@V?$_Tmap_traits@V?$basic_string@DU?$char_traits@D@std@@V?$allocator@D@2@@std@@V?$shared_ptr@VRawImageData@@@2@U?$less@V?$basic_string@DU?$char_traits@D@std@@V?$allocator@D@2@@std@@@2@V?$allocator@U?$pair@$$CBV?$basic_string@DU?$char_traits@D@std@@V?$allocator@D@2@@std@@V?$shared_ptr@VRawImageData@@@2@@std@@@2@$0A@@std@@@std@@IAEXXZ 00400000     ImageMappingDemo.obj
 0002:fffbe000       __unwindtable$?_Alloc_sentinel_and_proxy@?$_Tree@V?$_Tmap_traits@V?$basic_string@DU?$char_traits@D@std@@V?$allocator@D@2@@std@@V?$weak_ptr@VRawImageData@@@2@U?$less@V?$basic_string@DU?$char_traits@D@std@@V?$allocator@D@2@@std@@@2@V?$allocator@U?$pair@$$CBV?$basic_string@DU?$char_traits@D@std@@V?$allocator@D@2@@std@@V?$weak_ptr@VRawImageData@@@2@@std@@@2@$0A@@std@@@std@@IAEXXZ 00400000     ImageMappingDemo.obj
 0002:fffbe000       __unwindtable$?_Orphan_range_locked@?$vector@PAVDisplayableObject@@V?$allocator@PAVDisplayableObject@@@std@@@std@@ABEXPAPAVDisplayableObject@@0@Z 00400000     ImageMappingDemo.obj
 0002:fffbe000       __unwindtable$?get@ImageManager@@SAPAV1@XZ 00400000     ImageMappingDemo.obj
 0002:fffbe000       __unwindtable$?getImagebyURL@ImageManager@@QAE?AVSimpleImage@@V?$basic_string@DU?$char_traits@D@std@@V?$allocator@D@2@@std@@_N1@Z 00400000     ImageMappingDemo.obj
 0002:fffbe000       __unwindtable$?loadAsNew@ImageManager@@QAE?AV?$shared_ptr@VRawImageData@@@std@@V?$basic_string@DU?$char_traits@D@std@@V?$allocator@D@2@@3@@Z 00400000     ImageMappingDemo.obj
 0002:fffbe000       __unwindtable$?loadImage@RawImageData@@QAE_NV?$basic_string@DU?$char_traits@D@std@@V?$allocator@D@2@@std@@HHHHH_N@Z 00400000     ImageMappingDemo.obj
 0000:00000000       _volmd                     00400000     ImageMappingDemo.obj
 0000:00000000       _volmd                     00400000     ImageMappingDemo.obj
 0000:00000000       _volmd                     00400000     ImageMappingDemo.obj
 0000:00000000       _volmd                     00400000     ImageMappingDemo.obj
 0000:00000000       _volmd                     00400000     ImageMappingDemo.obj
 0000:00000000       _volmd                     00400000     ImageMappingDemo.obj
 0000:00000000       _volmd                     00400000     ImageMappingDemo.obj
 0000:00000000       _volmd                     00400000     ImageMappingDemo.obj
 0000:00000000       _volmd                     00400000     ImageMappingDemo.obj
 0000:00000000       _volmd                     00400000     ImageMappingDemo.obj
 0000:00000000       _volmd                     00400000     ImageMappingDemo.obj
 0000:00000000       _volmd                     00400000     ImageMappingDemo.obj
 0000:00000000       _volmd                     00400000     ImageMappingDemo.obj
 0000:00000000       _volmd                     00400000     ImageMappingDemo.obj
 0000:00000000       _volmd                     00400000     ImageMappingDemo.obj
 0000:00000000       _volmd                     00400000     ImageMappingDemo.obj
 0000:00000000       _volmd                     00400000     ImageMappingDemo.obj
 0000:00000000       _volmd                     00400000     ImageMappingDemo.obj
 0000:00000000       _volmd                     00400000     ImageMappingDemo.obj
 0000:00000000       _volmd                     00400000     ImageMappingDemo.obj
 0000:00000000       _volmd                     00400000     ImageMappingDemo.obj
 0000:00000000       _volmd                     00400000     ImageMappingDemo.obj
 0000:00000000       _volmd                     00400000     ImageMappingDemo.obj
 0000:00000000       _volmd                     00400000     ImageMappingDemo.obj
 0000:00000000       _volmd                     00400000     ImageMappingDemo.obj
 0000:00000000       _volmd                     00400000     ImageMappingDemo.obj
 0000:00000000       _volmd                     00400000     ImageMappingDemo.obj
 0000:00000000       _volmd                     00400000     ImageMappingDemo.obj
 0000:00000000       _volmd                     00400000     ImageMappingDemo.obj
 0000:00000000       _volmd                     00400000     ImageMappingDemo.obj
 0000:00000000       _volmd                     00400000     ImageMappingDemo.obj
 0000:00000000       _volmd                     00400000     ImageMappingDemo.obj
 0000:00000000       _volmd                     00400000     ImageMappingDemo.obj
 0000:00000000       _volmd                     00400000     ImageMappingDemo.obj
 0000:00000000       _volmd                     00400000     ImageMappingDemo.obj
 0000:00000000       _volmd                     00400000     ImageMappingDemo.obj
 0000:00000000       _volmd                     00400000     ImageMappingDemo.obj
 0000:00000000       _volmd                     00400000     ImageMappingDemo.obj
 0000:00000000       _volmd                     00400000     ImageMappingDemo.obj
 0000:00000000       _volmd                     00400000     ImageMappingDemo.obj
 0000:00000000       _volmd                     00400000     ImageMappingDemo.obj
 0000:00000000       _volmd                     00400000     ImageMappingDemo.obj
 0000:00000000       _volmd                     00400000     ImageMappingDemo.obj
 0000:00000000       _volmd                     00400000     ImageMappingDemo.obj
 0002:fffbe000       __catchsym$??$_Resize_reallocate@U_Value_init_tag@std@@@?$vector@PAVDisplayableObject@@V?$allocator@PAVDisplayableObject@@@std@@@std@@AAEXIABU_Value_init_tag@1@@Z$2 00400000     MazeDemoMain.obj
 0002:fffbe000       __ehfuncinfo$??$_Deallocate@$07$0A@@std@@YAXPAXI@Z 00400000     MazeDemoMain.obj
 0001:fffff000       __ehhandler$??$_Deallocate@$07$0A@@std@@YAXPAXI@Z 00400000 f   MazeDemoMain.obj
 0001:fffff000       __ehhandler$??$_Resize_reallocate@U_Value_init_tag@std@@@?$vector@PAVDisplayableObject@@V?$allocator@PAVDisplayableObject@@@std@@@std@@AAEXIABU_Value_init_tag@1@@Z 00400000 f   MazeDemoMain.obj
 0001:fffff000       __unwindfunclet$??$_Uninitialized_move@PAPAVDisplayableObject@@V?$allocator@PAVDisplayableObject@@@std@@@std@@YAPAPAVDisplayableObject@@QAPAV1@0PAPAV1@AAV?$allocator@PAVDisplayableObject@@@0@@Z$0 00400000 f   MazeDemoMain.obj
 0001:fffff000       __unwindfunclet$??$_Uninitialized_value_construct_n@V?$allocator@PAVDisplayableObject@@@std@@@std@@YAPAPAVDisplayableObject@@PAPAV1@IAAV?$allocator@PAVDisplayableObject@@@0@@Z$0 00400000 f   MazeDemoMain.obj
 0001:fffff000       __unwindfunclet$?_Orphan_range_locked@?$vector@PAVDisplayableObject@@V?$allocator@PAVDisplayableObject@@@std@@@std@@ABEXPAPAVDisplayableObject@@0@Z$0 00400000 f   MazeDemoMain.obj
 0001:fffff000       __unwindfunclet$?setAllObjectsVisible@DisplayableObjectContainer@@QBEX_N@Z$0 00400000 f   MazeDemoMain.obj
 0002:fffbe000       __unwindtable$??$_Uninitialized_move@PAPAVDisplayableObject@@V?$allocator@PAVDisplayableObject@@@std@@@std@@YAPAPAVDisplayableObject@@QAPAV1@0PAPAV1@AAV?$allocator@PAVDisplayableObject@@@0@@Z 00400000     MazeDemoMain.obj
 0002:fffbe000       __unwindtable$??$_Uninitialized_value_construct_n@V?$allocator@PAVDisplayableObject@@@std@@@std@@YAPAPAVDisplayableObject@@PAPAV1@IAAV?$allocator@PAVDisplayableObject@@@0@@Z 00400000     MazeDemoMain.obj
 0002:fffbe000       __unwindtable$?_Orphan_range_locked@?$vector@PAVDisplayableObject@@V?$allocator@PAVDisplayableObject@@@std@@@std@@ABEXPAPAVDisplayableObject@@0@Z 00400000     MazeDemoMain.obj
 0002:fffbe000       __unwindtable$?setAllObjectsVisible@DisplayableObjectContainer@@QBEX_N@Z 00400000     MazeDemoMain.obj
 0000:00000000       _volmd                     00400000     MazeDemoMain.obj
 0000:00000000       _volmd                     00400000     MazeDemoMain.obj
 0000:00000000       _volmd                     00400000     MazeDemoMain.obj
 0000:00000000       _volmd                     00400000     MazeDemoMain.obj
 0000:00000000       _volmd                     00400000     MazeDemoMain.obj
 0000:00000000       _volmd                     00400000     MazeDemoMain.obj
 0000:00000000       _volmd                     00400000     MazeDemoMain.obj
 0000:00000000       _volmd                     00400000     MazeDemoMain.obj
 0000:00000000       _volmd                     00400000     MazeDemoObject.obj
 0002:fffbe000       __ehfuncinfo$??$_Deallocate@$07$0A@@std@@YAXPAXI@Z 00400000     MovingText.obj
 0002:fffbe000       __ehfuncinfo$??$_Deallocate_plain@V?$allocator@U_Container_proxy@std@@@std@@@std@@YAXAAV?$allocator@U_Container_proxy@std@@@0@QAU_Container_proxy@0@@Z 00400000     MovingText.obj
 0002:fffbe000       __ehfuncinfo$??0?$basic_string@DU?$char_traits@D@std@@V?$allocator@D@2@@std@@QAE@$$QAV01@@Z 00400000     MovingText.obj
 0002:fffbe000       __ehfuncinfo$?_Take_contents@?$basic_string@DU?$char_traits@D@std@@V?$allocator@D@2@@std@@AAEXAAV12@@Z 00400000     MovingText.obj
 0002:fffbe000       __ehfuncinfo$?_Tidy_deallocate@?$basic_string@DU?$char_traits@D@std@@V?$allocator@D@2@@std@@AAEXXZ 00400000     MovingText.obj
 0001:fffff000       __ehhandler$??$_Deallocate@$07$0A@@std@@YAXPAXI@Z 00400000 f   MovingText.obj
 0001:fffff000       __ehhandler$??$_Deallocate_plain@V?$allocator@U_Container_proxy@std@@@std@@@std@@YAXAAV?$allocator@U_Container_proxy@std@@@0@QAU_Container_proxy@0@@Z 00400000 f   MovingText.obj
 0001:fffff000       __ehhandler$??0?$basic_string@DU?$char_traits@D@std@@V?$allocator@D@2@@std@@QAE@$$QAV01@@Z 00400000 f   MovingText.obj
 0001:fffff000       __ehhandler$?_Take_contents@?$basic_string@DU?$char_traits@D@std@@V?$allocator@D@2@@std@@AAEXAAV12@@Z 00400000 f   MovingText.obj
 0001:fffff000       __ehhandler$?_Tidy_deallocate@?$basic_string@DU?$char_traits@D@std@@V?$allocator@D@2@@std@@AAEXXZ 00400000 f   MovingText.obj
 0001:fffff000       __unwindfunclet$??$_Construct@$01PBD@?$basic_string@DU?$char_traits@D@std@@V?$allocator@D@2@@std@@AAEXQBDI@Z$0 00400000 f   MovingText.obj
 0001:fffff000       __unwindfunclet$??0?$basic_string@DU?$char_traits@D@std@@V?$allocator@D@2@@std@@QAE@ABV01@@Z$0 00400000 f   MovingText.obj
 0002:fffbe000       __unwindtable$??$_Construct@$01PBD@?$basic_string@DU?$char_traits@D@std@@V?$allocator@D@2@@std@@AAEXQBDI@Z 00400000     MovingText.obj
 0002:fffbe000       __unwindtable$??0?$basic_string@DU?$char_traits@D@std@@V?$allocator@D@2@@std@@QAE@ABV01@@Z 00400000     MovingText.obj
 0000:00000000       _volmd                     00400000     MovingText.obj
 0000:00000000       _volmd                     00400000     MovingText.obj
 0000:00000000       _volmd                     00400000     MovingText.obj
 0000:00000000       _volmd                     00400000     MovingText.obj
 0000:00000000       _volmd                     00400000     MovingText.obj
 0000:00000000       _volmd                     00400000     MovingText.obj
 0000:00000000       _volmd                     00400000     MovingText.obj
 0000:00000000       _volmd                     00400000     MovingText.obj
 0000:00000000       _volmd                     00400000     MovingText.obj
 0000:00000000       _volmd                     00400000     MovingText.obj
 0000:00000000       _volmd                     00400000     MovingText.obj
 0000:00000000       _volmd                     00400000     MovingText.obj
 0000:00000000       _volmd                     00400000     MovingText.obj
 0000:00000000       _volmd                     00400000     MovingText.obj
 0000:00000000       _volmd                     00400000     MovingText.obj
 0002:fffbe000       __catchsym$??$?6U?$char_traits@D@std@@@std@@YAAAV?$basic_ostream@DU?$char_traits@D@std@@@0@AAV10@PBD@Z$3 00400000     SimpleDemo.obj
 0002:fffbe000       __catchsym$??$_Emplace_reallocate@ABQAVDisplayableObject@@@?$vector@PAVDisplayableObject@@V?$allocator@PAVDisplayableObject@@@std@@@std@@AAEPAPAVDisplayableObject@@QAPAV2@ABQAV2@@Z$2 00400000     SimpleDemo.obj
 0002:fffbe000       __catchsym$??$_Resize_reallocate@U_Value_init_tag@std@@@?$vector@PAVDisplayableObject@@V?$allocator@PAVDisplayableObject@@@std@@@std@@AAEXIABU_Value_init_tag@1@@Z$2 00400000     SimpleDemo.obj
 0002:fffbe000       __ehfuncinfo$??$_Deallocate@$07$0A@@std@@YAXPAXI@Z 00400000     SimpleDemo.obj
 0002:fffbe000       __ehfuncinfo$??1_Sentry_base@?$basic_ostream@DU?$char_traits@D@std@@@std@@QAE@XZ 00400000     SimpleDemo.obj
 0002:fffbe000       __ehfuncinfo$??1sentry@?$basic_ostream@DU?$char_traits@D@std@@@std@@QAE@XZ 00400000     SimpleDemo.obj
 0001:fffff000       __ehhandler$??$_Deallocate@$07$0A@@std@@YAXPAXI@Z 00400000 f   SimpleDemo.obj
 0001:fffff000       __ehhandler$??$_Emplace_reallocate@ABQAVDisplayableObject@@@?$vector@PAVDisplayableObject@@V?$allocator@PAVDisplayableObject@@@std@@@std@@AAEPAPAVDisplayableObject@@QAPAV2@ABQAV2@@Z 00400000 f   SimpleDemo.obj
 0001:fffff000       __ehhandler$??$_Resize_reallocate@U_Value_init_tag@std@@@?$vector@PAVDisplayableObject@@V?$allocator@PAVDisplayableObject@@@std@@@std@@AAEXIABU_Value_init_tag@1@@Z 00400000 f   SimpleDemo.obj
 0001:fffff000       __ehhandler$??1_Sentry_base@?$basic_ostream@DU?$char_traits@D@std@@@std@@QAE@XZ 00400000 f   SimpleDemo.obj
 0001:fffff000       __ehhandler$??1sentry@?$basic_ostream@DU?$char_traits@D@std@@@std@@QAE@XZ 00400000 f   SimpleDemo.obj
 0001:fffff000       __unwindfunclet$??$?6U?$char_traits@D@std@@@std@@YAAAV?$basic_ostream@DU?$char_traits@D@std@@@0@AAV10@PBD@Z$2 00400000 f   SimpleDemo.obj
 0001:fffff000       __unwindfunclet$??$_Uninitialized_move@PAPAVDisplayableObject@@V?$allocator@PAVDisplayableObject@@@std@@@std@@YAPAPAVDisplayableObject@@QAPAV1@0PAPAV1@AAV?$allocator@PAVDisplayableObject@@@0@@Z$0 00400000 f   SimpleDemo.obj
 0001:fffff000       __unwindfunclet$??$_Uninitialized_value_construct_n@V?$allocator@PAVDisplayableObject@@@std@@@std@@YAPAPAVDisplayableObject@@PAPAV1@IAAV?$allocator@PAVDisplayableObject@@@0@@Z$0 00400000 f   SimpleDemo.obj
 0001:fffff000       __unwindfunclet$??0sentry@?$basic_ostream@DU?$char_traits@D@std@@@std@@QAE@AAV12@@Z$0 00400000 f   SimpleDemo.obj
 0001:fffff000       __unwindfunclet$?_Orphan_range_locked@?$vector@PAVDisplayableObject@@V?$allocator@PAVDisplayableObject@@@std@@@std@@ABEXPAPAVDisplayableObject@@0@Z$0 00400000 f   SimpleDemo.obj
 0002:fffbe000       __unwindtable$??$_Uninitialized_move@PAPAVDisplayableObject@@V?$allocator@PAVDisplayableObject@@@std@@@std@@YAPAPAVDisplayableObject@@QAPAV1@0PAPAV1@AAV?$allocator@PAVDisplayableObject@@@0@@Z 00400000     SimpleDemo.obj
 0002:fffbe000       __unwindtable$??$_Uninitialized_value_construct_n@V?$allocator@PAVDisplayableObject@@@std@@@std@@YAPAPAVDisplayableObject@@PAPAV1@IAAV?$allocator@PAVDisplayableObject@@@0@@Z 00400000     SimpleDemo.obj
 0002:fffbe000       __unwindtable$??0sentry@?$basic_ostream@DU?$char_traits@D@std@@@std@@QAE@AAV12@@Z 00400000     SimpleDemo.obj
 0002:fffbe000       __unwindtable$?_Orphan_range_locked@?$vector@PAVDisplayableObject@@V?$allocator@PAVDisplayableObject@@@std@@@std@@ABEXPAPAVDisplayableObject@@0@Z 00400000     SimpleDemo.obj
 0000:00000000       _volmd                     00400000     SimpleDemo.obj
 0000:00000000       _volmd                     00400000     SimpleDemo.obj
 0000:00000000       _volmd                     00400000     SimpleDemo.obj
 0000:00000000       _volmd                     00400000     SimpleDemo.obj
 0000:00000000       _volmd                     00400000     SimpleDemo.obj
 0000:00000000       _volmd                     00400000     SimpleDemo.obj
 0000:00000000       _volmd                     00400000     SimpleDemo.obj
 0000:00000000       _volmd                     00400000     SimpleDemo.obj
 0000:00000000       _volmd                     00400000     SimpleDemo.obj
 0000:00000000       _volmd                     00400000     SimpleDemo.obj
 0000:00000000       _volmd                     00400000     SimpleDemo.obj
 0000:00000000       _volmd                     00400000     SimpleDemo.obj
 0002:fffbe000       __catchsym$??$?6U?$char_traits@D@std@@@std@@YAAAV?$basic_ostream@DU?$char_traits@D@std@@@0@AAV10@PBD@Z$3 00400000     SimpleImage.obj
 0002:fffbe000       __ehfuncinfo$??1_Sentry_base@?$basic_ostream@DU?$char_traits@D@std@@@std@@QAE@XZ 00400000     SimpleImage.obj
 0002:fffbe000       __ehfuncinfo$??1sentry@?$basic_ostream@DU?$char_traits@D@std@@@std@@QAE@XZ 00400000     SimpleImage.obj
 0001:fffff000       __ehhandler$??1_Sentry_base@?$basic_ostream@DU?$char_traits@D@std@@@std@@QAE@XZ 00400000 f   SimpleImage.obj
 0001:fffff000       __ehhandler$??1sentry@?$basic_ostream@DU?$char_traits@D@std@@@std@@QAE@XZ 00400000 f   SimpleImage.obj
 0001:fffff000       __unwindfunclet$??$?6U?$char_traits@D@std@@@std@@YAAAV?$basic_ostream@DU?$char_traits@D@std@@@0@AAV10@PBD@Z$2 00400000 f   SimpleImage.obj
 0001:fffff000       __unwindfunclet$??0sentry@?$basic_ostream@DU?$char_traits@D@std@@@std@@QAE@AAV12@@Z$0 00400000 f   SimpleImage.obj
 0002:fffbe000       __unwindtable$??0sentry@?$basic_ostream@DU?$char_traits@D@std@@@std@@QAE@AAV12@@Z 00400000     SimpleImage.obj
 0000:00000000       _volmd                     00400000     SimpleImage.obj
 0000:00000000       _volmd                     00400000     SimpleImage.obj
 0000:00000000       _volmd                     00400000     SimpleImage.obj
 0000:00000000       _volmd                     00400000     SimpleImage.obj
 0000:00000000       _volmd                     00400000     SimpleImage.obj
 0002:fffbe000       __catchsym$??$?6U?$char_traits@D@std@@@std@@YAAAV?$basic_ostream@DU?$char_traits@D@std@@@0@AAV10@PBD@Z$3 00400000     SnakeObject.obj
 0002:fffbe000       __ehfuncinfo$??$_Deallocate@$07$0A@@std@@YAXPAXI@Z 00400000     SnakeObject.obj
 0002:fffbe000       __ehfuncinfo$??$_Deallocate_plain@V?$allocator@U_Container_proxy@std@@@std@@@std@@YAXAAV?$allocator@U_Container_proxy@std@@@0@QAU_Container_proxy@0@@Z 00400000     SnakeObject.obj
 0002:fffbe000       __ehfuncinfo$??0?$basic_string@DU?$char_traits@D@std@@V?$allocator@D@2@@std@@QAE@XZ 00400000     SnakeObject.obj
 0002:fffbe000       __ehfuncinfo$??0?$vector@HV?$allocator@H@std@@@std@@QAE@XZ 00400000     SnakeObject.obj
 0002:fffbe000       __ehfuncinfo$??0?$vector@PADV?$allocator@PAD@std@@@std@@QAE@XZ 00400000     SnakeObject.obj
 0002:fffbe000       __ehfuncinfo$??1?$basic_filebuf@DU?$char_traits@D@std@@@std@@UAE@XZ 00400000     SnakeObject.obj
 0002:fffbe000       __ehfuncinfo$??1_Sentry_base@?$basic_ostream@DU?$char_traits@D@std@@@std@@QAE@XZ 00400000     SnakeObject.obj
 0002:fffbe000       __ehfuncinfo$??1sentry@?$basic_ostream@DU?$char_traits@D@std@@@std@@QAE@XZ 00400000     SnakeObject.obj
 0002:fffbe000       __ehfuncinfo$?_Tidy@?$vector@HV?$allocator@H@std@@@std@@AAEXXZ 00400000     SnakeObject.obj
 0002:fffbe000       __ehfuncinfo$?_Tidy@?$vector@PADV?$allocator@PAD@std@@@std@@AAEXXZ 00400000     SnakeObject.obj
 0002:fffbe000       __ehfuncinfo$?_Tidy@?$vector@PAVSnakeBody@@V?$allocator@PAVSnakeBody@@@std@@@std@@AAEXXZ 00400000     SnakeObject.obj
 0002:fffbe000       __ehfuncinfo$?_Tidy_deallocate@?$basic_string@DU?$char_traits@D@std@@V?$allocator@D@2@@std@@AAEXXZ 00400000     SnakeObject.obj
 0001:fffff000       __ehhandler$??$_Deallocate@$07$0A@@std@@YAXPAXI@Z 00400000 f   SnakeObject.obj
 0001:fffff000       __ehhandler$??$_Deallocate_plain@V?$allocator@U_Container_proxy@std@@@std@@@std@@YAXAAV?$allocator@U_Container_proxy@std@@@0@QAU_Container_proxy@0@@Z 00400000 f   SnakeObject.obj
 0001:fffff000       __ehhandler$??0?$basic_string@DU?$char_traits@D@std@@V?$allocator@D@2@@std@@QAE@XZ 00400000 f   SnakeObject.obj
 0001:fffff000       __ehhandler$??0?$vector@HV?$allocator@H@std@@@std@@QAE@XZ 00400000 f   SnakeObject.obj
 0001:fffff000       __ehhandler$??0?$vector@PADV?$allocator@PAD@std@@@std@@QAE@XZ 00400000 f   SnakeObject.obj
 0001:fffff000       __ehhandler$??1?$basic_filebuf@DU?$char_traits@D@std@@@std@@UAE@XZ 00400000 f   SnakeObject.obj
 0001:fffff000       __ehhandler$??1_Sentry_base@?$basic_ostream@DU?$char_traits@D@std@@@std@@QAE@XZ 00400000 f   SnakeObject.obj
 0001:fffff000       __ehhandler$??1sentry@?$basic_ostream@DU?$char_traits@D@std@@@std@@QAE@XZ 00400000 f   SnakeObject.obj
 0001:fffff000       __ehhandler$?_Tidy@?$vector@HV?$allocator@H@std@@@std@@AAEXXZ 00400000 f   SnakeObject.obj
 0001:fffff000       __ehhandler$?_Tidy@?$vector@PADV?$allocator@PAD@std@@@std@@AAEXXZ 00400000 f   SnakeObject.obj
 0001:fffff000       __ehhandler$?_Tidy@?$vector@PAVSnakeBody@@V?$allocator@PAVSnakeBody@@@std@@@std@@AAEXXZ 00400000 f   SnakeObject.obj
 0001:fffff000       __ehhandler$?_Tidy_deallocate@?$basic_string@DU?$char_traits@D@std@@V?$allocator@D@2@@std@@AAEXXZ 00400000 f   SnakeObject.obj
 0001:fffff000       __unwindfunclet$??$?0PAD$0A@@?$basic_string@DU?$char_traits@D@std@@V?$allocator@D@2@@std@@QAE@PAD0ABV?$allocator@D@1@@Z$0 00400000 f   SnakeObject.obj
 0001:fffff000       __unwindfunclet$??$?6U?$char_traits@D@std@@@std@@YAAAV?$basic_ostream@DU?$char_traits@D@std@@@0@AAV10@PBD@Z$2 00400000 f   SnakeObject.obj
 0001:fffff000       __unwindfunclet$??$_Construct@$00PAD@?$basic_string@DU?$char_traits@D@std@@V?$allocator@D@2@@std@@AAEXQADI@Z$0 00400000 f   SnakeObject.obj
 0001:fffff000       __unwindfunclet$??$_Construct@$00PBD@?$basic_string@DU?$char_traits@D@std@@V?$allocator@D@2@@std@@AAEXQBDI@Z$0 00400000 f   SnakeObject.obj
 0001:fffff000       __unwindfunclet$??$_Construct_n@ABQAHABQAH@?$vector@HV?$allocator@H@std@@@std@@AAEXIABQAH0@Z$0 00400000 f   SnakeObject.obj
 0001:fffff000       __unwindfunclet$??$_Construct_n@ABQAPADABQAPAD@?$vector@PADV?$allocator@PAD@std@@@std@@AAEXIABQAPAD0@Z$0 00400000 f   SnakeObject.obj
 0001:fffff000       __unwindfunclet$??$_Construct_n@ABQAPAVSnakeBody@@ABQAPAV1@@?$vector@PAVSnakeBody@@V?$allocator@PAVSnakeBody@@@std@@@std@@AAEXIABQAPAVSnakeBody@@0@Z$0 00400000 f   SnakeObject.obj
 0001:fffff000       __unwindfunclet$??$_Construct_n@PBHPBH@?$vector@HV?$allocator@H@std@@@std@@AAEXI$$QAPBH0@Z$0 00400000 f   SnakeObject.obj
 0001:fffff000       __unwindfunclet$??$_Construct_n@PBQADPBQAD@?$vector@PADV?$allocator@PAD@std@@@std@@AAEXI$$QAPBQAD0@Z$0 00400000 f   SnakeObject.obj
 0001:fffff000       __unwindfunclet$??$_Uninitialized_copy@PAHPAHV?$allocator@H@std@@@std@@YAPAHPAH00AAV?$allocator@H@0@@Z$0 00400000 f   SnakeObject.obj
 0001:fffff000       __unwindfunclet$??$_Uninitialized_copy@PAPADPAPADV?$allocator@PAD@std@@@std@@YAPAPADPAPAD00AAV?$allocator@PAD@0@@Z$0 00400000 f   SnakeObject.obj
 0001:fffff000       __unwindfunclet$??$_Uninitialized_copy@PAPAVSnakeBody@@PAPAV1@V?$allocator@PAVSnakeBody@@@std@@@std@@YAPAPAVSnakeBody@@PAPAV1@00AAV?$allocator@PAVSnakeBody@@@0@@Z$0 00400000 f   SnakeObject.obj
 0001:fffff000       __unwindfunclet$??$_Uninitialized_copy@PBHPBHV?$allocator@H@std@@@std@@YAPAHPBH0PAHAAV?$allocator@H@0@@Z$0 00400000 f   SnakeObject.obj
 0001:fffff000       __unwindfunclet$??$_Uninitialized_copy@PBQADPBQADV?$allocator@PAD@std@@@std@@YAPAPADPBQAD0PAPADAAV?$allocator@PAD@0@@Z$0 00400000 f   SnakeObject.obj
 0001:fffff000       __unwindfunclet$??$_Uninitialized_copy_n@PAHV?$allocator@H@std@@@std@@YAPAHPAHI0AAV?$allocator@H@0@@Z$0 00400000 f   SnakeObject.obj
 0001:fffff000       __unwindfunclet$??$_Uninitialized_copy_n@PAPADV?$allocator@PAD@std@@@std@@YAPAPADPAPADI0AAV?$allocator@PAD@0@@Z$0 00400000 f   SnakeObject.obj
 0001:fffff000       __unwindfunclet$??$use_facet@V?$codecvt@DDU_Mbstatet@@@std@@@std@@YAABV?$codecvt@DDU_Mbstatet@@@0@ABVlocale@0@@Z$0 00400000 f   SnakeObject.obj
 0001:fffff000       __unwindfunclet$??0?$basic_filebuf@DU?$char_traits@D@std@@@std@@QAE@XZ$0 00400000 f   SnakeObject.obj
 0001:fffff000       __unwindfunclet$??0?$basic_ofstream@DU?$char_traits@D@std@@@std@@QAE@XZ$0 00400000 f   SnakeObject.obj
 0001:fffff000       __unwindfunclet$??0?$basic_string@DU?$char_traits@D@std@@V?$allocator@D@2@@std@@QAE@QBD@Z$0 00400000 f   SnakeObject.obj
 0001:fffff000       __unwindfunclet$??0sentry@?$basic_ostream@DU?$char_traits@D@std@@@std@@QAE@AAV12@@Z$0 00400000 f   SnakeObject.obj
 0001:fffff000       __unwindfunclet$??0winningState@@QAE@XZ$0 00400000 f   SnakeObject.obj
 0001:fffff000       __unwindfunclet$?open@?$basic_filebuf@DU?$char_traits@D@std@@@std@@QAEPAV12@PBDHH@Z$0 00400000 f   SnakeObject.obj
 0001:fffff000       __unwindfunclet$?setCoordX@States@@QAEXV?$vector@HV?$allocator@H@std@@@std@@@Z$0 00400000 f   SnakeObject.obj
 0001:fffff000       __unwindfunclet$?setCoordY@States@@QAEXV?$vector@HV?$allocator@H@std@@@std@@@Z$0 00400000 f   SnakeObject.obj
 0001:fffff000       __unwindfunclet$?setImageURL@States@@QAEXV?$basic_string@DU?$char_traits@D@std@@V?$allocator@D@2@@std@@@Z$0 00400000 f   SnakeObject.obj
 0001:fffff000       __unwindfunclet$?setStr@States@@QAEXV?$vector@PADV?$allocator@PAD@std@@@std@@@Z$0 00400000 f   SnakeObject.obj
 0001:fffff000       __unwindfunclet$?uflow@?$basic_filebuf@DU?$char_traits@D@std@@@std@@MAEHXZ$0 00400000 f   SnakeObject.obj
 0002:fffbe000       __unwindtable$??$?0PAD$0A@@?$basic_string@DU?$char_traits@D@std@@V?$allocator@D@2@@std@@QAE@PAD0ABV?$allocator@D@1@@Z 00400000     SnakeObject.obj
 0002:fffbe000       __unwindtable$??$_Construct@$00PAD@?$basic_string@DU?$char_traits@D@std@@V?$allocator@D@2@@std@@AAEXQADI@Z 00400000     SnakeObject.obj
 0002:fffbe000       __unwindtable$??$_Construct@$00PBD@?$basic_string@DU?$char_traits@D@std@@V?$allocator@D@2@@std@@AAEXQBDI@Z 00400000     SnakeObject.obj
 0002:fffbe000       __unwindtable$??$_Construct_n@ABQAHABQAH@?$vector@HV?$allocator@H@std@@@std@@AAEXIABQAH0@Z 00400000     SnakeObject.obj
 0002:fffbe000       __unwindtable$??$_Construct_n@ABQAPADABQAPAD@?$vector@PADV?$allocator@PAD@std@@@std@@AAEXIABQAPAD0@Z 00400000     SnakeObject.obj
 0002:fffbe000       __unwindtable$??$_Construct_n@ABQAPAVSnakeBody@@ABQAPAV1@@?$vector@PAVSnakeBody@@V?$allocator@PAVSnakeBody@@@std@@@std@@AAEXIABQAPAVSnakeBody@@0@Z 00400000     SnakeObject.obj
 0002:fffbe000       __unwindtable$??$_Construct_n@PBHPBH@?$vector@HV?$allocator@H@std@@@std@@AAEXI$$QAPBH0@Z 00400000     SnakeObject.obj
 0002:fffbe000       __unwindtable$??$_Construct_n@PBQADPBQAD@?$vector@PADV?$allocator@PAD@std@@@std@@AAEXI$$QAPBQAD0@Z 00400000     SnakeObject.obj
 0002:fffbe000       __unwindtable$??$_Uninitialized_copy@PAHPAHV?$allocator@H@std@@@std@@YAPAHPAH00AAV?$allocator@H@0@@Z 00400000     SnakeObject.obj
 0002:fffbe000       __unwindtable$??$_Uninitialized_copy@PAPADPAPADV?$allocator@PAD@std@@@std@@YAPAPADPAPAD00AAV?$allocator@PAD@0@@Z 00400000     SnakeObject.obj
 0002:fffbe000       __unwindtable$??$_Uninitialized_copy@PAPAVSnakeBody@@PAPAV1@V?$allocator@PAVSnakeBody@@@std@@@std@@YAPAPAVSnakeBody@@PAPAV1@00AAV?$allocator@PAVSnakeBody@@@0@@Z 00400000     SnakeObject.obj
 0002:fffbe000       __unwindtable$??$_Uninitialized_copy@PBHPBHV?$allocator@H@std@@@std@@YAPAHPBH0PAHAAV?$allocator@H@0@@Z 00400000     SnakeObject.obj
 0002:fffbe000       __unwindtable$??$_Uninitialized_copy@PBQADPBQADV?$allocator@PAD@std@@@std@@YAPAPADPBQAD0PAPADAAV?$allocator@PAD@0@@Z 00400000     SnakeObject.obj
 0002:fffbe000       __unwindtable$??$_Uninitialized_copy_n@PAHV?$allocator@H@std@@@std@@YAPAHPAHI0AAV?$allocator@H@0@@Z 00400000     SnakeObject.obj
 0002:fffbe000       __unwindtable$??$_Uninitialized_copy_n@PAPADV?$allocator@PAD@std@@@std@@YAPAPADPAPADI0AAV?$allocator@PAD@0@@Z 00400000     SnakeObject.obj
 0002:fffbe000       __unwindtable$??$use_facet@V?$codecvt@DDU_Mbstatet@@@std@@@std@@YAABV?$codecvt@DDU_Mbstatet@@@0@ABVlocale@0@@Z 00400000     SnakeObject.obj
 0002:fffbe000       __unwindtable$??0?$basic_filebuf@DU?$char_traits@D@std@@@std@@QAE@XZ 00400000     SnakeObject.obj
 0002:fffbe000       __unwindtable$??0?$basic_ofstream@DU?$char_traits@D@std@@@std@@QAE@XZ 00400000     SnakeObject.obj
 0002:fffbe000       __unwindtable$??0?$basic_string@DU?$char_traits@D@std@@V?$allocator@D@2@@std@@QAE@QBD@Z 00400000     SnakeObject.obj
 0002:fffbe000       __unwindtable$??0sentry@?$basic_ostream@DU?$char_traits@D@std@@@std@@QAE@AAV12@@Z 00400000     SnakeObject.obj
 0002:fffbe000       __unwindtable$??0winningState@@QAE@XZ 00400000     SnakeObject.obj
 0002:fffbe000       __unwindtable$?open@?$basic_filebuf@DU?$char_traits@D@std@@@std@@QAEPAV12@PBDHH@Z 00400000     SnakeObject.obj
 0002:fffbe000       __unwindtable$?setCoordX@States@@QAEXV?$vector@HV?$allocator@H@std@@@std@@@Z 00400000     SnakeObject.obj
 0002:fffbe000       __unwindtable$?setCoordY@States@@QAEXV?$vector@HV?$allocator@H@std@@@std@@@Z 00400000     SnakeObject.obj
 0002:fffbe000       __unwindtable$?setImageURL@States@@QAEXV?$basic_string@DU?$char_traits@D@std@@V?$allocator@D@2@@std@@@Z 00400000     SnakeObject.obj
 0002:fffbe000       __unwindtable$?setStr@States@@QAEXV?$vector@PADV?$allocator@PAD@std@@@std@@@Z 00400000     SnakeObject.obj
 0002:fffbe000       __unwindtable$?uflow@?$basic_filebuf@DU?$char_traits@D@std@@@std@@MAEHXZ 00400000     SnakeObject.obj
 0000:00000000       _volmd                     00400000     SnakeObject.obj
 0000:00000000       _volmd                     00400000     SnakeObject.obj
 0000:00000000       _volmd                     00400000     SnakeObject.obj
 0000:00000000       _volmd                     00400000     SnakeObject.obj
 0000:00000000       _volmd                     00400000     SnakeObject.obj
 0000:00000000       _volmd                     00400000     SnakeObject.obj
 0000:00000000       _volmd                     00400000     SnakeObject.obj
 0000:00000000       _volmd                     00400000     SnakeObject.obj
 0000:00000000       _volmd                     00400000     SnakeObject.obj
 0000:00000000       _volmd                     00400000     SnakeObject.obj
 0000:00000000       _volmd                     00400000     SnakeObject.obj
 0000:00000000       _volmd                     00400000     SnakeObject.obj
 0000:00000000       _volmd                     00400000     SnakeObject.obj
 0000:00000000       _volmd                     00400000     SnakeObject.obj
 0000:00000000       _volmd                     00400000     SnakeObject.obj
 0000:00000000       _volmd                     00400000     SnakeObject.obj
 0000:00000000       _volmd                     00400000     SnakeObject.obj
 0000:00000000       _volmd                     00400000     SnakeObject.obj
 0000:00000000       _volmd                     00400000     SnakeObject.obj
 0000:00000000       _volmd                     00400000     SnakeObject.obj
 0000:00000000       _volmd                     00400000     SnakeObject.obj
 0000:00000000       _volmd                     00400000     SnakeObject.obj
 0000:00000000       _volmd                     00400000     SnakeObject.obj
 0000:00000000       _volmd                     00400000     SnakeObject.obj
 0000:00000000       _volmd                     00400000     SnakeObject.obj
 0000:00000000       _volmd                     00400000     SnakeObject.obj
 0000:00000000       _volmd                     00400000     SnakeObject.obj
 0000:00000000       _volmd                     00400000     SnakeObject.obj
 0000:00000000       _volmd                     00400000     SnakeObject.obj
 0000:00000000       _volmd                     00400000     SnakeObject.obj
 0000:00000000       _volmd                     00400000     SnakeObject.obj
 0000:00000000       _volmd                     00400000     SnakeObject.obj
 0000:00000000       _volmd                     00400000     SnakeObject.obj
 0000:00000000       _volmd                     00400000     SnakeObject.obj
 0000:00000000       _volmd                     00400000     SnakeObject.obj
 0000:00000000       _volmd                     00400000     SnakeObject.obj
 0000:00000000       _volmd                     00400000     SnakeObject.obj
 0000:00000000       _volmd                     00400000     SnakeObject.obj
 0000:00000000       _volmd                     00400000     SnakeObject.obj
 0000:00000000       _volmd                     00400000     SnakeObject.obj
 0000:00000000       _volmd                     00400000     SnakeObject.obj
 0000:00000000       _volmd                     00400000     SnakeObject.obj
 0000:00000000       _volmd                     00400000     SnakeObject.obj
 0000:00000000       _volmd                     00400000     SnakeObject.obj
 0000:00000000       _volmd                     00400000     SnakeObject.obj
 0000:00000000       _volmd                     00400000     SnakeObject.obj
 0000:00000000       _volmd                     00400000     SnakeObject.obj
 0000:00000000       _volmd                     00400000     SnakeObject.obj
 0000:00000000       _volmd                     00400000     SnakeObject.obj
 0000:00000000       _volmd                     00400000     SnakeObject.obj
 0000:00000000       _volmd                     00400000     SnakeObject.obj
 0002:fffbe000       __catchsym$??$?6U?$char_traits@D@std@@@std@@YAAAV?$basic_ostream@DU?$char_traits@D@std@@@0@AAV10@PBD@Z$3 00400000     StarfieldDemo.obj
 0002:fffbe000       __ehfuncinfo$??1_Sentry_base@?$basic_ostream@DU?$char_traits@D@std@@@std@@QAE@XZ 00400000     StarfieldDemo.obj
 0002:fffbe000       __ehfuncinfo$??1sentry@?$basic_ostream@DU?$char_traits@D@std@@@std@@QAE@XZ 00400000     StarfieldDemo.obj
 0001:fffff000       __ehhandler$??1_Sentry_base@?$basic_ostream@DU?$char_traits@D@std@@@std@@QAE@XZ 00400000 f   StarfieldDemo.obj
 0001:fffff000       __ehhandler$??1sentry@?$basic_ostream@DU?$char_traits@D@std@@@std@@QAE@XZ 00400000 f   StarfieldDemo.obj
 0001:fffff000       __unwindfunclet$??$?6U?$char_traits@D@std@@@std@@YAAAV?$basic_ostream@DU?$char_traits@D@std@@@0@AAV10@PBD@Z$2 00400000 f   StarfieldDemo.obj
 0001:fffff000       __unwindfunclet$??0sentry@?$basic_ostream@DU?$char_traits@D@std@@@std@@QAE@AAV12@@Z$0 00400000 f   StarfieldDemo.obj
 0002:fffbe000       __unwindtable$??0sentry@?$basic_ostream@DU?$char_traits@D@std@@@std@@QAE@AAV12@@Z 00400000     StarfieldDemo.obj
 0000:00000000       _volmd                     00400000     StarfieldDemo.obj
 0000:00000000       _volmd                     00400000     StarfieldDemo.obj
 0000:00000000       _volmd                     00400000     StarfieldDemo.obj
 0000:00000000       _volmd                     00400000     StarfieldDemo.obj
 0000:00000000       _volmd                     00400000     StarfieldDemo.obj
 0002:fffbe000       __catchsym$??$?6U?$char_traits@D@std@@@std@@YAAAV?$basic_ostream@DU?$char_traits@D@std@@@0@AAV10@PBD@Z$3 00400000     States.obj
 0002:fffbe000       __catchsym$??$_Insert_string@DU?$char_traits@D@std@@I@std@@YAAAV?$basic_ostream@DU?$char_traits@D@std@@@0@AAV10@QBDI@Z$3 00400000     States.obj
 0002:fffbe000       __ehfuncinfo$??$_Deallocate@$07$0A@@std@@YAXPAXI@Z 00400000     States.obj
 0002:fffbe000       __ehfuncinfo$??$_Deallocate_plain@V?$allocator@U_Container_proxy@std@@@std@@@std@@YAXAAV?$allocator@U_Container_proxy@std@@@0@QAU_Container_proxy@0@@Z 00400000     States.obj
 0002:fffbe000       __ehfuncinfo$??$_Destroy_range@V?$allocator@U?$pair@V?$basic_string@DU?$char_traits@D@std@@V?$allocator@D@2@@std@@H@std@@@std@@@std@@YAXPAU?$pair@V?$basic_string@DU?$char_traits@D@std@@V?$allocator@D@2@@std@@H@0@QAU10@AAV?$allocator@U?$pair@V?$basic_string@DU?$char_traits@D@std@@V?$allocator@D@2@@std@@H@std@@@0@@Z 00400000     States.obj
 0002:fffbe000       __ehfuncinfo$??$_Freenode0@V?$allocator@U?$_Tree_node@U?$pair@$$CBV?$basic_string@DU?$char_traits@D@std@@V?$allocator@D@2@@std@@V?$weak_ptr@VRawImageData@@@2@@std@@PAX@std@@@std@@@?$_Tree_node@U?$pair@$$CBV?$basic_string@DU?$char_traits@D@std@@V?$allocator@D@2@@std@@V?$weak_ptr@VRawImageData@@@2@@std@@PAX@std@@SAXAAV?$allocator@U?$_Tree_node@U?$pair@$$CBV?$basic_string@DU?$char_traits@D@std@@V?$allocator@D@2@@std@@V?$weak_ptr@VRawImageData@@@2@@std@@PAX@std@@@1@PAU01@@Z 00400000     States.obj
 0002:fffbe000       __ehfuncinfo$??$_Freenode@V?$allocator@U?$_Tree_node@U?$pair@$$CBV?$basic_string@DU?$char_traits@D@std@@V?$allocator@D@2@@std@@V?$weak_ptr@VRawImageData@@@2@@std@@PAX@std@@@std@@@?$_Tree_node@U?$pair@$$CBV?$basic_string@DU?$char_traits@D@std@@V?$allocator@D@2@@std@@V?$weak_ptr@VRawImageData@@@2@@std@@PAX@std@@SAXAAV?$allocator@U?$_Tree_node@U?$pair@$$CBV?$basic_string@DU?$char_traits@D@std@@V?$allocator@D@2@@std@@V?$weak_ptr@VRawImageData@@@2@@std@@PAX@std@@@1@PAU01@@Z 00400000     States.obj
 0002:fffbe000       __ehfuncinfo$??0?$basic_string@DU?$char_traits@D@std@@V?$allocator@D@2@@std@@QAE@$$QAV01@@Z 00400000     States.obj
 0002:fffbe000       __ehfuncinfo$??0?$basic_string@DU?$char_traits@D@std@@V?$allocator@D@2@@std@@QAE@XZ 00400000     States.obj
 0002:fffbe000       __ehfuncinfo$??1?$_Alloc_construct_ptr@V?$allocator@U?$_Tree_node@U?$pair@$$CBV?$basic_string@DU?$char_traits@D@std@@V?$allocator@D@2@@std@@V?$shared_ptr@VRawImageData@@@2@@std@@PAX@std@@@std@@@std@@QAE@XZ 00400000     States.obj
 0002:fffbe000       __ehfuncinfo$??1?$_Alloc_construct_ptr@V?$allocator@U?$_Tree_node@U?$pair@$$CBV?$basic_string@DU?$char_traits@D@std@@V?$allocator@D@2@@std@@V?$weak_ptr@VRawImageData@@@2@@std@@PAX@std@@@std@@@std@@QAE@XZ 00400000     States.obj
 0002:fffbe000       __ehfuncinfo$??1?$_Tree_temp_node@V?$allocator@U?$_Tree_node@U?$pair@$$CBV?$basic_string@DU?$char_traits@D@std@@V?$allocator@D@2@@std@@V?$shared_ptr@VRawImageData@@@2@@std@@PAX@std@@@std@@@std@@QAE@XZ 00400000     States.obj
 0002:fffbe000       __ehfuncinfo$??1?$_Tree_temp_node@V?$allocator@U?$_Tree_node@U?$pair@$$CBV?$basic_string@DU?$char_traits@D@std@@V?$allocator@D@2@@std@@V?$weak_ptr@VRawImageData@@@2@@std@@PAX@std@@@std@@@std@@QAE@XZ 00400000     States.obj
 0002:fffbe000       __ehfuncinfo$??1?$basic_filebuf@DU?$char_traits@D@std@@@std@@UAE@XZ 00400000     States.obj
 0002:fffbe000       __ehfuncinfo$??1RawImageData@@QAE@XZ 00400000     States.obj
 0002:fffbe000       __ehfuncinfo$??1_Sentry_base@?$basic_ostream@DU?$char_traits@D@std@@@std@@QAE@XZ 00400000     States.obj
 0002:fffbe000       __ehfuncinfo$??1sentry@?$basic_ostream@DU?$char_traits@D@std@@@std@@QAE@XZ 00400000     States.obj
 0002:fffbe000       __ehfuncinfo$?_Take_contents@?$basic_string@DU?$char_traits@D@std@@V?$allocator@D@2@@std@@AAEXAAV12@@Z 00400000     States.obj
 0002:fffbe000       __ehfuncinfo$?_Tidy@?$vector@U?$pair@V?$basic_string@DU?$char_traits@D@std@@V?$allocator@D@2@@std@@H@std@@V?$allocator@U?$pair@V?$basic_string@DU?$char_traits@D@std@@V?$allocator@D@2@@std@@H@std@@@2@@std@@AAEXXZ 00400000     States.obj
 0002:fffbe000       __ehfuncinfo$?_Tidy_deallocate@?$basic_string@DU?$char_traits@D@std@@V?$allocator@D@2@@std@@AAEXXZ 00400000     States.obj
 0002:fffbe000       __ehfuncinfo$?getImagePtrbyURL@ImageManager@@QAE?AV?$shared_ptr@VRawImageData@@@std@@V?$basic_string@DU?$char_traits@D@std@@V?$allocator@D@2@@3@_N1@Z 00400000     States.obj
 0001:fffff000       __ehhandler$??$_Deallocate@$07$0A@@std@@YAXPAXI@Z 00400000 f   States.obj
 0001:fffff000       __ehhandler$??$_Deallocate_plain@V?$allocator@U_Container_proxy@std@@@std@@@std@@YAXAAV?$allocator@U_Container_proxy@std@@@0@QAU_Container_proxy@0@@Z 00400000 f   States.obj
 0001:fffff000       __ehhandler$??$_Destroy_range@V?$allocator@U?$pair@V?$basic_string@DU?$char_traits@D@std@@V?$allocator@D@2@@std@@H@std@@@std@@@std@@YAXPAU?$pair@V?$basic_string@DU?$char_traits@D@std@@V?$allocator@D@2@@std@@H@0@QAU10@AAV?$allocator@U?$pair@V?$basic_string@DU?$char_traits@D@std@@V?$allocator@D@2@@std@@H@std@@@0@@Z 00400000 f   States.obj
 0001:fffff000       __ehhandler$??$_Freenode0@V?$allocator@U?$_Tree_node@U?$pair@$$CBV?$basic_string@DU?$char_traits@D@std@@V?$allocator@D@2@@std@@V?$weak_ptr@VRawImageData@@@2@@std@@PAX@std@@@std@@@?$_Tree_node@U?$pair@$$CBV?$basic_string@DU?$char_traits@D@std@@V?$allocator@D@2@@std@@V?$weak_ptr@VRawImageData@@@2@@std@@PAX@std@@SAXAAV?$allocator@U?$_Tree_node@U?$pair@$$CBV?$basic_string@DU?$char_traits@D@std@@V?$allocator@D@2@@std@@V?$weak_ptr@VRawImageData@@@2@@std@@PAX@std@@@1@PAU01@@Z 00400000 f   States.obj
 0001:fffff000       __ehhandler$??$_Freenode@V?$allocator@U?$_Tree_node@U?$pair@$$CBV?$basic_string@DU?$char_traits@D@std@@V?$allocator@D@2@@std@@V?$weak_ptr@VRawImageData@@@2@@std@@PAX@std@@@std@@@?$_Tree_node@U?$pair@$$CBV?$basic_string@DU?$char_traits@D@std@@V?$allocator@D@2@@std@@V?$weak_ptr@VRawImageData@@@2@@std@@PAX@std@@SAXAAV?$allocator@U?$_Tree_node@U?$pair@$$CBV?$basic_string@DU?$char_traits@D@std@@V?$allocator@D@2@@std@@V?$weak_ptr@VRawImageData@@@2@@std@@PAX@std@@@1@PAU01@@Z 00400000 f   States.obj
 0001:fffff000       __ehhandler$??0?$basic_string@DU?$char_traits@D@std@@V?$allocator@D@2@@std@@QAE@$$QAV01@@Z 00400000 f   States.obj
 0001:fffff000       __ehhandler$??0?$basic_string@DU?$char_traits@D@std@@V?$allocator@D@2@@std@@QAE@XZ 00400000 f   States.obj
 0001:fffff000       __ehhandler$??1?$_Alloc_construct_ptr@V?$allocator@U?$_Tree_node@U?$pair@$$CBV?$basic_string@DU?$char_traits@D@std@@V?$allocator@D@2@@std@@V?$shared_ptr@VRawImageData@@@2@@std@@PAX@std@@@std@@@std@@QAE@XZ 00400000 f   States.obj
 0001:fffff000       __ehhandler$??1?$_Alloc_construct_ptr@V?$allocator@U?$_Tree_node@U?$pair@$$CBV?$basic_string@DU?$char_traits@D@std@@V?$allocator@D@2@@std@@V?$weak_ptr@VRawImageData@@@2@@std@@PAX@std@@@std@@@std@@QAE@XZ 00400000 f   States.obj
 0001:fffff000       __ehhandler$??1?$_Tree_temp_node@V?$allocator@U?$_Tree_node@U?$pair@$$CBV?$basic_string@DU?$char_traits@D@std@@V?$allocator@D@2@@std@@V?$shared_ptr@VRawImageData@@@2@@std@@PAX@std@@@std@@@std@@QAE@XZ 00400000 f   States.obj
 0001:fffff000       __ehhandler$??1?$_Tree_temp_node@V?$allocator@U?$_Tree_node@U?$pair@$$CBV?$basic_string@DU?$char_traits@D@std@@V?$allocator@D@2@@std@@V?$weak_ptr@VRawImageData@@@2@@std@@PAX@std@@@std@@@std@@QAE@XZ 00400000 f   States.obj
 0001:fffff000       __ehhandler$??1?$basic_filebuf@DU?$char_traits@D@std@@@std@@UAE@XZ 00400000 f   States.obj
 0001:fffff000       __ehhandler$??1RawImageData@@QAE@XZ 00400000 f   States.obj
 0001:fffff000       __ehhandler$??1_Sentry_base@?$basic_ostream@DU?$char_traits@D@std@@@std@@QAE@XZ 00400000 f   States.obj
 0001:fffff000       __ehhandler$??1sentry@?$basic_ostream@DU?$char_traits@D@std@@@std@@QAE@XZ 00400000 f   States.obj
 0001:fffff000       __ehhandler$?_Take_contents@?$basic_string@DU?$char_traits@D@std@@V?$allocator@D@2@@std@@AAEXAAV12@@Z 00400000 f   States.obj
 0001:fffff000       __ehhandler$?_Tidy@?$vector@U?$pair@V?$basic_string@DU?$char_traits@D@std@@V?$allocator@D@2@@std@@H@std@@V?$allocator@U?$pair@V?$basic_string@DU?$char_traits@D@std@@V?$allocator@D@2@@std@@H@std@@@2@@std@@AAEXXZ 00400000 f   States.obj
 0001:fffff000       __ehhandler$?_Tidy_deallocate@?$basic_string@DU?$char_traits@D@std@@V?$allocator@D@2@@std@@AAEXXZ 00400000 f   States.obj
 0001:fffff000       __unwindfunclet$??$?0U?$pair@V?$basic_string@DU?$char_traits@D@std@@V?$allocator@D@2@@std@@V?$shared_ptr@VRawImageData@@@2@@std@@@?$_Tree_temp_node@V?$allocator@U?$_Tree_node@U?$pair@$$CBV?$basic_string@DU?$char_traits@D@std@@V?$allocator@D@2@@std@@V?$shared_ptr@VRawImageData@@@2@@std@@PAX@std@@@std@@@std@@QAE@AAV?$allocator@U?$_Tree_node@U?$pair@$$CBV?$basic_string@DU?$char_traits@D@std@@V?$allocator@D@2@@std@@V?$shared_ptr@VRawImageData@@@2@@std@@PAX@std@@@1@PAU?$_Tree_node@U?$pair@$$CBV?$basic_string@DU?$char_traits@D@std@@V?$allocator@D@2@@std@@V?$shared_ptr@VRawImageData@@@2@@std@@PAX@1@$$QAU?$pair@V?$basic_string@DU?$char_traits@D@std@@V?$allocator@D@2@@std@@V?$shared_ptr@VRawImageData@@@2@@1@@Z$0 00400000 f   States.obj
 0001:fffff000       __unwindfunclet$??$?0U?$pair@V?$basic_string@DU?$char_traits@D@std@@V?$allocator@D@2@@std@@V?$weak_ptr@VRawImageData@@@2@@std@@@?$_Tree_temp_node@V?$allocator@U?$_Tree_node@U?$pair@$$CBV?$basic_string@DU?$char_traits@D@std@@V?$allocator@D@2@@std@@V?$weak_ptr@VRawImageData@@@2@@std@@PAX@std@@@std@@@std@@QAE@AAV?$allocator@U?$_Tree_node@U?$pair@$$CBV?$basic_string@DU?$char_traits@D@std@@V?$allocator@D@2@@std@@V?$weak_ptr@VRawImageData@@@2@@std@@PAX@std@@@1@PAU?$_Tree_node@U?$pair@$$CBV?$basic_string@DU?$char_traits@D@std@@V?$allocator@D@2@@std@@V?$weak_ptr@VRawImageData@@@2@@std@@PAX@1@$$QAU?$pair@V?$basic_string@DU?$char_traits@D@std@@V?$allocator@D@2@@std@@V?$weak_ptr@VRawImageData@@@2@@1@@Z$0 00400000 f   States.obj
 0001:fffff000       __unwindfunclet$??$?0VRawImageData@@$0A@@?$shared_ptr@VRawImageData@@@std@@QAE@PAVRawImageData@@@Z$0 00400000 f   States.obj
 0001:fffff000       __unwindfunclet$??$?6U?$char_traits@D@std@@@std@@YAAAV?$basic_ostream@DU?$char_traits@D@std@@@0@AAV10@PBD@Z$2 00400000 f   States.obj
 0001:fffff000       __unwindfunclet$??$_Construct@$01PBD@?$basic_string@DU?$char_traits@D@std@@V?$allocator@D@2@@std@@AAEXQBDI@Z$0 00400000 f   States.obj
 0001:fffff000       __unwindfunclet$??$_Insert_string@DU?$char_traits@D@std@@I@std@@YAAAV?$basic_ostream@DU?$char_traits@D@std@@@0@AAV10@QBDI@Z$2 00400000 f   States.obj
 0001:fffff000       __unwindfunclet$??$use_facet@V?$codecvt@DDU_Mbstatet@@@std@@@std@@YAABV?$codecvt@DDU_Mbstatet@@@0@ABVlocale@0@@Z$0 00400000 f   States.obj
 0001:fffff000       __unwindfunclet$??0?$_Tree_temp_node_alloc@V?$allocator@U?$_Tree_node@U?$pair@$$CBV?$basic_string@DU?$char_traits@D@std@@V?$allocator@D@2@@std@@V?$shared_ptr@VRawImageData@@@2@@std@@PAX@std@@@std@@@std@@QAE@AAV?$allocator@U?$_Tree_node@U?$pair@$$CBV?$basic_string@DU?$char_traits@D@std@@V?$allocator@D@2@@std@@V?$shared_ptr@VRawImageData@@@2@@std@@PAX@std@@@1@@Z$0 00400000 f   States.obj
 0001:fffff000       __unwindfunclet$??0?$_Tree_temp_node_alloc@V?$allocator@U?$_Tree_node@U?$pair@$$CBV?$basic_string@DU?$char_traits@D@std@@V?$allocator@D@2@@std@@V?$weak_ptr@VRawImageData@@@2@@std@@PAX@std@@@std@@@std@@QAE@AAV?$allocator@U?$_Tree_node@U?$pair@$$CBV?$basic_string@DU?$char_traits@D@std@@V?$allocator@D@2@@std@@V?$weak_ptr@VRawImageData@@@2@@std@@PAX@std@@@1@@Z$0 00400000 f   States.obj
 0001:fffff000       __unwindfunclet$??0?$basic_filebuf@DU?$char_traits@D@std@@@std@@QAE@XZ$0 00400000 f   States.obj
 0001:fffff000       __unwindfunclet$??0?$basic_string@DU?$char_traits@D@std@@V?$allocator@D@2@@std@@QAE@ABV01@@Z$0 00400000 f   States.obj
 0001:fffff000       __unwindfunclet$??0ImageManager@@QAE@XZ$0 00400000 f   States.obj
 0001:fffff000       __unwindfunclet$??0RawImageData@@QAE@V?$basic_string@DU?$char_traits@D@std@@V?$allocator@D@2@@std@@@Z$0 00400000 f   States.obj
 0001:fffff000       __unwindfunclet$??0sentry@?$basic_ostream@DU?$char_traits@D@std@@@std@@QAE@AAV12@@Z$0 00400000 f   States.obj
 0001:fffff000       __unwindfunclet$?_Alloc_sentinel_and_proxy@?$_Tree@V?$_Tmap_traits@V?$basic_string@DU?$char_traits@D@std@@V?$allocator@D@2@@std@@V?$shared_ptr@VRawImageData@@@2@U?$less@V?$basic_string@DU?$char_traits@D@std@@V?$allocator@D@2@@std@@@2@V?$allocator@U?$pair@$$CBV?$basic_string@DU?$char_traits@D@std@@V?$allocator@D@2@@std@@V?$shared_ptr@VRawImageData@@@2@@std@@@2@$0A@@std@@@std@@IAEXXZ$0 00400000 f   States.obj
 0001:fffff000       __unwindfunclet$?_Alloc_sentinel_and_proxy@?$_Tree@V?$_Tmap_traits@V?$basic_string@DU?$char_traits@D@std@@V?$allocator@D@2@@std@@V?$weak_ptr@VRawImageData@@@2@U?$less@V?$basic_string@DU?$char_traits@D@std@@V?$allocator@D@2@@std@@@2@V?$allocator@U?$pair@$$CBV?$basic_string@DU?$char_traits@D@std@@V?$allocator@D@2@@std@@V?$weak_ptr@VRawImageData@@@2@@std@@@2@$0A@@std@@@std@@IAEXXZ$0 00400000 f   States.obj
 0001:fffff000       __unwindfunclet$?get@ImageManager@@SAPAV1@XZ$0 00400000 f   States.obj
 0001:fffff000       __unwindfunclet$?getImagePtrbyURL@ImageManager@@QAE?AV?$shared_ptr@VRawImageData@@@std@@V?$basic_string@DU?$char_traits@D@std@@V?$allocator@D@2@@3@_N1@Z$0 00400000 f   States.obj
 0001:fffff000       __unwindfunclet$?getImagebyURL@ImageManager@@QAE?AVSimpleImage@@V?$basic_string@DU?$char_traits@D@std@@V?$allocator@D@2@@std@@_N1@Z$0 00400000 f   States.obj
 0001:fffff000       __unwindfunclet$?loadAsNew@ImageManager@@QAE?AV?$shared_ptr@VRawImageData@@@std@@V?$basic_string@DU?$char_traits@D@std@@V?$allocator@D@2@@3@@Z$0 00400000 f   States.obj
 0001:fffff000       __unwindfunclet$?loadImage@ImageManager@@SA?AVSimpleImage@@V?$basic_string@DU?$char_traits@D@std@@V?$allocator@D@2@@std@@_N@Z$0 00400000 f   States.obj
 0001:fffff000       __unwindfunclet$?loadImage@RawImageData@@QAE_NV?$basic_string@DU?$char_traits@D@std@@V?$allocator@D@2@@std@@HHHHH_N@Z$0 00400000 f   States.obj
 0001:fffff000       __unwindfunclet$?open@?$basic_filebuf@DU?$char_traits@D@std@@@std@@QAEPAV12@PBDHH@Z$0 00400000 f   States.obj
 0001:fffff000       __unwindfunclet$?uflow@?$basic_filebuf@DU?$char_traits@D@std@@@std@@MAEHXZ$0 00400000 f   States.obj
 0002:fffbe000       __unwindtable$??$?0U?$pair@V?$basic_string@DU?$char_traits@D@std@@V?$allocator@D@2@@std@@V?$shared_ptr@VRawImageData@@@2@@std@@@?$_Tree_temp_node@V?$allocator@U?$_Tree_node@U?$pair@$$CBV?$basic_string@DU?$char_traits@D@std@@V?$allocator@D@2@@std@@V?$shared_ptr@VRawImageData@@@2@@std@@PAX@std@@@std@@@std@@QAE@AAV?$allocator@U?$_Tree_node@U?$pair@$$CBV?$basic_string@DU?$char_traits@D@std@@V?$allocator@D@2@@std@@V?$shared_ptr@VRawImageData@@@2@@std@@PAX@std@@@1@PAU?$_Tree_node@U?$pair@$$CBV?$basic_string@DU?$char_traits@D@std@@V?$allocator@D@2@@std@@V?$shared_ptr@VRawImageData@@@2@@std@@PAX@1@$$QAU?$pair@V?$basic_string@DU?$char_traits@D@std@@V?$allocator@D@2@@std@@V?$shared_ptr@VRawImageData@@@2@@1@@Z 00400000     States.obj
 0002:fffbe000       __unwindtable$??$?0U?$pair@V?$basic_string@DU?$char_traits@D@std@@V?$allocator@D@2@@std@@V?$weak_ptr@VRawImageData@@@2@@std@@@?$_Tree_temp_node@V?$allocator@U?$_Tree_node@U?$pair@$$CBV?$basic_string@DU?$char_traits@D@std@@V?$allocator@D@2@@std@@V?$weak_ptr@VRawImageData@@@2@@std@@PAX@std@@@std@@@std@@QAE@AAV?$allocator@U?$_Tree_node@U?$pair@$$CBV?$basic_string@DU?$char_traits@D@std@@V?$allocator@D@2@@std@@V?$weak_ptr@VRawImageData@@@2@@std@@PAX@std@@@1@PAU?$_Tree_node@U?$pair@$$CBV?$basic_string@DU?$char_traits@D@std@@V?$allocator@D@2@@std@@V?$weak_ptr@VRawImageData@@@2@@std@@PAX@1@$$QAU?$pair@V?$basic_string@DU?$char_traits@D@std@@V?$allocator@D@2@@std@@V?$weak_ptr@VRawImageData@@@2@@1@@Z 00400000     States.obj
 0002:fffbe000       __unwindtable$??$?0VRawImageData@@$0A@@?$shared_ptr@VRawImageData@@@std@@QAE@PAVRawImageData@@@Z 00400000     States.obj
 0002:fffbe000       __unwindtable$??$_Construct@$01PBD@?$basic_string@DU?$char_traits@D@std@@V?$allocator@D@2@@std@@AAEXQBDI@Z 00400000     States.obj
 0002:fffbe000       __unwindtable$??$use_facet@V?$codecvt@DDU_Mbstatet@@@std@@@std@@YAABV?$codecvt@DDU_Mbstatet@@@0@ABVlocale@0@@Z 00400000     States.obj
 0002:fffbe000       __unwindtable$??0?$_Tree_temp_node_alloc@V?$allocator@U?$_Tree_node@U?$pair@$$CBV?$basic_string@DU?$char_traits@D@std@@V?$allocator@D@2@@std@@V?$shared_ptr@VRawImageData@@@2@@std@@PAX@std@@@std@@@std@@QAE@AAV?$allocator@U?$_Tree_node@U?$pair@$$CBV?$basic_string@DU?$char_traits@D@std@@V?$allocator@D@2@@std@@V?$shared_ptr@VRawImageData@@@2@@std@@PAX@std@@@1@@Z 00400000     States.obj
 0002:fffbe000       __unwindtable$??0?$_Tree_temp_node_alloc@V?$allocator@U?$_Tree_node@U?$pair@$$CBV?$basic_string@DU?$char_traits@D@std@@V?$allocator@D@2@@std@@V?$weak_ptr@VRawImageData@@@2@@std@@PAX@std@@@std@@@std@@QAE@AAV?$allocator@U?$_Tree_node@U?$pair@$$CBV?$basic_string@DU?$char_traits@D@std@@V?$allocator@D@2@@std@@V?$weak_ptr@VRawImageData@@@2@@std@@PAX@std@@@1@@Z 00400000     States.obj
 0002:fffbe000       __unwindtable$??0?$basic_filebuf@DU?$char_traits@D@std@@@std@@QAE@XZ 00400000     States.obj
 0002:fffbe000       __unwindtable$??0?$basic_string@DU?$char_traits@D@std@@V?$allocator@D@2@@std@@QAE@ABV01@@Z 00400000     States.obj
 0002:fffbe000       __unwindtable$??0ImageManager@@QAE@XZ 00400000     States.obj
 0002:fffbe000       __unwindtable$??0RawImageData@@QAE@V?$basic_string@DU?$char_traits@D@std@@V?$allocator@D@2@@std@@@Z 00400000     States.obj
 0002:fffbe000       __unwindtable$??0sentry@?$basic_ostream@DU?$char_traits@D@std@@@std@@QAE@AAV12@@Z 00400000     States.obj
 0002:fffbe000       __unwindtable$?_Alloc_sentinel_and_proxy@?$_Tree@V?$_Tmap_traits@V?$basic_string@DU?$char_traits@D@std@@V?$allocator@D@2@@std@@V?$shared_ptr@VRawImageData@@@2@U?$less@V?$basic_string@DU?$char_traits@D@std@@V?$allocator@D@2@@std@@@2@V?$allocator@U?$pair@$$CBV?$basic_string@DU?$char_traits@D@std@@V?$allocator@D@2@@std@@V?$shared_ptr@VRawImageData@@@2@@std@@@2@$0A@@std@@@std@@IAEXXZ 00400000     States.obj
 0002:fffbe000       __unwindtable$?_Alloc_sentinel_and_proxy@?$_Tree@V?$_Tmap_traits@V?$basic_string@DU?$char_traits@D@std@@V?$allocator@D@2@@std@@V?$weak_ptr@VRawImageData@@@2@U?$less@V?$basic_string@DU?$char_traits@D@std@@V?$allocator@D@2@@std@@@2@V?$allocator@U?$pair@$$CBV?$basic_string@DU?$char_traits@D@std@@V?$allocator@D@2@@std@@V?$weak_ptr@VRawImageData@@@2@@std@@@2@$0A@@std@@@std@@IAEXXZ 00400000     States.obj
 0002:fffbe000       __unwindtable$?get@ImageManager@@SAPAV1@XZ 00400000     States.obj
 0002:fffbe000       __unwindtable$?getImagebyURL@ImageManager@@QAE?AVSimpleImage@@V?$basic_string@DU?$char_traits@D@std@@V?$allocator@D@2@@std@@_N1@Z 00400000     States.obj
 0002:fffbe000       __unwindtable$?loadAsNew@ImageManager@@QAE?AV?$shared_ptr@VRawImageData@@@std@@V?$basic_string@DU?$char_traits@D@std@@V?$allocator@D@2@@3@@Z 00400000     States.obj
 0002:fffbe000       __unwindtable$?loadImage@ImageManager@@SA?AVSimpleImage@@V?$basic_string@DU?$char_traits@D@std@@V?$allocator@D@2@@std@@_N@Z 00400000     States.obj
 0002:fffbe000       __unwindtable$?loadImage@RawImageData@@QAE_NV?$basic_string@DU?$char_traits@D@std@@V?$allocator@D@2@@std@@HHHHH_N@Z 00400000     States.obj
 0002:fffbe000       __unwindtable$?open@?$basic_filebuf@DU?$char_traits@D@std@@@std@@QAEPAV12@PBDHH@Z 00400000     States.obj
 0002:fffbe000       __unwindtable$?uflow@?$basic_filebuf@DU?$char_traits@D@std@@@std@@MAEHXZ 00400000     States.obj
 0000:00000000       _volmd                     00400000     States.obj
 0000:00000000       _volmd                     00400000     States.obj
 0000:00000000       _volmd                     00400000     States.obj
 0000:00000000       _volmd                     00400000     States.obj
 0000:00000000       _volmd                     00400000     States.obj
 0000:00000000       _volmd                     00400000     States.obj
 0000:00000000       _volmd                     00400000     States.obj
 0000:00000000       _volmd                     00400000     States.obj
 0000:00000000       _volmd                     00400000     States.obj
 0000:00000000       _volmd                     00400000     States.obj
 0000:00000000       _volmd                     00400000     States.obj
 0000:00000000       _volmd                     00400000     States.obj
 0000:00000000       _volmd                     00400000     States.obj
 0000:00000000       _volmd                     00400000     States.obj
 0000:00000000       _volmd                     00400000     States.obj
 0000:00000000       _volmd                     00400000     States.obj
 0000:00000000       _volmd                     00400000     States.obj
 0000:00000000       _volmd                     00400000     States.obj
 0000:00000000       _volmd                     00400000     States.obj
 0000:00000000       _volmd                     00400000     States.obj
 0000:00000000       _volmd                     00400000     States.obj
 0000:00000000       _volmd                     00400000     States.obj
 0000:00000000       _volmd                     00400000     States.obj
 0000:00000000       _volmd                     00400000     States.obj
 0000:00000000       _volmd                     00400000     States.obj
 0000:00000000       _volmd                     00400000     States.obj
 0000:00000000       _volmd                     00400000     States.obj
 0000:00000000       _volmd                     00400000     States.obj
 0000:00000000       _volmd                     00400000     States.obj
 0000:00000000       _volmd                     00400000     States.obj
 0000:00000000       _volmd                     00400000     States.obj
 0000:00000000       _volmd                     00400000     States.obj
 0000:00000000       _volmd                     00400000     States.obj
 0000:00000000       _volmd                     00400000     States.obj
 0000:00000000       _volmd                     00400000     States.obj
 0000:00000000       _volmd                     00400000     States.obj
 0000:00000000       _volmd                     00400000     States.obj
 0000:00000000       _volmd                     00400000     States.obj
 0000:00000000       _volmd                     00400000     States.obj
 0000:00000000       _volmd                     00400000     States.obj
 0000:00000000       _volmd                     00400000     States.obj
 0000:00000000       _volmd                     00400000     States.obj
 0000:00000000       _volmd                     00400000     States.obj
 0000:00000000       _volmd                     00400000     States.obj
 0000:00000000       _volmd                     00400000     States.obj
 0000:00000000       _volmd                     00400000     States.obj
 0000:00000000       _volmd                     00400000     States.obj
 0000:00000000       _volmd                     00400000     States.obj
 0000:00000000       _volmd                     00400000     States.obj
 0000:00000000       _volmd                     00400000     States.obj
 0000:00000000       _volmd                     00400000     States.obj
 0000:00000000       _volmd                     00400000     States.obj
 0000:00000000       _volmd                     00400000     States.obj
 0000:00000000       _volmd                     00400000     States.obj
 0000:00000000       _volmd                     00400000     States.obj
 0000:00000000       _volmd                     00400000     States.obj
 0000:00000000       _volmd                     00400000     States.obj
 0000:00000000       _volmd                     00400000     States.obj
 0000:00000000       _volmd                     00400000     States.obj
 0000:00000000       _volmd                     00400000     States.obj
 0000:00000000       _volmd                     00400000     States.obj
 0000:00000000       _volmd                     00400000     States.obj
 0000:00000000       _volmd                     00400000     States.obj
 0000:00000000       _volmd                     00400000     States.obj
 0000:00000000       _volmd                     00400000     States.obj
 0000:00000000       _volmd                     00400000     States.obj
 0000:00000000       _volmd                     00400000     States.obj
 0000:00000000       _volmd                     00400000     States.obj
 0002:fffbe000       __catchsym$??$?6U?$char_traits@D@std@@@std@@YAAAV?$basic_ostream@DU?$char_traits@D@std@@@0@AAV10@PBD@Z$3 00400000     ZoomingDemo.obj
 0002:fffbe000       __catchsym$??$_Insert_string@DU?$char_traits@D@std@@I@std@@YAAAV?$basic_ostream@DU?$char_traits@D@std@@@0@AAV10@QBDI@Z$3 00400000     ZoomingDemo.obj
 0002:fffbe000       __catchsym$??$_Resize_reallocate@U_Value_init_tag@std@@@?$vector@PAVDisplayableObject@@V?$allocator@PAVDisplayableObject@@@std@@@std@@AAEXIABU_Value_init_tag@1@@Z$2 00400000     ZoomingDemo.obj
 0002:fffbe000       __ehfuncinfo$??$_Deallocate@$07$0A@@std@@YAXPAXI@Z 00400000     ZoomingDemo.obj
 0002:fffbe000       __ehfuncinfo$??$_Deallocate_plain@V?$allocator@U_Container_proxy@std@@@std@@@std@@YAXAAV?$allocator@U_Container_proxy@std@@@0@QAU_Container_proxy@0@@Z 00400000     ZoomingDemo.obj
 0002:fffbe000       __ehfuncinfo$??$_Freenode0@V?$allocator@U?$_Tree_node@U?$pair@$$CBV?$basic_string@DU?$char_traits@D@std@@V?$allocator@D@2@@std@@V?$weak_ptr@VRawImageData@@@2@@std@@PAX@std@@@std@@@?$_Tree_node@U?$pair@$$CBV?$basic_string@DU?$char_traits@D@std@@V?$allocator@D@2@@std@@V?$weak_ptr@VRawImageData@@@2@@std@@PAX@std@@SAXAAV?$allocator@U?$_Tree_node@U?$pair@$$CBV?$basic_string@DU?$char_traits@D@std@@V?$allocator@D@2@@std@@V?$weak_ptr@VRawImageData@@@2@@std@@PAX@std@@@1@PAU01@@Z 00400000     ZoomingDemo.obj
 0002:fffbe000       __ehfuncinfo$??$_Freenode@V?$allocator@U?$_Tree_node@U?$pair@$$CBV?$basic_string@DU?$char_traits@D@std@@V?$allocator@D@2@@std@@V?$weak_ptr@VRawImageData@@@2@@std@@PAX@std@@@std@@@?$_Tree_node@U?$pair@$$CBV?$basic_string@DU?$char_traits@D@std@@V?$allocator@D@2@@std@@V?$weak_ptr@VRawImageData@@@2@@std@@PAX@std@@SAXAAV?$allocator@U?$_Tree_node@U?$pair@$$CBV?$basic_string@DU?$char_traits@D@std@@V?$allocator@D@2@@std@@V?$weak_ptr@VRawImageData@@@2@@std@@PAX@std@@@1@PAU01@@Z 00400000     ZoomingDemo.obj
 0002:fffbe000       __ehfuncinfo$??0?$basic_string@DU?$char_traits@D@std@@V?$allocator@D@2@@std@@QAE@$$QAV01@@Z 00400000     ZoomingDemo.obj
 0002:fffbe000       __ehfuncinfo$??1?$_Alloc_construct_ptr@V?$allocator@U?$_Tree_node@U?$pair@$$CBV?$basic_string@DU?$char_traits@D@std@@V?$allocator@D@2@@std@@V?$shared_ptr@VRawImageData@@@2@@std@@PAX@std@@@std@@@std@@QAE@XZ 00400000     ZoomingDemo.obj
 0002:fffbe000       __ehfuncinfo$??1?$_Alloc_construct_ptr@V?$allocator@U?$_Tree_node@U?$pair@$$CBV?$basic_string@DU?$char_traits@D@std@@V?$allocator@D@2@@std@@V?$weak_ptr@VRawImageData@@@2@@std@@PAX@std@@@std@@@std@@QAE@XZ 00400000     ZoomingDemo.obj
 0002:fffbe000       __ehfuncinfo$??1?$_Tree_temp_node@V?$allocator@U?$_Tree_node@U?$pair@$$CBV?$basic_string@DU?$char_traits@D@std@@V?$allocator@D@2@@std@@V?$shared_ptr@VRawImageData@@@2@@std@@PAX@std@@@std@@@std@@QAE@XZ 00400000     ZoomingDemo.obj
 0002:fffbe000       __ehfuncinfo$??1?$_Tree_temp_node@V?$allocator@U?$_Tree_node@U?$pair@$$CBV?$basic_string@DU?$char_traits@D@std@@V?$allocator@D@2@@std@@V?$weak_ptr@VRawImageData@@@2@@std@@PAX@std@@@std@@@std@@QAE@XZ 00400000     ZoomingDemo.obj
 0002:fffbe000       __ehfuncinfo$??1RawImageData@@QAE@XZ 00400000     ZoomingDemo.obj
 0002:fffbe000       __ehfuncinfo$??1_Sentry_base@?$basic_ostream@DU?$char_traits@D@std@@@std@@QAE@XZ 00400000     ZoomingDemo.obj
 0002:fffbe000       __ehfuncinfo$??1sentry@?$basic_ostream@DU?$char_traits@D@std@@@std@@QAE@XZ 00400000     ZoomingDemo.obj
 0002:fffbe000       __ehfuncinfo$?_Take_contents@?$basic_string@DU?$char_traits@D@std@@V?$allocator@D@2@@std@@AAEXAAV12@@Z 00400000     ZoomingDemo.obj
 0002:fffbe000       __ehfuncinfo$?_Tidy_deallocate@?$basic_string@DU?$char_traits@D@std@@V?$allocator@D@2@@std@@AAEXXZ 00400000     ZoomingDemo.obj
 0002:fffbe000       __ehfuncinfo$?getImagePtrbyURL@ImageManager@@QAE?AV?$shared_ptr@VRawImageData@@@std@@V?$basic_string@DU?$char_traits@D@std@@V?$allocator@D@2@@3@_N1@Z 00400000     ZoomingDemo.obj
 0001:fffff000       __ehhandler$??$_Deallocate@$07$0A@@std@@YAXPAXI@Z 00400000 f   ZoomingDemo.obj
 0001:fffff000       __ehhandler$??$_Deallocate_plain@V?$allocator@U_Container_proxy@std@@@std@@@std@@YAXAAV?$allocator@U_Container_proxy@std@@@0@QAU_Container_proxy@0@@Z 00400000 f   ZoomingDemo.obj
 0001:fffff000       __ehhandler$??$_Freenode0@V?$allocator@U?$_Tree_node@U?$pair@$$CBV?$basic_string@DU?$char_traits@D@std@@V?$allocator@D@2@@std@@V?$weak_ptr@VRawImageData@@@2@@std@@PAX@std@@@std@@@?$_Tree_node@U?$pair@$$CBV?$basic_string@DU?$char_traits@D@std@@V?$allocator@D@2@@std@@V?$weak_ptr@VRawImageData@@@2@@std@@PAX@std@@SAXAAV?$allocator@U?$_Tree_node@U?$pair@$$CBV?$basic_string@DU?$char_traits@D@std@@V?$allocator@D@2@@std@@V?$weak_ptr@VRawImageData@@@2@@std@@PAX@std@@@1@PAU01@@Z 00400000 f   ZoomingDemo.obj
 0001:fffff000       __ehhandler$??$_Freenode@V?$allocator@U?$_Tree_node@U?$pair@$$CBV?$basic_string@DU?$char_traits@D@std@@V?$allocator@D@2@@std@@V?$weak_ptr@VRawImageData@@@2@@std@@PAX@std@@@std@@@?$_Tree_node@U?$pair@$$CBV?$basic_string@DU?$char_traits@D@std@@V?$allocator@D@2@@std@@V?$weak_ptr@VRawImageData@@@2@@std@@PAX@std@@SAXAAV?$allocator@U?$_Tree_node@U?$pair@$$CBV?$basic_string@DU?$char_traits@D@std@@V?$allocator@D@2@@std@@V?$weak_ptr@VRawImageData@@@2@@std@@PAX@std@@@1@PAU01@@Z 00400000 f   ZoomingDemo.obj
 0001:fffff000       __ehhandler$??$_Resize_reallocate@U_Value_init_tag@std@@@?$vector@PAVDisplayableObject@@V?$allocator@PAVDisplayableObject@@@std@@@std@@AAEXIABU_Value_init_tag@1@@Z 00400000 f   ZoomingDemo.obj
 0001:fffff000       __ehhandler$??0?$basic_string@DU?$char_traits@D@std@@V?$allocator@D@2@@std@@QAE@$$QAV01@@Z 00400000 f   ZoomingDemo.obj
 0001:fffff000       __ehhandler$??1?$_Alloc_construct_ptr@V?$allocator@U?$_Tree_node@U?$pair@$$CBV?$basic_string@DU?$char_traits@D@std@@V?$allocator@D@2@@std@@V?$shared_ptr@VRawImageData@@@2@@std@@PAX@std@@@std@@@std@@QAE@XZ 00400000 f   ZoomingDemo.obj
 0001:fffff000       __ehhandler$??1?$_Alloc_construct_ptr@V?$allocator@U?$_Tree_node@U?$pair@$$CBV?$basic_string@DU?$char_traits@D@std@@V?$allocator@D@2@@std@@V?$weak_ptr@VRawImageData@@@2@@std@@PAX@std@@@std@@@std@@QAE@XZ 00400000 f   ZoomingDemo.obj
 0001:fffff000       __ehhandler$??1?$_Tree_temp_node@V?$allocator@U?$_Tree_node@U?$pair@$$CBV?$basic_string@DU?$char_traits@D@std@@V?$allocator@D@2@@std@@V?$shared_ptr@VRawImageData@@@2@@std@@PAX@std@@@std@@@std@@QAE@XZ 00400000 f   ZoomingDemo.obj
 0001:fffff000       __ehhandler$??1?$_Tree_temp_node@V?$allocator@U?$_Tree_node@U?$pair@$$CBV?$basic_string@DU?$char_traits@D@std@@V?$allocator@D@2@@std@@V?$weak_ptr@VRawImageData@@@2@@std@@PAX@std@@@std@@@std@@QAE@XZ 00400000 f   ZoomingDemo.obj
 0001:fffff000       __ehhandler$??1RawImageData@@QAE@XZ 00400000 f   ZoomingDemo.obj
 0001:fffff000       __ehhandler$??1_Sentry_base@?$basic_ostream@DU?$char_traits@D@std@@@std@@QAE@XZ 00400000 f   ZoomingDemo.obj
 0001:fffff000       __ehhandler$??1sentry@?$basic_ostream@DU?$char_traits@D@std@@@std@@QAE@XZ 00400000 f   ZoomingDemo.obj
 0001:fffff000       __ehhandler$?_Take_contents@?$basic_string@DU?$char_traits@D@std@@V?$allocator@D@2@@std@@AAEXAAV12@@Z 00400000 f   ZoomingDemo.obj
 0001:fffff000       __ehhandler$?_Tidy_deallocate@?$basic_string@DU?$char_traits@D@std@@V?$allocator@D@2@@std@@AAEXXZ 00400000 f   ZoomingDemo.obj
 0001:fffff000       __unwindfunclet$??$?0U?$pair@V?$basic_string@DU?$char_traits@D@std@@V?$allocator@D@2@@std@@V?$shared_ptr@VRawImageData@@@2@@std@@@?$_Tree_temp_node@V?$allocator@U?$_Tree_node@U?$pair@$$CBV?$basic_string@DU?$char_traits@D@std@@V?$allocator@D@2@@std@@V?$shared_ptr@VRawImageData@@@2@@std@@PAX@std@@@std@@@std@@QAE@AAV?$allocator@U?$_Tree_node@U?$pair@$$CBV?$basic_string@DU?$char_traits@D@std@@V?$allocator@D@2@@std@@V?$shared_ptr@VRawImageData@@@2@@std@@PAX@std@@@1@PAU?$_Tree_node@U?$pair@$$CBV?$basic_string@DU?$char_traits@D@std@@V?$allocator@D@2@@std@@V?$shared_ptr@VRawImageData@@@2@@std@@PAX@1@$$QAU?$pair@V?$basic_string@DU?$char_traits@D@std@@V?$allocator@D@2@@std@@V?$shared_ptr@VRawImageData@@@2@@1@@Z$0 00400000 f   ZoomingDemo.obj
 0001:fffff000       __unwindfunclet$??$?0U?$pair@V?$basic_string@DU?$char_traits@D@std@@V?$allocator@D@2@@std@@V?$weak_ptr@VRawImageData@@@2@@std@@@?$_Tree_temp_node@V?$allocator@U?$_Tree_node@U?$pair@$$CBV?$basic_string@DU?$char_traits@D@std@@V?$allocator@D@2@@std@@V?$weak_ptr@VRawImageData@@@2@@std@@PAX@std@@@std@@@std@@QAE@AAV?$allocator@U?$_Tree_node@U?$pair@$$CBV?$basic_string@DU?$char_traits@D@std@@V?$allocator@D@2@@std@@V?$weak_ptr@VRawImageData@@@2@@std@@PAX@std@@@1@PAU?$_Tree_node@U?$pair@$$CBV?$basic_string@DU?$char_traits@D@std@@V?$allocator@D@2@@std@@V?$weak_ptr@VRawImageData@@@2@@std@@PAX@1@$$QAU?$pair@V?$basic_string@DU?$char_traits@D@std@@V?$allocator@D@2@@std@@V?$weak_ptr@VRawImageData@@@2@@1@@Z$0 00400000 f   ZoomingDemo.obj
 0001:fffff000       __unwindfunclet$??$?0VRawImageData@@$0A@@?$shared_ptr@VRawImageData@@@std@@QAE@PAVRawImageData@@@Z$0 00400000 f   ZoomingDemo.obj
 0001:fffff000       __unwindfunclet$??$?6U?$char_traits@D@std@@@std@@YAAAV?$basic_ostream@DU?$char_traits@D@std@@@0@AAV10@PBD@Z$2 00400000 f   ZoomingDemo.obj
 0001:fffff000       __unwindfunclet$??$_Construct@$00PBD@?$basic_string@DU?$char_traits@D@std@@V?$allocator@D@2@@std@@AAEXQBDI@Z$0 00400000 f   ZoomingDemo.obj
 0001:fffff000       __unwindfunclet$??$_Construct@$01PBD@?$basic_string@DU?$char_traits@D@std@@V?$allocator@D@2@@std@@AAEXQBDI@Z$0 00400000 f   ZoomingDemo.obj
 0001:fffff000       __unwindfunclet$??$_Insert_string@DU?$char_traits@D@std@@I@std@@YAAAV?$basic_ostream@DU?$char_traits@D@std@@@0@AAV10@QBDI@Z$2 00400000 f   ZoomingDemo.obj
 0001:fffff000       __unwindfunclet$??$_Uninitialized_move@PAPAVDisplayableObject@@V?$allocator@PAVDisplayableObject@@@std@@@std@@YAPAPAVDisplayableObject@@QAPAV1@0PAPAV1@AAV?$allocator@PAVDisplayableObject@@@0@@Z$0 00400000 f   ZoomingDemo.obj
 0001:fffff000       __unwindfunclet$??$_Uninitialized_value_construct_n@V?$allocator@PAVDisplayableObject@@@std@@@std@@YAPAPAVDisplayableObject@@PAPAV1@IAAV?$allocator@PAVDisplayableObject@@@0@@Z$0 00400000 f   ZoomingDemo.obj
 0001:fffff000       __unwindfunclet$??0?$_Tree_temp_node_alloc@V?$allocator@U?$_Tree_node@U?$pair@$$CBV?$basic_string@DU?$char_traits@D@std@@V?$allocator@D@2@@std@@V?$shared_ptr@VRawImageData@@@2@@std@@PAX@std@@@std@@@std@@QAE@AAV?$allocator@U?$_Tree_node@U?$pair@$$CBV?$basic_string@DU?$char_traits@D@std@@V?$allocator@D@2@@std@@V?$shared_ptr@VRawImageData@@@2@@std@@PAX@std@@@1@@Z$0 00400000 f   ZoomingDemo.obj
 0001:fffff000       __unwindfunclet$??0?$_Tree_temp_node_alloc@V?$allocator@U?$_Tree_node@U?$pair@$$CBV?$basic_string@DU?$char_traits@D@std@@V?$allocator@D@2@@std@@V?$weak_ptr@VRawImageData@@@2@@std@@PAX@std@@@std@@@std@@QAE@AAV?$allocator@U?$_Tree_node@U?$pair@$$CBV?$basic_string@DU?$char_traits@D@std@@V?$allocator@D@2@@std@@V?$weak_ptr@VRawImageData@@@2@@std@@PAX@std@@@1@@Z$0 00400000 f   ZoomingDemo.obj
 0001:fffff000       __unwindfunclet$??0?$basic_string@DU?$char_traits@D@std@@V?$allocator@D@2@@std@@QAE@ABV01@@Z$0 00400000 f   ZoomingDemo.obj
 0001:fffff000       __unwindfunclet$??0?$basic_string@DU?$char_traits@D@std@@V?$allocator@D@2@@std@@QAE@QBD@Z$0 00400000 f   ZoomingDemo.obj
 0001:fffff000       __unwindfunclet$??0DragableImageObject@@QAE@HHPAVBaseEngine@@V?$basic_string@DU?$char_traits@D@std@@V?$allocator@D@2@@std@@_N2@Z$0 00400000 f   ZoomingDemo.obj
 0001:fffff000       __unwindfunclet$??0DragableObject@@QAE@HHPAVBaseEngine@@HH_N1@Z$0 00400000 f   ZoomingDemo.obj
 0001:fffff000       __unwindfunclet$??0ImageManager@@QAE@XZ$0 00400000 f   ZoomingDemo.obj
 0001:fffff000       __unwindfunclet$??0RawImageData@@QAE@V?$basic_string@DU?$char_traits@D@std@@V?$allocator@D@2@@std@@@Z$0 00400000 f   ZoomingDemo.obj
 0001:fffff000       __unwindfunclet$??0sentry@?$basic_ostream@DU?$char_traits@D@std@@@std@@QAE@AAV12@@Z$0 00400000 f   ZoomingDemo.obj
 0001:fffff000       __unwindfunclet$?_Alloc_sentinel_and_proxy@?$_Tree@V?$_Tmap_traits@V?$basic_string@DU?$char_traits@D@std@@V?$allocator@D@2@@std@@V?$shared_ptr@VRawImageData@@@2@U?$less@V?$basic_string@DU?$char_traits@D@std@@V?$allocator@D@2@@std@@@2@V?$allocator@U?$pair@$$CBV?$basic_string@DU?$char_traits@D@std@@V?$allocator@D@2@@std@@V?$shared_ptr@VRawImageData@@@2@@std@@@2@$0A@@std@@@std@@IAEXXZ$0 00400000 f   ZoomingDemo.obj
 0001:fffff000       __unwindfunclet$?_Alloc_sentinel_and_proxy@?$_Tree@V?$_Tmap_traits@V?$basic_string@DU?$char_traits@D@std@@V?$allocator@D@2@@std@@V?$weak_ptr@VRawImageData@@@2@U?$less@V?$basic_string@DU?$char_traits@D@std@@V?$allocator@D@2@@std@@@2@V?$allocator@U?$pair@$$CBV?$basic_string@DU?$char_traits@D@std@@V?$allocator@D@2@@std@@V?$weak_ptr@VRawImageData@@@2@@std@@@2@$0A@@std@@@std@@IAEXXZ$0 00400000 f   ZoomingDemo.obj
 0001:fffff000       __unwindfunclet$?_Orphan_range_locked@?$vector@PAVDisplayableObject@@V?$allocator@PAVDisplayableObject@@@std@@@std@@ABEXPAPAVDisplayableObject@@0@Z$0 00400000 f   ZoomingDemo.obj
 0001:fffff000       __unwindfunclet$?get@ImageManager@@SAPAV1@XZ$0 00400000 f   ZoomingDemo.obj
 0001:fffff000       __unwindfunclet$?getImagePtrbyURL@ImageManager@@QAE?AV?$shared_ptr@VRawImageData@@@std@@V?$basic_string@DU?$char_traits@D@std@@V?$allocator@D@2@@3@_N1@Z$0 00400000 f   ZoomingDemo.obj
 0001:fffff000       __unwindfunclet$?getImagebyURL@ImageManager@@QAE?AVSimpleImage@@V?$basic_string@DU?$char_traits@D@std@@V?$allocator@D@2@@std@@_N1@Z$0 00400000 f   ZoomingDemo.obj
 0001:fffff000       __unwindfunclet$?loadAsNew@ImageManager@@QAE?AV?$shared_ptr@VRawImageData@@@std@@V?$basic_string@DU?$char_traits@D@std@@V?$allocator@D@2@@3@@Z$0 00400000 f   ZoomingDemo.obj
 0001:fffff000       __unwindfunclet$?loadImage@RawImageData@@QAE_NV?$basic_string@DU?$char_traits@D@std@@V?$allocator@D@2@@std@@HHHHH_N@Z$0 00400000 f   ZoomingDemo.obj
 0002:fffbe000       __unwindtable$??$?0U?$pair@V?$basic_string@DU?$char_traits@D@std@@V?$allocator@D@2@@std@@V?$shared_ptr@VRawImageData@@@2@@std@@@?$_Tree_temp_node@V?$allocator@U?$_Tree_node@U?$pair@$$CBV?$basic_string@DU?$char_traits@D@std@@V?$allocator@D@2@@std@@V?$shared_ptr@VRawImageData@@@2@@std@@PAX@std@@@std@@@std@@QAE@AAV?$allocator@U?$_Tree_node@U?$pair@$$CBV?$basic_string@DU?$char_traits@D@std@@V?$allocator@D@2@@std@@V?$shared_ptr@VRawImageData@@@2@@std@@PAX@std@@@1@PAU?$_Tree_node@U?$pair@$$CBV?$basic_string@DU?$char_traits@D@std@@V?$allocator@D@2@@std@@V?$shared_ptr@VRawImageData@@@2@@std@@PAX@1@$$QAU?$pair@V?$basic_string@DU?$char_traits@D@std@@V?$allocator@D@2@@std@@V?$shared_ptr@VRawImageData@@@2@@1@@Z 00400000     ZoomingDemo.obj
 0002:fffbe000       __unwindtable$??$?0U?$pair@V?$basic_string@DU?$char_traits@D@std@@V?$allocator@D@2@@std@@V?$weak_ptr@VRawImageData@@@2@@std@@@?$_Tree_temp_node@V?$allocator@U?$_Tree_node@U?$pair@$$CBV?$basic_string@DU?$char_traits@D@std@@V?$allocator@D@2@@std@@V?$weak_ptr@VRawImageData@@@2@@std@@PAX@std@@@std@@@std@@QAE@AAV?$allocator@U?$_Tree_node@U?$pair@$$CBV?$basic_string@DU?$char_traits@D@std@@V?$allocator@D@2@@std@@V?$weak_ptr@VRawImageData@@@2@@std@@PAX@std@@@1@PAU?$_Tree_node@U?$pair@$$CBV?$basic_string@DU?$char_traits@D@std@@V?$allocator@D@2@@std@@V?$weak_ptr@VRawImageData@@@2@@std@@PAX@1@$$QAU?$pair@V?$basic_string@DU?$char_traits@D@std@@V?$allocator@D@2@@std@@V?$weak_ptr@VRawImageData@@@2@@1@@Z 00400000     ZoomingDemo.obj
 0002:fffbe000       __unwindtable$??$?0VRawImageData@@$0A@@?$shared_ptr@VRawImageData@@@std@@QAE@PAVRawImageData@@@Z 00400000     ZoomingDemo.obj
 0002:fffbe000       __unwindtable$??$_Construct@$00PBD@?$basic_string@DU?$char_traits@D@std@@V?$allocator@D@2@@std@@AAEXQBDI@Z 00400000     ZoomingDemo.obj
 0002:fffbe000       __unwindtable$??$_Construct@$01PBD@?$basic_string@DU?$char_traits@D@std@@V?$allocator@D@2@@std@@AAEXQBDI@Z 00400000     ZoomingDemo.obj
 0002:fffbe000       __unwindtable$??$_Uninitialized_move@PAPAVDisplayableObject@@V?$allocator@PAVDisplayableObject@@@std@@@std@@YAPAPAVDisplayableObject@@QAPAV1@0PAPAV1@AAV?$allocator@PAVDisplayableObject@@@0@@Z 00400000     ZoomingDemo.obj
 0002:fffbe000       __unwindtable$??$_Uninitialized_value_construct_n@V?$allocator@PAVDisplayableObject@@@std@@@std@@YAPAPAVDisplayableObject@@PAPAV1@IAAV?$allocator@PAVDisplayableObject@@@0@@Z 00400000     ZoomingDemo.obj
 0002:fffbe000       __unwindtable$??0?$_Tree_temp_node_alloc@V?$allocator@U?$_Tree_node@U?$pair@$$CBV?$basic_string@DU?$char_traits@D@std@@V?$allocator@D@2@@std@@V?$shared_ptr@VRawImageData@@@2@@std@@PAX@std@@@std@@@std@@QAE@AAV?$allocator@U?$_Tree_node@U?$pair@$$CBV?$basic_string@DU?$char_traits@D@std@@V?$allocator@D@2@@std@@V?$shared_ptr@VRawImageData@@@2@@std@@PAX@std@@@1@@Z 00400000     ZoomingDemo.obj
 0002:fffbe000       __unwindtable$??0?$_Tree_temp_node_alloc@V?$allocator@U?$_Tree_node@U?$pair@$$CBV?$basic_string@DU?$char_traits@D@std@@V?$allocator@D@2@@std@@V?$weak_ptr@VRawImageData@@@2@@std@@PAX@std@@@std@@@std@@QAE@AAV?$allocator@U?$_Tree_node@U?$pair@$$CBV?$basic_string@DU?$char_traits@D@std@@V?$allocator@D@2@@std@@V?$weak_ptr@VRawImageData@@@2@@std@@PAX@std@@@1@@Z 00400000     ZoomingDemo.obj
 0002:fffbe000       __unwindtable$??0?$basic_string@DU?$char_traits@D@std@@V?$allocator@D@2@@std@@QAE@ABV01@@Z 00400000     ZoomingDemo.obj
 0002:fffbe000       __unwindtable$??0?$basic_string@DU?$char_traits@D@std@@V?$allocator@D@2@@std@@QAE@QBD@Z 00400000     ZoomingDemo.obj
 0002:fffbe000       __unwindtable$??0DragableImageObject@@QAE@HHPAVBaseEngine@@V?$basic_string@DU?$char_traits@D@std@@V?$allocator@D@2@@std@@_N2@Z 00400000     ZoomingDemo.obj
 0002:fffbe000       __unwindtable$??0DragableObject@@QAE@HHPAVBaseEngine@@HH_N1@Z 00400000     ZoomingDemo.obj
 0002:fffbe000       __unwindtable$??0ImageManager@@QAE@XZ 00400000     ZoomingDemo.obj
 0002:fffbe000       __unwindtable$??0RawImageData@@QAE@V?$basic_string@DU?$char_traits@D@std@@V?$allocator@D@2@@std@@@Z 00400000     ZoomingDemo.obj
 0002:fffbe000       __unwindtable$??0sentry@?$basic_ostream@DU?$char_traits@D@std@@@std@@QAE@AAV12@@Z 00400000     ZoomingDemo.obj
 0002:fffbe000       __unwindtable$?_Alloc_sentinel_and_proxy@?$_Tree@V?$_Tmap_traits@V?$basic_string@DU?$char_traits@D@std@@V?$allocator@D@2@@std@@V?$shared_ptr@VRawImageData@@@2@U?$less@V?$basic_string@DU?$char_traits@D@std@@V?$allocator@D@2@@std@@@2@V?$allocator@U?$pair@$$CBV?$basic_string@DU?$char_traits@D@std@@V?$allocator@D@2@@std@@V?$shared_ptr@VRawImageData@@@2@@std@@@2@$0A@@std@@@std@@IAEXXZ 00400000     ZoomingDemo.obj
 0002:fffbe000       __unwindtable$?_Alloc_sentinel_and_proxy@?$_Tree@V?$_Tmap_traits@V?$basic_string@DU?$char_traits@D@std@@V?$allocator@D@2@@std@@V?$weak_ptr@VRawImageData@@@2@U?$less@V?$basic_string@DU?$char_traits@D@std@@V?$allocator@D@2@@std@@@2@V?$allocator@U?$pair@$$CBV?$basic_string@DU?$char_traits@D@std@@V?$allocator@D@2@@std@@V?$weak_ptr@VRawImageData@@@2@@std@@@2@$0A@@std@@@std@@IAEXXZ 00400000     ZoomingDemo.obj
 0002:fffbe000       __unwindtable$?_Orphan_range_locked@?$vector@PAVDisplayableObject@@V?$allocator@PAVDisplayableObject@@@std@@@std@@ABEXPAPAVDisplayableObject@@0@Z 00400000     ZoomingDemo.obj
 0002:fffbe000       __unwindtable$?get@ImageManager@@SAPAV1@XZ 00400000     ZoomingDemo.obj
 0002:fffbe000       __unwindtable$?getImagebyURL@ImageManager@@QAE?AVSimpleImage@@V?$basic_string@DU?$char_traits@D@std@@V?$allocator@D@2@@std@@_N1@Z 00400000     ZoomingDemo.obj
 0002:fffbe000       __unwindtable$?loadAsNew@ImageManager@@QAE?AV?$shared_ptr@VRawImageData@@@std@@V?$basic_string@DU?$char_traits@D@std@@V?$allocator@D@2@@3@@Z 00400000     ZoomingDemo.obj
 0002:fffbe000       __unwindtable$?loadImage@RawImageData@@QAE_NV?$basic_string@DU?$char_traits@D@std@@V?$allocator@D@2@@std@@HHHHH_N@Z 00400000     ZoomingDemo.obj
 0000:00000000       _volmd                     00400000     ZoomingDemo.obj
 0000:00000000       _volmd                     00400000     ZoomingDemo.obj
 0000:00000000       _volmd                     00400000     ZoomingDemo.obj
 0000:00000000       _volmd                     00400000     ZoomingDemo.obj
 0000:00000000       _volmd                     00400000     ZoomingDemo.obj
 0000:00000000       _volmd                     00400000     ZoomingDemo.obj
 0000:00000000       _volmd                     00400000     ZoomingDemo.obj
 0000:00000000       _volmd                     00400000     ZoomingDemo.obj
 0000:00000000       _volmd                     00400000     ZoomingDemo.obj
 0000:00000000       _volmd                     00400000     ZoomingDemo.obj
 0000:00000000       _volmd                     00400000     ZoomingDemo.obj
 0000:00000000       _volmd                     00400000     ZoomingDemo.obj
 0000:00000000       _volmd                     00400000     ZoomingDemo.obj
 0000:00000000       _volmd                     00400000     ZoomingDemo.obj
 0000:00000000       _volmd                     00400000     ZoomingDemo.obj
 0000:00000000       _volmd                     00400000     ZoomingDemo.obj
 0000:00000000       _volmd                     00400000     ZoomingDemo.obj
 0000:00000000       _volmd                     00400000     ZoomingDemo.obj
 0000:00000000       _volmd                     00400000     ZoomingDemo.obj
 0000:00000000       _volmd                     00400000     ZoomingDemo.obj
 0000:00000000       _volmd                     00400000     ZoomingDemo.obj
 0000:00000000       _volmd                     00400000     ZoomingDemo.obj
 0000:00000000       _volmd                     00400000     ZoomingDemo.obj
 0000:00000000       _volmd                     00400000     ZoomingDemo.obj
 0000:00000000       _volmd                     00400000     ZoomingDemo.obj
 0000:00000000       _volmd                     00400000     ZoomingDemo.obj
 0000:00000000       _volmd                     00400000     ZoomingDemo.obj
 0000:00000000       _volmd                     00400000     ZoomingDemo.obj
 0000:00000000       _volmd                     00400000     ZoomingDemo.obj
 0000:00000000       _volmd                     00400000     ZoomingDemo.obj
 0000:00000000       _volmd                     00400000     ZoomingDemo.obj
 0000:00000000       _volmd                     00400000     ZoomingDemo.obj
 0000:00000000       _volmd                     00400000     ZoomingDemo.obj
 0000:00000000       _volmd                     00400000     ZoomingDemo.obj
 0000:00000000       _volmd                     00400000     ZoomingDemo.obj
 0000:00000000       _volmd                     00400000     ZoomingDemo.obj
 0000:00000000       _volmd                     00400000     ZoomingDemo.obj
 0000:00000000       _volmd                     00400000     ZoomingDemo.obj
 0000:00000000       _volmd                     00400000     ZoomingDemo.obj
 0000:00000000       _volmd                     00400000     ZoomingDemo.obj
 0000:00000000       _volmd                     00400000     ZoomingDemo.obj
 0000:00000000       _volmd                     00400000     ZoomingDemo.obj
 0000:00000000       _volmd                     00400000     ZoomingDemo.obj
 0000:00000000       _volmd                     00400000     ZoomingDemo.obj
 0000:00000000       _volmd                     00400000     ZoomingDemo.obj
 0002:fffbe000       __catchsym$??$?6U?$char_traits@D@std@@@std@@YAAAV?$basic_ostream@DU?$char_traits@D@std@@@0@AAV10@PBD@Z$3 00400000     efylw5Engine.obj
 0002:fffbe000       __catchsym$??$_Insert_string@DU?$char_traits@D@std@@I@std@@YAAAV?$basic_ostream@DU?$char_traits@D@std@@@0@AAV10@QBDI@Z$3 00400000     efylw5Engine.obj
 0002:fffbe000       __catchsym$??$_Resize_reallocate@U_Value_init_tag@std@@@?$vector@PAVDisplayableObject@@V?$allocator@PAVDisplayableObject@@@std@@@std@@AAEXIABU_Value_init_tag@1@@Z$2 00400000     efylw5Engine.obj
 0002:fffbe000       __ehfuncinfo$??$_Deallocate@$07$0A@@std@@YAXPAXI@Z 00400000     efylw5Engine.obj
 0002:fffbe000       __ehfuncinfo$??$_Deallocate_plain@V?$allocator@U_Container_proxy@std@@@std@@@std@@YAXAAV?$allocator@U_Container_proxy@std@@@0@QAU_Container_proxy@0@@Z 00400000     efylw5Engine.obj
 0002:fffbe000       __ehfuncinfo$??$_Freenode0@V?$allocator@U?$_Tree_node@U?$pair@$$CBV?$basic_string@DU?$char_traits@D@std@@V?$allocator@D@2@@std@@V?$weak_ptr@VRawImageData@@@2@@std@@PAX@std@@@std@@@?$_Tree_node@U?$pair@$$CBV?$basic_string@DU?$char_traits@D@std@@V?$allocator@D@2@@std@@V?$weak_ptr@VRawImageData@@@2@@std@@PAX@std@@SAXAAV?$allocator@U?$_Tree_node@U?$pair@$$CBV?$basic_string@DU?$char_traits@D@std@@V?$allocator@D@2@@std@@V?$weak_ptr@VRawImageData@@@2@@std@@PAX@std@@@1@PAU01@@Z 00400000     efylw5Engine.obj
 0002:fffbe000       __ehfuncinfo$??$_Freenode@V?$allocator@U?$_Tree_node@U?$pair@$$CBV?$basic_string@DU?$char_traits@D@std@@V?$allocator@D@2@@std@@V?$weak_ptr@VRawImageData@@@2@@std@@PAX@std@@@std@@@?$_Tree_node@U?$pair@$$CBV?$basic_string@DU?$char_traits@D@std@@V?$allocator@D@2@@std@@V?$weak_ptr@VRawImageData@@@2@@std@@PAX@std@@SAXAAV?$allocator@U?$_Tree_node@U?$pair@$$CBV?$basic_string@DU?$char_traits@D@std@@V?$allocator@D@2@@std@@V?$weak_ptr@VRawImageData@@@2@@std@@PAX@std@@@1@PAU01@@Z 00400000     efylw5Engine.obj
 0002:fffbe000       __ehfuncinfo$??0?$basic_string@DU?$char_traits@D@std@@V?$allocator@D@2@@std@@QAE@$$QAV01@@Z 00400000     efylw5Engine.obj
 0002:fffbe000       __ehfuncinfo$??1?$_Alloc_construct_ptr@V?$allocator@U?$_Tree_node@U?$pair@$$CBV?$basic_string@DU?$char_traits@D@std@@V?$allocator@D@2@@std@@V?$shared_ptr@VRawImageData@@@2@@std@@PAX@std@@@std@@@std@@QAE@XZ 00400000     efylw5Engine.obj
 0002:fffbe000       __ehfuncinfo$??1?$_Alloc_construct_ptr@V?$allocator@U?$_Tree_node@U?$pair@$$CBV?$basic_string@DU?$char_traits@D@std@@V?$allocator@D@2@@std@@V?$weak_ptr@VRawImageData@@@2@@std@@PAX@std@@@std@@@std@@QAE@XZ 00400000     efylw5Engine.obj
 0002:fffbe000       __ehfuncinfo$??1?$_Tree_temp_node@V?$allocator@U?$_Tree_node@U?$pair@$$CBV?$basic_string@DU?$char_traits@D@std@@V?$allocator@D@2@@std@@V?$shared_ptr@VRawImageData@@@2@@std@@PAX@std@@@std@@@std@@QAE@XZ 00400000     efylw5Engine.obj
 0002:fffbe000       __ehfuncinfo$??1?$_Tree_temp_node@V?$allocator@U?$_Tree_node@U?$pair@$$CBV?$basic_string@DU?$char_traits@D@std@@V?$allocator@D@2@@std@@V?$weak_ptr@VRawImageData@@@2@@std@@PAX@std@@@std@@@std@@QAE@XZ 00400000     efylw5Engine.obj
 0002:fffbe000       __ehfuncinfo$??1RawImageData@@QAE@XZ 00400000     efylw5Engine.obj
 0002:fffbe000       __ehfuncinfo$??1_Sentry_base@?$basic_ostream@DU?$char_traits@D@std@@@std@@QAE@XZ 00400000     efylw5Engine.obj
 0002:fffbe000       __ehfuncinfo$??1sentry@?$basic_ostream@DU?$char_traits@D@std@@@std@@QAE@XZ 00400000     efylw5Engine.obj
 0002:fffbe000       __ehfuncinfo$?_Take_contents@?$basic_string@DU?$char_traits@D@std@@V?$allocator@D@2@@std@@AAEXAAV12@@Z 00400000     efylw5Engine.obj
 0002:fffbe000       __ehfuncinfo$?_Tidy_deallocate@?$basic_string@DU?$char_traits@D@std@@V?$allocator@D@2@@std@@AAEXXZ 00400000     efylw5Engine.obj
 0002:fffbe000       __ehfuncinfo$?getImagePtrbyURL@ImageManager@@QAE?AV?$shared_ptr@VRawImageData@@@std@@V?$basic_string@DU?$char_traits@D@std@@V?$allocator@D@2@@3@_N1@Z 00400000     efylw5Engine.obj
 0001:fffff000       __ehhandler$??$_Deallocate@$07$0A@@std@@YAXPAXI@Z 00400000 f   efylw5Engine.obj
 0001:fffff000       __ehhandler$??$_Deallocate_plain@V?$allocator@U_Container_proxy@std@@@std@@@std@@YAXAAV?$allocator@U_Container_proxy@std@@@0@QAU_Container_proxy@0@@Z 00400000 f   efylw5Engine.obj
 0001:fffff000       __ehhandler$??$_Freenode0@V?$allocator@U?$_Tree_node@U?$pair@$$CBV?$basic_string@DU?$char_traits@D@std@@V?$allocator@D@2@@std@@V?$weak_ptr@VRawImageData@@@2@@std@@PAX@std@@@std@@@?$_Tree_node@U?$pair@$$CBV?$basic_string@DU?$char_traits@D@std@@V?$allocator@D@2@@std@@V?$weak_ptr@VRawImageData@@@2@@std@@PAX@std@@SAXAAV?$allocator@U?$_Tree_node@U?$pair@$$CBV?$basic_string@DU?$char_traits@D@std@@V?$allocator@D@2@@std@@V?$weak_ptr@VRawImageData@@@2@@std@@PAX@std@@@1@PAU01@@Z 00400000 f   efylw5Engine.obj
 0001:fffff000       __ehhandler$??$_Freenode@V?$allocator@U?$_Tree_node@U?$pair@$$CBV?$basic_string@DU?$char_traits@D@std@@V?$allocator@D@2@@std@@V?$weak_ptr@VRawImageData@@@2@@std@@PAX@std@@@std@@@?$_Tree_node@U?$pair@$$CBV?$basic_string@DU?$char_traits@D@std@@V?$allocator@D@2@@std@@V?$weak_ptr@VRawImageData@@@2@@std@@PAX@std@@SAXAAV?$allocator@U?$_Tree_node@U?$pair@$$CBV?$basic_string@DU?$char_traits@D@std@@V?$allocator@D@2@@std@@V?$weak_ptr@VRawImageData@@@2@@std@@PAX@std@@@1@PAU01@@Z 00400000 f   efylw5Engine.obj
 0001:fffff000       __ehhandler$??$_Resize_reallocate@U_Value_init_tag@std@@@?$vector@PAVDisplayableObject@@V?$allocator@PAVDisplayableObject@@@std@@@std@@AAEXIABU_Value_init_tag@1@@Z 00400000 f   efylw5Engine.obj
 0001:fffff000       __ehhandler$??0?$basic_string@DU?$char_traits@D@std@@V?$allocator@D@2@@std@@QAE@$$QAV01@@Z 00400000 f   efylw5Engine.obj
 0001:fffff000       __ehhandler$??1?$_Alloc_construct_ptr@V?$allocator@U?$_Tree_node@U?$pair@$$CBV?$basic_string@DU?$char_traits@D@std@@V?$allocator@D@2@@std@@V?$shared_ptr@VRawImageData@@@2@@std@@PAX@std@@@std@@@std@@QAE@XZ 00400000 f   efylw5Engine.obj
 0001:fffff000       __ehhandler$??1?$_Alloc_construct_ptr@V?$allocator@U?$_Tree_node@U?$pair@$$CBV?$basic_string@DU?$char_traits@D@std@@V?$allocator@D@2@@std@@V?$weak_ptr@VRawImageData@@@2@@std@@PAX@std@@@std@@@std@@QAE@XZ 00400000 f   efylw5Engine.obj
 0001:fffff000       __ehhandler$??1?$_Tree_temp_node@V?$allocator@U?$_Tree_node@U?$pair@$$CBV?$basic_string@DU?$char_traits@D@std@@V?$allocator@D@2@@std@@V?$shared_ptr@VRawImageData@@@2@@std@@PAX@std@@@std@@@std@@QAE@XZ 00400000 f   efylw5Engine.obj
 0001:fffff000       __ehhandler$??1?$_Tree_temp_node@V?$allocator@U?$_Tree_node@U?$pair@$$CBV?$basic_string@DU?$char_traits@D@std@@V?$allocator@D@2@@std@@V?$weak_ptr@VRawImageData@@@2@@std@@PAX@std@@@std@@@std@@QAE@XZ 00400000 f   efylw5Engine.obj
 0001:fffff000       __ehhandler$??1RawImageData@@QAE@XZ 00400000 f   efylw5Engine.obj
 0001:fffff000       __ehhandler$??1_Sentry_base@?$basic_ostream@DU?$char_traits@D@std@@@std@@QAE@XZ 00400000 f   efylw5Engine.obj
 0001:fffff000       __ehhandler$??1sentry@?$basic_ostream@DU?$char_traits@D@std@@@std@@QAE@XZ 00400000 f   efylw5Engine.obj
 0001:fffff000       __ehhandler$?_Take_contents@?$basic_string@DU?$char_traits@D@std@@V?$allocator@D@2@@std@@AAEXAAV12@@Z 00400000 f   efylw5Engine.obj
 0001:fffff000       __ehhandler$?_Tidy_deallocate@?$basic_string@DU?$char_traits@D@std@@V?$allocator@D@2@@std@@AAEXXZ 00400000 f   efylw5Engine.obj
 0001:fffff000       __unwindfunclet$??$?0U?$pair@V?$basic_string@DU?$char_traits@D@std@@V?$allocator@D@2@@std@@V?$shared_ptr@VRawImageData@@@2@@std@@@?$_Tree_temp_node@V?$allocator@U?$_Tree_node@U?$pair@$$CBV?$basic_string@DU?$char_traits@D@std@@V?$allocator@D@2@@std@@V?$shared_ptr@VRawImageData@@@2@@std@@PAX@std@@@std@@@std@@QAE@AAV?$allocator@U?$_Tree_node@U?$pair@$$CBV?$basic_string@DU?$char_traits@D@std@@V?$allocator@D@2@@std@@V?$shared_ptr@VRawImageData@@@2@@std@@PAX@std@@@1@PAU?$_Tree_node@U?$pair@$$CBV?$basic_string@DU?$char_traits@D@std@@V?$allocator@D@2@@std@@V?$shared_ptr@VRawImageData@@@2@@std@@PAX@1@$$QAU?$pair@V?$basic_string@DU?$char_traits@D@std@@V?$allocator@D@2@@std@@V?$shared_ptr@VRawImageData@@@2@@1@@Z$0 00400000 f   efylw5Engine.obj
 0001:fffff000       __unwindfunclet$??$?0U?$pair@V?$basic_string@DU?$char_traits@D@std@@V?$allocator@D@2@@std@@V?$weak_ptr@VRawImageData@@@2@@std@@@?$_Tree_temp_node@V?$allocator@U?$_Tree_node@U?$pair@$$CBV?$basic_string@DU?$char_traits@D@std@@V?$allocator@D@2@@std@@V?$weak_ptr@VRawImageData@@@2@@std@@PAX@std@@@std@@@std@@QAE@AAV?$allocator@U?$_Tree_node@U?$pair@$$CBV?$basic_string@DU?$char_traits@D@std@@V?$allocator@D@2@@std@@V?$weak_ptr@VRawImageData@@@2@@std@@PAX@std@@@1@PAU?$_Tree_node@U?$pair@$$CBV?$basic_string@DU?$char_traits@D@std@@V?$allocator@D@2@@std@@V?$weak_ptr@VRawImageData@@@2@@std@@PAX@1@$$QAU?$pair@V?$basic_string@DU?$char_traits@D@std@@V?$allocator@D@2@@std@@V?$weak_ptr@VRawImageData@@@2@@1@@Z$0 00400000 f   efylw5Engine.obj
 0001:fffff000       __unwindfunclet$??$?0VRawImageData@@$0A@@?$shared_ptr@VRawImageData@@@std@@QAE@PAVRawImageData@@@Z$0 00400000 f   efylw5Engine.obj
 0001:fffff000       __unwindfunclet$??$?6U?$char_traits@D@std@@@std@@YAAAV?$basic_ostream@DU?$char_traits@D@std@@@0@AAV10@PBD@Z$2 00400000 f   efylw5Engine.obj
 0001:fffff000       __unwindfunclet$??$_Construct@$00PBD@?$basic_string@DU?$char_traits@D@std@@V?$allocator@D@2@@std@@AAEXQBDI@Z$0 00400000 f   efylw5Engine.obj
 0001:fffff000       __unwindfunclet$??$_Construct@$01PBD@?$basic_string@DU?$char_traits@D@std@@V?$allocator@D@2@@std@@AAEXQBDI@Z$0 00400000 f   efylw5Engine.obj
 0001:fffff000       __unwindfunclet$??$_Insert_string@DU?$char_traits@D@std@@I@std@@YAAAV?$basic_ostream@DU?$char_traits@D@std@@@0@AAV10@QBDI@Z$2 00400000 f   efylw5Engine.obj
 0001:fffff000       __unwindfunclet$??$_Uninitialized_move@PAPAVDisplayableObject@@V?$allocator@PAVDisplayableObject@@@std@@@std@@YAPAPAVDisplayableObject@@QAPAV1@0PAPAV1@AAV?$allocator@PAVDisplayableObject@@@0@@Z$0 00400000 f   efylw5Engine.obj
 0001:fffff000       __unwindfunclet$??$_Uninitialized_value_construct_n@V?$allocator@PAVDisplayableObject@@@std@@@std@@YAPAPAVDisplayableObject@@PAPAV1@IAAV?$allocator@PAVDisplayableObject@@@0@@Z$0 00400000 f   efylw5Engine.obj
 0001:fffff000       __unwindfunclet$??0?$_Tree_temp_node_alloc@V?$allocator@U?$_Tree_node@U?$pair@$$CBV?$basic_string@DU?$char_traits@D@std@@V?$allocator@D@2@@std@@V?$shared_ptr@VRawImageData@@@2@@std@@PAX@std@@@std@@@std@@QAE@AAV?$allocator@U?$_Tree_node@U?$pair@$$CBV?$basic_string@DU?$char_traits@D@std@@V?$allocator@D@2@@std@@V?$shared_ptr@VRawImageData@@@2@@std@@PAX@std@@@1@@Z$0 00400000 f   efylw5Engine.obj
 0001:fffff000       __unwindfunclet$??0?$_Tree_temp_node_alloc@V?$allocator@U?$_Tree_node@U?$pair@$$CBV?$basic_string@DU?$char_traits@D@std@@V?$allocator@D@2@@std@@V?$weak_ptr@VRawImageData@@@2@@std@@PAX@std@@@std@@@std@@QAE@AAV?$allocator@U?$_Tree_node@U?$pair@$$CBV?$basic_string@DU?$char_traits@D@std@@V?$allocator@D@2@@std@@V?$weak_ptr@VRawImageData@@@2@@std@@PAX@std@@@1@@Z$0 00400000 f   efylw5Engine.obj
 0001:fffff000       __unwindfunclet$??0?$basic_string@DU?$char_traits@D@std@@V?$allocator@D@2@@std@@QAE@ABV01@@Z$0 00400000 f   efylw5Engine.obj
 0001:fffff000       __unwindfunclet$??0?$basic_string@DU?$char_traits@D@std@@V?$allocator@D@2@@std@@QAE@QBD@Z$0 00400000 f   efylw5Engine.obj
 0001:fffff000       __unwindfunclet$??0ImageManager@@QAE@XZ$0 00400000 f   efylw5Engine.obj
 0001:fffff000       __unwindfunclet$??0RawImageData@@QAE@V?$basic_string@DU?$char_traits@D@std@@V?$allocator@D@2@@std@@@Z$0 00400000 f   efylw5Engine.obj
 0001:fffff000       __unwindfunclet$??0sentry@?$basic_ostream@DU?$char_traits@D@std@@@std@@QAE@AAV12@@Z$0 00400000 f   efylw5Engine.obj
 0001:fffff000       __unwindfunclet$?_Alloc_sentinel_and_proxy@?$_Tree@V?$_Tmap_traits@V?$basic_string@DU?$char_traits@D@std@@V?$allocator@D@2@@std@@V?$shared_ptr@VRawImageData@@@2@U?$less@V?$basic_string@DU?$char_traits@D@std@@V?$allocator@D@2@@std@@@2@V?$allocator@U?$pair@$$CBV?$basic_string@DU?$char_traits@D@std@@V?$allocator@D@2@@std@@V?$shared_ptr@VRawImageData@@@2@@std@@@2@$0A@@std@@@std@@IAEXXZ$0 00400000 f   efylw5Engine.obj
 0001:fffff000       __unwindfunclet$?_Alloc_sentinel_and_proxy@?$_Tree@V?$_Tmap_traits@V?$basic_string@DU?$char_traits@D@std@@V?$allocator@D@2@@std@@V?$weak_ptr@VRawImageData@@@2@U?$less@V?$basic_string@DU?$char_traits@D@std@@V?$allocator@D@2@@std@@@2@V?$allocator@U?$pair@$$CBV?$basic_string@DU?$char_traits@D@std@@V?$allocator@D@2@@std@@V?$weak_ptr@VRawImageData@@@2@@std@@@2@$0A@@std@@@std@@IAEXXZ$0 00400000 f   efylw5Engine.obj
 0001:fffff000       __unwindfunclet$?_Orphan_range_locked@?$vector@PAVDisplayableObject@@V?$allocator@PAVDisplayableObject@@@std@@@std@@ABEXPAPAVDisplayableObject@@0@Z$0 00400000 f   efylw5Engine.obj
 0001:fffff000       __unwindfunclet$?get@ImageManager@@SAPAV1@XZ$0 00400000 f   efylw5Engine.obj
